
/home/runner/workspace/base_node/build/base_node.elf:     file format elf32-littlearm

Sections:
Idx Name          Size      VMA       LMA       File off  Algn
  0 .boot2        00000100  10000000  10000000  00001000  2**0
                  CONTENTS, ALLOC, LOAD, READONLY, CODE
  1 .text         0000a4d0  10000100  10000100  00001100  2**3
                  CONTENTS, ALLOC, LOAD, READONLY, CODE
  2 .rodata       00008088  1000a5d0  1000a5d0  0000b5d0  2**3
                  CONTENTS, ALLOC, LOAD, READONLY, DATA
  3 .binary_info  0000001c  10012658  10012658  00013658  2**2
                  CONTENTS, ALLOC, LOAD, READONLY, DATA
  4 .ram_vector_table 000000c0  20000000  20000000  00015000  2**2
                  ALLOC
  5 .uninitialized_data 00000000  200000c0  200000c0  00014898  2**0
                  CONTENTS
  6 .data         000007d8  200000c0  10012674  000140c0  2**4
                  CONTENTS, ALLOC, LOAD, READONLY, CODE
  7 .tdata        00000000  20000898  20000898  00014898  2**0
                  CONTENTS, ALLOC, LOAD, DATA, THREAD_LOCAL
  8 .tbss         00000000  20000898  20000898  00000000  2**0
                  ALLOC, THREAD_LOCAL
  9 .bss          00000610  20000898  10012e4c  00014898  2**3
                  ALLOC
 10 .heap         00000800  20000ea8  20000ea8  00014898  2**2
                  CONTENTS, READONLY
 11 .scratch_x    00000000  20040000  20040000  00015098  2**0
                  CONTENTS
 12 .scratch_y    00000000  20041000  20041000  00015098  2**0
                  CONTENTS
 13 .stack_dummy  00000800  20041000  20041000  000150a0  2**5
                  CONTENTS, READONLY
 14 .ARM.attributes 00000028  00000000  00000000  000158a0  2**0
                  CONTENTS, READONLY
 15 .comment      00000045  00000000  00000000  000158c8  2**0
                  CONTENTS, READONLY
 16 .debug_info   0001f728  00000000  00000000  0001590d  2**0
                  CONTENTS, READONLY, DEBUGGING, OCTETS
 17 .debug_abbrev 00005555  00000000  00000000  00035035  2**0
                  CONTENTS, READONLY, DEBUGGING, OCTETS
 18 .debug_loclists 00011067  00000000  00000000  0003a58a  2**0
                  CONTENTS, READONLY, DEBUGGING, OCTETS
 19 .debug_aranges 00000fa8  00000000  00000000  0004b5f8  2**3
                  CONTENTS, READONLY, DEBUGGING, OCTETS
 20 .debug_rnglists 00003375  00000000  00000000  0004c5a0  2**0
                  CONTENTS, READONLY, DEBUGGING, OCTETS
 21 .debug_line   00017a3c  00000000  00000000  0004f915  2**0
                  CONTENTS, READONLY, DEBUGGING, OCTETS
 22 .debug_str    00004a90  00000000  00000000  00067351  2**0
                  CONTENTS, READONLY, DEBUGGING, OCTETS
 23 .debug_frame  00002e80  00000000  00000000  0006bde4  2**2
                  CONTENTS, READONLY, DEBUGGING, OCTETS
 24 .debug_line_str 00000414  00000000  00000000  0006ec64  2**0
                  CONTENTS, READONLY, DEBUGGING, OCTETS

/home/runner/workspace/base_node/build/base_node.elf:     file format elf32-littlearm


Disassembly of section .boot2:

10000000 <__boot2_start__>:
10000000:	4b32b500 	.word	0x4b32b500
10000004:	60582021 	.word	0x60582021
10000008:	21026898 	.word	0x21026898
1000000c:	60984388 	.word	0x60984388
10000010:	611860d8 	.word	0x611860d8
10000014:	4b2e6158 	.word	0x4b2e6158
10000018:	60992100 	.word	0x60992100
1000001c:	61592102 	.word	0x61592102
10000020:	22f02101 	.word	0x22f02101
10000024:	492b5099 	.word	0x492b5099
10000028:	21016019 	.word	0x21016019
1000002c:	20356099 	.word	0x20356099
10000030:	f844f000 	.word	0xf844f000
10000034:	42902202 	.word	0x42902202
10000038:	2106d014 	.word	0x2106d014
1000003c:	f0006619 	.word	0xf0006619
10000040:	6e19f834 	.word	0x6e19f834
10000044:	66192101 	.word	0x66192101
10000048:	66182000 	.word	0x66182000
1000004c:	f000661a 	.word	0xf000661a
10000050:	6e19f82c 	.word	0x6e19f82c
10000054:	6e196e19 	.word	0x6e196e19
10000058:	f0002005 	.word	0xf0002005
1000005c:	2101f82f 	.word	0x2101f82f
10000060:	d1f94208 	.word	0xd1f94208
10000064:	60992100 	.word	0x60992100
10000068:	6019491b 	.word	0x6019491b
1000006c:	60592100 	.word	0x60592100
10000070:	481b491a 	.word	0x481b491a
10000074:	21016001 	.word	0x21016001
10000078:	21eb6099 	.word	0x21eb6099
1000007c:	21a06619 	.word	0x21a06619
10000080:	f0006619 	.word	0xf0006619
10000084:	2100f812 	.word	0x2100f812
10000088:	49166099 	.word	0x49166099
1000008c:	60014814 	.word	0x60014814
10000090:	60992101 	.word	0x60992101
10000094:	2800bc01 	.word	0x2800bc01
10000098:	4700d000 	.word	0x4700d000
1000009c:	49134812 	.word	0x49134812
100000a0:	c8036008 	.word	0xc8036008
100000a4:	8808f380 	.word	0x8808f380
100000a8:	b5034708 	.word	0xb5034708
100000ac:	20046a99 	.word	0x20046a99
100000b0:	d0fb4201 	.word	0xd0fb4201
100000b4:	42012001 	.word	0x42012001
100000b8:	bd03d1f8 	.word	0xbd03d1f8
100000bc:	6618b502 	.word	0x6618b502
100000c0:	f7ff6618 	.word	0xf7ff6618
100000c4:	6e18fff2 	.word	0x6e18fff2
100000c8:	bd026e18 	.word	0xbd026e18
100000cc:	40020000 	.word	0x40020000
100000d0:	18000000 	.word	0x18000000
100000d4:	00070000 	.word	0x00070000
100000d8:	005f0300 	.word	0x005f0300
100000dc:	00002221 	.word	0x00002221
100000e0:	180000f4 	.word	0x180000f4
100000e4:	a0002022 	.word	0xa0002022
100000e8:	10000100 	.word	0x10000100
100000ec:	e000ed08 	.word	0xe000ed08
	...
100000fc:	7a4eb274 	.word	0x7a4eb274

Disassembly of section .text:

10000100 <__VECTOR_TABLE>:
10000100:	20042000 	.word	0x20042000
10000104:	100001f7 	.word	0x100001f7
10000108:	100001c3 	.word	0x100001c3
1000010c:	100001c5 	.word	0x100001c5
10000110:	100001c1 	.word	0x100001c1
10000114:	100001c1 	.word	0x100001c1
10000118:	100001c1 	.word	0x100001c1
1000011c:	100001c1 	.word	0x100001c1
10000120:	100001c1 	.word	0x100001c1
10000124:	100001c1 	.word	0x100001c1
10000128:	100001c1 	.word	0x100001c1
1000012c:	100001c7 	.word	0x100001c7
10000130:	100001c1 	.word	0x100001c1
10000134:	100001c1 	.word	0x100001c1
10000138:	100001c9 	.word	0x100001c9
1000013c:	100001cb 	.word	0x100001cb
10000140:	100001cd 	.word	0x100001cd
10000144:	100001cd 	.word	0x100001cd
10000148:	100001cd 	.word	0x100001cd
1000014c:	100001cd 	.word	0x100001cd
10000150:	100001cd 	.word	0x100001cd
10000154:	100001cd 	.word	0x100001cd
10000158:	100001cd 	.word	0x100001cd
1000015c:	100001cd 	.word	0x100001cd
10000160:	100001cd 	.word	0x100001cd
10000164:	100001cd 	.word	0x100001cd
10000168:	100001cd 	.word	0x100001cd
1000016c:	100001cd 	.word	0x100001cd
10000170:	100001cd 	.word	0x100001cd
10000174:	100001cd 	.word	0x100001cd
10000178:	100001cd 	.word	0x100001cd
1000017c:	100001cd 	.word	0x100001cd
10000180:	100001cd 	.word	0x100001cd
10000184:	100001cd 	.word	0x100001cd
10000188:	100001cd 	.word	0x100001cd
1000018c:	100001cd 	.word	0x100001cd
10000190:	100001cd 	.word	0x100001cd
10000194:	100001cd 	.word	0x100001cd
10000198:	100001cd 	.word	0x100001cd
1000019c:	100001cd 	.word	0x100001cd
100001a0:	100001cd 	.word	0x100001cd
100001a4:	100001cd 	.word	0x100001cd
100001a8:	100001cd 	.word	0x100001cd
100001ac:	100001cd 	.word	0x100001cd
100001b0:	100001cd 	.word	0x100001cd
100001b4:	100001cd 	.word	0x100001cd
100001b8:	100001cd 	.word	0x100001cd
100001bc:	100001cd 	.word	0x100001cd

100001c0 <isr_invalid>:
100001c0:	be00      	bkpt	0x0000

100001c2 <isr_nmi>:
100001c2:	be00      	bkpt	0x0000

100001c4 <isr_hardfault>:
100001c4:	be00      	bkpt	0x0000

100001c6 <isr_svcall>:
100001c6:	be00      	bkpt	0x0000

100001c8 <isr_pendsv>:
100001c8:	be00      	bkpt	0x0000

100001ca <isr_systick>:
100001ca:	be00      	bkpt	0x0000

100001cc <__unhandled_user_irq>:
100001cc:	f3ef 8005 	mrs	r0, IPSR
100001d0:	3810      	subs	r0, #16

100001d2 <unhandled_user_irq_num_in_r0>:
100001d2:	be00      	bkpt	0x0000

100001d4 <binary_info_header>:
100001d4:	7188ebf2 	.word	0x7188ebf2
100001d8:	10012658 	.word	0x10012658
100001dc:	10012674 	.word	0x10012674
100001e0:	10000238 	.word	0x10000238
100001e4:	e71aa390 	.word	0xe71aa390

100001e8 <_entry_point>:
100001e8:	481e      	ldr	r0, [pc, #120]	@ (10000264 <data_cpy_table+0x2c>)

100001ea <_enter_vtable_in_r0>:
100001ea:	491f      	ldr	r1, [pc, #124]	@ (10000268 <data_cpy_table+0x30>)
100001ec:	6008      	str	r0, [r1, #0]
100001ee:	c806      	ldmia	r0!, {r1, r2}
100001f0:	f381 8808 	msr	MSP, r1
100001f4:	4710      	bx	r2

100001f6 <_reset_handler>:
100001f6:	481d      	ldr	r0, [pc, #116]	@ (1000026c <data_cpy_table+0x34>)
100001f8:	6800      	ldr	r0, [r0, #0]
100001fa:	2800      	cmp	r0, #0
100001fc:	d001      	beq.n	10000202 <hold_non_core0_in_bootrom+0x4>

100001fe <hold_non_core0_in_bootrom>:
100001fe:	4819      	ldr	r0, [pc, #100]	@ (10000264 <data_cpy_table+0x2c>)
10000200:	e7f3      	b.n	100001ea <_enter_vtable_in_r0>
10000202:	a40d      	add	r4, pc, #52	@ (adr r4, 10000238 <data_cpy_table>)
10000204:	cc0e      	ldmia	r4!, {r1, r2, r3}
10000206:	2900      	cmp	r1, #0
10000208:	d002      	beq.n	10000210 <hold_non_core0_in_bootrom+0x12>
1000020a:	f000 f812 	bl	10000232 <data_cpy>
1000020e:	e7f9      	b.n	10000204 <hold_non_core0_in_bootrom+0x6>
10000210:	4917      	ldr	r1, [pc, #92]	@ (10000270 <data_cpy_table+0x38>)
10000212:	4a18      	ldr	r2, [pc, #96]	@ (10000274 <data_cpy_table+0x3c>)
10000214:	2000      	movs	r0, #0
10000216:	e000      	b.n	1000021a <bss_fill_test>

10000218 <bss_fill_loop>:
10000218:	c101      	stmia	r1!, {r0}

1000021a <bss_fill_test>:
1000021a:	4291      	cmp	r1, r2
1000021c:	d1fc      	bne.n	10000218 <bss_fill_loop>

1000021e <platform_entry>:
1000021e:	4916      	ldr	r1, [pc, #88]	@ (10000278 <data_cpy_table+0x40>)
10000220:	4788      	blx	r1
10000222:	4916      	ldr	r1, [pc, #88]	@ (1000027c <data_cpy_table+0x44>)
10000224:	4788      	blx	r1
10000226:	4916      	ldr	r1, [pc, #88]	@ (10000280 <data_cpy_table+0x48>)
10000228:	4788      	blx	r1
1000022a:	be00      	bkpt	0x0000
1000022c:	e7fd      	b.n	1000022a <platform_entry+0xc>

1000022e <data_cpy_loop>:
1000022e:	c901      	ldmia	r1!, {r0}
10000230:	c201      	stmia	r2!, {r0}

10000232 <data_cpy>:
10000232:	429a      	cmp	r2, r3
10000234:	d3fb      	bcc.n	1000022e <data_cpy_loop>
10000236:	4770      	bx	lr

10000238 <data_cpy_table>:
10000238:	10012674 	.word	0x10012674
1000023c:	200000c0 	.word	0x200000c0
10000240:	20000898 	.word	0x20000898
10000244:	10012e4c 	.word	0x10012e4c
10000248:	20040000 	.word	0x20040000
1000024c:	20040000 	.word	0x20040000
10000250:	10012e4c 	.word	0x10012e4c
10000254:	20041000 	.word	0x20041000
10000258:	20041000 	.word	0x20041000
1000025c:	00000000 	.word	0x00000000
10000260:	4770      	bx	lr
10000262:	0000      	.short	0x0000
10000264:	00000000 	.word	0x00000000
10000268:	e000ed08 	.word	0xe000ed08
1000026c:	d0000000 	.word	0xd0000000
10000270:	20000898 	.word	0x20000898
10000274:	20000ea8 	.word	0x20000ea8
10000278:	10004a5d 	.word	0x10004a5d
1000027c:	10000981 	.word	0x10000981
10000280:	10004a1d 	.word	0x10004a1d

10000284 <_init>:
10000284:	b5f8      	push	{r3, r4, r5, r6, r7, lr}
10000286:	46c0      	nop			@ (mov r8, r8)

10000288 <register_tm_clones>:
10000288:	4806      	ldr	r0, [pc, #24]	@ (100002a4 <register_tm_clones+0x1c>)
1000028a:	4907      	ldr	r1, [pc, #28]	@ (100002a8 <register_tm_clones+0x20>)
1000028c:	1a09      	subs	r1, r1, r0
1000028e:	108b      	asrs	r3, r1, #2
10000290:	0fc9      	lsrs	r1, r1, #31
10000292:	18c9      	adds	r1, r1, r3
10000294:	b510      	push	{r4, lr}
10000296:	1049      	asrs	r1, r1, #1
10000298:	d003      	beq.n	100002a2 <register_tm_clones+0x1a>
1000029a:	4b04      	ldr	r3, [pc, #16]	@ (100002ac <register_tm_clones+0x24>)
1000029c:	2b00      	cmp	r3, #0
1000029e:	d000      	beq.n	100002a2 <register_tm_clones+0x1a>
100002a0:	4798      	blx	r3
100002a2:	bd10      	pop	{r4, pc}
100002a4:	20000898 	.word	0x20000898
100002a8:	20000898 	.word	0x20000898
100002ac:	00000000 	.word	0x00000000

100002b0 <frame_dummy>:
100002b0:	4b05      	ldr	r3, [pc, #20]	@ (100002c8 <frame_dummy+0x18>)
100002b2:	b510      	push	{r4, lr}
100002b4:	2b00      	cmp	r3, #0
100002b6:	d003      	beq.n	100002c0 <frame_dummy+0x10>
100002b8:	4904      	ldr	r1, [pc, #16]	@ (100002cc <frame_dummy+0x1c>)
100002ba:	4805      	ldr	r0, [pc, #20]	@ (100002d0 <frame_dummy+0x20>)
100002bc:	e000      	b.n	100002c0 <frame_dummy+0x10>
100002be:	bf00      	nop
100002c0:	f7ff ffe2 	bl	10000288 <register_tm_clones>
100002c4:	bd10      	pop	{r4, pc}
100002c6:	46c0      	nop			@ (mov r8, r8)
100002c8:	00000000 	.word	0x00000000
100002cc:	20000e6c 	.word	0x20000e6c
100002d0:	1000a5d0 	.word	0x1000a5d0

100002d4 <process_uart_packets.part.0>:
100002d4:	b5f0      	push	{r4, r5, r6, r7, lr}
100002d6:	b08f      	sub	sp, #60	@ 0x3c
100002d8:	a805      	add	r0, sp, #20
100002da:	f000 fdf7 	bl	10000ecc <uart_protocol_receive_packet>
100002de:	2800      	cmp	r0, #0
100002e0:	d00a      	beq.n	100002f8 <process_uart_packets.part.0+0x24>
100002e2:	466b      	mov	r3, sp
100002e4:	7d59      	ldrb	r1, [r3, #21]
100002e6:	2906      	cmp	r1, #6
100002e8:	d803      	bhi.n	100002f2 <process_uart_packets.part.0+0x1e>
100002ea:	4a4f      	ldr	r2, [pc, #316]	@ (10000428 <process_uart_packets.part.0+0x154>)
100002ec:	008b      	lsls	r3, r1, #2
100002ee:	58d3      	ldr	r3, [r2, r3]
100002f0:	469f      	mov	pc, r3
100002f2:	484e      	ldr	r0, [pc, #312]	@ (1000042c <process_uart_packets.part.0+0x158>)
100002f4:	f004 fdee 	bl	10004ed4 <__wrap_printf>
100002f8:	b00f      	add	sp, #60	@ 0x3c
100002fa:	bdf0      	pop	{r4, r5, r6, r7, pc}
100002fc:	484c      	ldr	r0, [pc, #304]	@ (10000430 <process_uart_packets.part.0+0x15c>)
100002fe:	f004 fd61 	bl	10004dc4 <__wrap_puts>
10000302:	2006      	movs	r0, #6
10000304:	f000 fd2a 	bl	10000d5c <uart_protocol_send_ack>
10000308:	e7f6      	b.n	100002f8 <process_uart_packets.part.0+0x24>
1000030a:	466b      	mov	r3, sp
1000030c:	7d9b      	ldrb	r3, [r3, #22]
1000030e:	2b01      	cmp	r3, #1
10000310:	d9f2      	bls.n	100002f8 <process_uart_packets.part.0+0x24>
10000312:	466b      	mov	r3, sp
10000314:	4847      	ldr	r0, [pc, #284]	@ (10000434 <process_uart_packets.part.0+0x160>)
10000316:	7e1a      	ldrb	r2, [r3, #24]
10000318:	7dd9      	ldrb	r1, [r3, #23]
1000031a:	f004 fddb 	bl	10004ed4 <__wrap_printf>
1000031e:	e7eb      	b.n	100002f8 <process_uart_packets.part.0+0x24>
10000320:	466b      	mov	r3, sp
10000322:	7d9b      	ldrb	r3, [r3, #22]
10000324:	2b00      	cmp	r3, #0
10000326:	d0e7      	beq.n	100002f8 <process_uart_packets.part.0+0x24>
10000328:	466b      	mov	r3, sp
1000032a:	4843      	ldr	r0, [pc, #268]	@ (10000438 <process_uart_packets.part.0+0x164>)
1000032c:	7dd9      	ldrb	r1, [r3, #23]
1000032e:	f004 fdd1 	bl	10004ed4 <__wrap_printf>
10000332:	e7e1      	b.n	100002f8 <process_uart_packets.part.0+0x24>
10000334:	466b      	mov	r3, sp
10000336:	7d9b      	ldrb	r3, [r3, #22]
10000338:	2b08      	cmp	r3, #8
1000033a:	d9dd      	bls.n	100002f8 <process_uart_packets.part.0+0x24>
1000033c:	466b      	mov	r3, sp
1000033e:	7dd9      	ldrb	r1, [r3, #23]
10000340:	9c06      	ldr	r4, [sp, #24]
10000342:	9d07      	ldr	r5, [sp, #28]
10000344:	2906      	cmp	r1, #6
10000346:	d865      	bhi.n	10000414 <process_uart_packets.part.0+0x140>
10000348:	4a3c      	ldr	r2, [pc, #240]	@ (1000043c <process_uart_packets.part.0+0x168>)
1000034a:	008b      	lsls	r3, r1, #2
1000034c:	58d3      	ldr	r3, [r2, r3]
1000034e:	469f      	mov	pc, r3
10000350:	466b      	mov	r3, sp
10000352:	7ddb      	ldrb	r3, [r3, #23]
10000354:	2b01      	cmp	r3, #1
10000356:	d1cf      	bne.n	100002f8 <process_uart_packets.part.0+0x24>
10000358:	ac02      	add	r4, sp, #8
1000035a:	0021      	movs	r1, r4
1000035c:	a805      	add	r0, sp, #20
1000035e:	f000 fed7 	bl	10001110 <uart_protocol_parse_light_data>
10000362:	2800      	cmp	r0, #0
10000364:	d0c8      	beq.n	100002f8 <process_uart_packets.part.0+0x24>
10000366:	4b36      	ldr	r3, [pc, #216]	@ (10000440 <process_uart_packets.part.0+0x16c>)
10000368:	cc23      	ldmia	r4!, {r0, r1, r5}
1000036a:	c323      	stmia	r3!, {r0, r1, r5}
1000036c:	f001 fbb4 	bl	10001ad8 <time_us_64>
10000370:	2900      	cmp	r1, #0
10000372:	d053      	beq.n	1000041c <process_uart_packets.part.0+0x148>
10000374:	22fa      	movs	r2, #250	@ 0xfa
10000376:	2300      	movs	r3, #0
10000378:	0092      	lsls	r2, r2, #2
1000037a:	f001 ff9d 	bl	100022b8 <__wrap___aeabi_uldivmod>
1000037e:	4b31      	ldr	r3, [pc, #196]	@ (10000444 <process_uart_packets.part.0+0x170>)
10000380:	6018      	str	r0, [r3, #0]
10000382:	2001      	movs	r0, #1
10000384:	f000 fcea 	bl	10000d5c <uart_protocol_send_ack>
10000388:	e7b6      	b.n	100002f8 <process_uart_packets.part.0+0x24>
1000038a:	1c28      	adds	r0, r5, #0
1000038c:	f002 fe61 	bl	10003052 <__wrap___aeabi_f2iz>
10000390:	0005      	movs	r5, r0
10000392:	1c20      	adds	r0, r4, #0
10000394:	f002 fe5d 	bl	10003052 <__wrap___aeabi_f2iz>
10000398:	4b2b      	ldr	r3, [pc, #172]	@ (10000448 <process_uart_packets.part.0+0x174>)
1000039a:	0001      	movs	r1, r0
1000039c:	002a      	movs	r2, r5
1000039e:	0018      	movs	r0, r3
100003a0:	f004 fd98 	bl	10004ed4 <__wrap_printf>
100003a4:	2003      	movs	r0, #3
100003a6:	f000 fcd9 	bl	10000d5c <uart_protocol_send_ack>
100003aa:	e7a5      	b.n	100002f8 <process_uart_packets.part.0+0x24>
100003ac:	1c28      	adds	r0, r5, #0
100003ae:	f002 fe50 	bl	10003052 <__wrap___aeabi_f2iz>
100003b2:	0005      	movs	r5, r0
100003b4:	1c20      	adds	r0, r4, #0
100003b6:	f002 fe4c 	bl	10003052 <__wrap___aeabi_f2iz>
100003ba:	4b24      	ldr	r3, [pc, #144]	@ (1000044c <process_uart_packets.part.0+0x178>)
100003bc:	0001      	movs	r1, r0
100003be:	002a      	movs	r2, r5
100003c0:	0018      	movs	r0, r3
100003c2:	f004 fd87 	bl	10004ed4 <__wrap_printf>
100003c6:	e7ed      	b.n	100003a4 <process_uart_packets.part.0+0xd0>
100003c8:	1c20      	adds	r0, r4, #0
100003ca:	f002 fe79 	bl	100030c0 <__wrap___aeabi_f2d>
100003ce:	0006      	movs	r6, r0
100003d0:	000f      	movs	r7, r1
100003d2:	4c1f      	ldr	r4, [pc, #124]	@ (10000450 <process_uart_packets.part.0+0x17c>)
100003d4:	1c28      	adds	r0, r5, #0
100003d6:	f002 fe73 	bl	100030c0 <__wrap___aeabi_f2d>
100003da:	0032      	movs	r2, r6
100003dc:	9000      	str	r0, [sp, #0]
100003de:	9101      	str	r1, [sp, #4]
100003e0:	003b      	movs	r3, r7
100003e2:	0020      	movs	r0, r4
100003e4:	f004 fd76 	bl	10004ed4 <__wrap_printf>
100003e8:	e7dc      	b.n	100003a4 <process_uart_packets.part.0+0xd0>
100003ea:	1c20      	adds	r0, r4, #0
100003ec:	f002 fe68 	bl	100030c0 <__wrap___aeabi_f2d>
100003f0:	4c18      	ldr	r4, [pc, #96]	@ (10000454 <process_uart_packets.part.0+0x180>)
100003f2:	0006      	movs	r6, r0
100003f4:	000f      	movs	r7, r1
100003f6:	e7ed      	b.n	100003d4 <process_uart_packets.part.0+0x100>
100003f8:	1c20      	adds	r0, r4, #0
100003fa:	f002 fe61 	bl	100030c0 <__wrap___aeabi_f2d>
100003fe:	4c16      	ldr	r4, [pc, #88]	@ (10000458 <process_uart_packets.part.0+0x184>)
10000400:	0006      	movs	r6, r0
10000402:	000f      	movs	r7, r1
10000404:	e7e6      	b.n	100003d4 <process_uart_packets.part.0+0x100>
10000406:	1c20      	adds	r0, r4, #0
10000408:	f002 fe5a 	bl	100030c0 <__wrap___aeabi_f2d>
1000040c:	4c13      	ldr	r4, [pc, #76]	@ (1000045c <process_uart_packets.part.0+0x188>)
1000040e:	0006      	movs	r6, r0
10000410:	000f      	movs	r7, r1
10000412:	e7df      	b.n	100003d4 <process_uart_packets.part.0+0x100>
10000414:	4812      	ldr	r0, [pc, #72]	@ (10000460 <process_uart_packets.part.0+0x18c>)
10000416:	f004 fd5d 	bl	10004ed4 <__wrap_printf>
1000041a:	e7c3      	b.n	100003a4 <process_uart_packets.part.0+0xd0>
1000041c:	21fa      	movs	r1, #250	@ 0xfa
1000041e:	0089      	lsls	r1, r1, #2
10000420:	f001 ff0c 	bl	1000223c <__wrap___aeabi_uidiv>
10000424:	e7ab      	b.n	1000037e <process_uart_packets.part.0+0xaa>
10000426:	46c0      	nop			@ (mov r8, r8)
10000428:	1000a7b8 	.word	0x1000a7b8
1000042c:	1000a794 	.word	0x1000a794
10000430:	1000a778 	.word	0x1000a778
10000434:	1000a740 	.word	0x1000a740
10000438:	1000a71c 	.word	0x1000a71c
1000043c:	1000a7d4 	.word	0x1000a7d4
10000440:	20000e58 	.word	0x20000e58
10000444:	20000e64 	.word	0x20000e64
10000448:	1000a6dc 	.word	0x1000a6dc
1000044c:	1000a6b8 	.word	0x1000a6b8
10000450:	1000a648 	.word	0x1000a648
10000454:	1000a680 	.word	0x1000a680
10000458:	1000a5d0 	.word	0x1000a5d0
1000045c:	1000a60c 	.word	0x1000a60c
10000460:	1000a700 	.word	0x1000a700

10000464 <setup_hardware>:
10000464:	b510      	push	{r4, lr}
10000466:	f004 fc13 	bl	10004c90 <stdio_init_all>
1000046a:	20fa      	movs	r0, #250	@ 0xfa
1000046c:	00c0      	lsls	r0, r0, #3
1000046e:	f001 fa89 	bl	10001984 <sleep_ms>
10000472:	2019      	movs	r0, #25
10000474:	f000 fe8a 	bl	1000118c <gpio_init>
10000478:	23d0      	movs	r3, #208	@ 0xd0
1000047a:	2280      	movs	r2, #128	@ 0x80
1000047c:	061b      	lsls	r3, r3, #24
1000047e:	0492      	lsls	r2, r2, #18
10000480:	625a      	str	r2, [r3, #36]	@ 0x24
10000482:	bd10      	pop	{r4, pc}

10000484 <parse_console_command>:
10000484:	b510      	push	{r4, lr}
10000486:	7803      	ldrb	r3, [r0, #0]
10000488:	0004      	movs	r4, r0
1000048a:	b08c      	sub	sp, #48	@ 0x30
1000048c:	2b00      	cmp	r3, #0
1000048e:	d00a      	beq.n	100004a6 <parse_console_command+0x22>
10000490:	0002      	movs	r2, r0
10000492:	0019      	movs	r1, r3
10000494:	3941      	subs	r1, #65	@ 0x41
10000496:	2919      	cmp	r1, #25
10000498:	d820      	bhi.n	100004dc <parse_console_command+0x58>
1000049a:	3320      	adds	r3, #32
1000049c:	7013      	strb	r3, [r2, #0]
1000049e:	7853      	ldrb	r3, [r2, #1]
100004a0:	3201      	adds	r2, #1
100004a2:	2b00      	cmp	r3, #0
100004a4:	d1f5      	bne.n	10000492 <parse_console_command+0xe>
100004a6:	0020      	movs	r0, r4
100004a8:	4959      	ldr	r1, [pc, #356]	@ (10000610 <parse_console_command+0x18c>)
100004aa:	f006 fd25 	bl	10006ef8 <strcmp>
100004ae:	2800      	cmp	r0, #0
100004b0:	d01e      	beq.n	100004f0 <parse_console_command+0x6c>
100004b2:	0020      	movs	r0, r4
100004b4:	4957      	ldr	r1, [pc, #348]	@ (10000614 <parse_console_command+0x190>)
100004b6:	f006 fd1f 	bl	10006ef8 <strcmp>
100004ba:	2800      	cmp	r0, #0
100004bc:	d034      	beq.n	10000528 <parse_console_command+0xa4>
100004be:	0020      	movs	r0, r4
100004c0:	4955      	ldr	r1, [pc, #340]	@ (10000618 <parse_console_command+0x194>)
100004c2:	f006 fd19 	bl	10006ef8 <strcmp>
100004c6:	2800      	cmp	r0, #0
100004c8:	d02c      	beq.n	10000524 <parse_console_command+0xa0>
100004ca:	2204      	movs	r2, #4
100004cc:	0020      	movs	r0, r4
100004ce:	4953      	ldr	r1, [pc, #332]	@ (1000061c <parse_console_command+0x198>)
100004d0:	f004 fd0c 	bl	10004eec <strncmp>
100004d4:	2800      	cmp	r0, #0
100004d6:	d00e      	beq.n	100004f6 <parse_console_command+0x72>
100004d8:	2000      	movs	r0, #0
100004da:	e00a      	b.n	100004f2 <parse_console_command+0x6e>
100004dc:	7853      	ldrb	r3, [r2, #1]
100004de:	3201      	adds	r2, #1
100004e0:	2b00      	cmp	r3, #0
100004e2:	d1d6      	bne.n	10000492 <parse_console_command+0xe>
100004e4:	0020      	movs	r0, r4
100004e6:	494a      	ldr	r1, [pc, #296]	@ (10000610 <parse_console_command+0x18c>)
100004e8:	f006 fd06 	bl	10006ef8 <strcmp>
100004ec:	2800      	cmp	r0, #0
100004ee:	d1e0      	bne.n	100004b2 <parse_console_command+0x2e>
100004f0:	2001      	movs	r0, #1
100004f2:	b00c      	add	sp, #48	@ 0x30
100004f4:	bd10      	pop	{r4, pc}
100004f6:	ab03      	add	r3, sp, #12
100004f8:	9300      	str	r3, [sp, #0]
100004fa:	4949      	ldr	r1, [pc, #292]	@ (10000620 <parse_console_command+0x19c>)
100004fc:	1d20      	adds	r0, r4, #4
100004fe:	ab08      	add	r3, sp, #32
10000500:	aa04      	add	r2, sp, #16
10000502:	f004 fd27 	bl	10004f54 <sscanf>
10000506:	2803      	cmp	r0, #3
10000508:	d1e6      	bne.n	100004d8 <parse_console_command+0x54>
1000050a:	4b46      	ldr	r3, [pc, #280]	@ (10000624 <parse_console_command+0x1a0>)
1000050c:	9a04      	ldr	r2, [sp, #16]
1000050e:	429a      	cmp	r2, r3
10000510:	d022      	beq.n	10000558 <parse_console_command+0xd4>
10000512:	4a45      	ldr	r2, [pc, #276]	@ (10000628 <parse_console_command+0x1a4>)
10000514:	9b04      	ldr	r3, [sp, #16]
10000516:	4293      	cmp	r3, r2
10000518:	d036      	beq.n	10000588 <parse_console_command+0x104>
1000051a:	4a44      	ldr	r2, [pc, #272]	@ (1000062c <parse_console_command+0x1a8>)
1000051c:	4293      	cmp	r3, r2
1000051e:	d005      	beq.n	1000052c <parse_console_command+0xa8>
10000520:	2004      	movs	r0, #4
10000522:	e7e6      	b.n	100004f2 <parse_console_command+0x6e>
10000524:	2003      	movs	r0, #3
10000526:	e7e4      	b.n	100004f2 <parse_console_command+0x6e>
10000528:	2006      	movs	r0, #6
1000052a:	e7e2      	b.n	100004f2 <parse_console_command+0x6e>
1000052c:	466b      	mov	r3, sp
1000052e:	7d1b      	ldrb	r3, [r3, #20]
10000530:	2b00      	cmp	r3, #0
10000532:	d1f5      	bne.n	10000520 <parse_console_command+0x9c>
10000534:	9803      	ldr	r0, [sp, #12]
10000536:	f002 fd8c 	bl	10003052 <__wrap___aeabi_f2iz>
1000053a:	4a3d      	ldr	r2, [pc, #244]	@ (10000630 <parse_console_command+0x1ac>)
1000053c:	9b08      	ldr	r3, [sp, #32]
1000053e:	0001      	movs	r1, r0
10000540:	4293      	cmp	r3, r2
10000542:	d05d      	beq.n	10000600 <parse_console_command+0x17c>
10000544:	4a3b      	ldr	r2, [pc, #236]	@ (10000634 <parse_console_command+0x1b0>)
10000546:	4293      	cmp	r3, r2
10000548:	d1ea      	bne.n	10000520 <parse_console_command+0x9c>
1000054a:	4b3b      	ldr	r3, [pc, #236]	@ (10000638 <parse_console_command+0x1b4>)
1000054c:	8018      	strh	r0, [r3, #0]
1000054e:	483b      	ldr	r0, [pc, #236]	@ (1000063c <parse_console_command+0x1b8>)
10000550:	f004 fcc0 	bl	10004ed4 <__wrap_printf>
10000554:	2004      	movs	r0, #4
10000556:	e7cc      	b.n	100004f2 <parse_console_command+0x6e>
10000558:	466b      	mov	r3, sp
1000055a:	8a9b      	ldrh	r3, [r3, #20]
1000055c:	2b74      	cmp	r3, #116	@ 0x74
1000055e:	d1d8      	bne.n	10000512 <parse_console_command+0x8e>
10000560:	4b37      	ldr	r3, [pc, #220]	@ (10000640 <parse_console_command+0x1bc>)
10000562:	9a08      	ldr	r2, [sp, #32]
10000564:	429a      	cmp	r2, r3
10000566:	d027      	beq.n	100005b8 <parse_console_command+0x134>
10000568:	4b36      	ldr	r3, [pc, #216]	@ (10000644 <parse_console_command+0x1c0>)
1000056a:	9a08      	ldr	r2, [sp, #32]
1000056c:	429a      	cmp	r2, r3
1000056e:	d1d7      	bne.n	10000520 <parse_console_command+0x9c>
10000570:	4b35      	ldr	r3, [pc, #212]	@ (10000648 <parse_console_command+0x1c4>)
10000572:	9803      	ldr	r0, [sp, #12]
10000574:	6018      	str	r0, [r3, #0]
10000576:	f002 fda3 	bl	100030c0 <__wrap___aeabi_f2d>
1000057a:	0002      	movs	r2, r0
1000057c:	000b      	movs	r3, r1
1000057e:	4833      	ldr	r0, [pc, #204]	@ (1000064c <parse_console_command+0x1c8>)
10000580:	f004 fca8 	bl	10004ed4 <__wrap_printf>
10000584:	2004      	movs	r0, #4
10000586:	e7b4      	b.n	100004f2 <parse_console_command+0x6e>
10000588:	466a      	mov	r2, sp
1000058a:	7d12      	ldrb	r2, [r2, #20]
1000058c:	2a00      	cmp	r2, #0
1000058e:	d1c4      	bne.n	1000051a <parse_console_command+0x96>
10000590:	4b2b      	ldr	r3, [pc, #172]	@ (10000640 <parse_console_command+0x1bc>)
10000592:	9a08      	ldr	r2, [sp, #32]
10000594:	429a      	cmp	r2, r3
10000596:	d021      	beq.n	100005dc <parse_console_command+0x158>
10000598:	4b2a      	ldr	r3, [pc, #168]	@ (10000644 <parse_console_command+0x1c0>)
1000059a:	9a08      	ldr	r2, [sp, #32]
1000059c:	429a      	cmp	r2, r3
1000059e:	d1bf      	bne.n	10000520 <parse_console_command+0x9c>
100005a0:	4b2b      	ldr	r3, [pc, #172]	@ (10000650 <parse_console_command+0x1cc>)
100005a2:	9803      	ldr	r0, [sp, #12]
100005a4:	6018      	str	r0, [r3, #0]
100005a6:	f002 fd8b 	bl	100030c0 <__wrap___aeabi_f2d>
100005aa:	0002      	movs	r2, r0
100005ac:	000b      	movs	r3, r1
100005ae:	4829      	ldr	r0, [pc, #164]	@ (10000654 <parse_console_command+0x1d0>)
100005b0:	f004 fc90 	bl	10004ed4 <__wrap_printf>
100005b4:	2004      	movs	r0, #4
100005b6:	e79c      	b.n	100004f2 <parse_console_command+0x6e>
100005b8:	466b      	mov	r3, sp
100005ba:	2224      	movs	r2, #36	@ 0x24
100005bc:	189b      	adds	r3, r3, r2
100005be:	781b      	ldrb	r3, [r3, #0]
100005c0:	2b00      	cmp	r3, #0
100005c2:	d1d1      	bne.n	10000568 <parse_console_command+0xe4>
100005c4:	4b24      	ldr	r3, [pc, #144]	@ (10000658 <parse_console_command+0x1d4>)
100005c6:	9803      	ldr	r0, [sp, #12]
100005c8:	6018      	str	r0, [r3, #0]
100005ca:	f002 fd79 	bl	100030c0 <__wrap___aeabi_f2d>
100005ce:	0002      	movs	r2, r0
100005d0:	000b      	movs	r3, r1
100005d2:	4822      	ldr	r0, [pc, #136]	@ (1000065c <parse_console_command+0x1d8>)
100005d4:	f004 fc7e 	bl	10004ed4 <__wrap_printf>
100005d8:	2004      	movs	r0, #4
100005da:	e78a      	b.n	100004f2 <parse_console_command+0x6e>
100005dc:	466b      	mov	r3, sp
100005de:	2224      	movs	r2, #36	@ 0x24
100005e0:	189b      	adds	r3, r3, r2
100005e2:	781b      	ldrb	r3, [r3, #0]
100005e4:	2b00      	cmp	r3, #0
100005e6:	d1d7      	bne.n	10000598 <parse_console_command+0x114>
100005e8:	4b1d      	ldr	r3, [pc, #116]	@ (10000660 <parse_console_command+0x1dc>)
100005ea:	9803      	ldr	r0, [sp, #12]
100005ec:	6018      	str	r0, [r3, #0]
100005ee:	f002 fd67 	bl	100030c0 <__wrap___aeabi_f2d>
100005f2:	0002      	movs	r2, r0
100005f4:	000b      	movs	r3, r1
100005f6:	481b      	ldr	r0, [pc, #108]	@ (10000664 <parse_console_command+0x1e0>)
100005f8:	f004 fc6c 	bl	10004ed4 <__wrap_printf>
100005fc:	2004      	movs	r0, #4
100005fe:	e778      	b.n	100004f2 <parse_console_command+0x6e>
10000600:	4b19      	ldr	r3, [pc, #100]	@ (10000668 <parse_console_command+0x1e4>)
10000602:	8018      	strh	r0, [r3, #0]
10000604:	4819      	ldr	r0, [pc, #100]	@ (1000066c <parse_console_command+0x1e8>)
10000606:	f004 fc65 	bl	10004ed4 <__wrap_printf>
1000060a:	2004      	movs	r0, #4
1000060c:	e771      	b.n	100004f2 <parse_console_command+0x6e>
1000060e:	46c0      	nop			@ (mov r8, r8)
10000610:	1000aa58 	.word	0x1000aa58
10000614:	1000aa60 	.word	0x1000aa60
10000618:	1000aa68 	.word	0x1000aa68
1000061c:	1000aa70 	.word	0x1000aa70
10000620:	1000aa78 	.word	0x1000aa78
10000624:	6867696c 	.word	0x6867696c
10000628:	706d6574 	.word	0x706d6574
1000062c:	6c696f73 	.word	0x6c696f73
10000630:	00797264 	.word	0x00797264
10000634:	00746577 	.word	0x00746577
10000638:	20000198 	.word	0x20000198
1000063c:	1000ab78 	.word	0x1000ab78
10000640:	68676968 	.word	0x68676968
10000644:	00776f6c 	.word	0x00776f6c
10000648:	200001a4 	.word	0x200001a4
1000064c:	1000aac0 	.word	0x1000aac0
10000650:	2000019c 	.word	0x2000019c
10000654:	1000ab1c 	.word	0x1000ab1c
10000658:	200001a8 	.word	0x200001a8
1000065c:	1000aa94 	.word	0x1000aa94
10000660:	200001a0 	.word	0x200001a0
10000664:	1000aaf0 	.word	0x1000aaf0
10000668:	2000019a 	.word	0x2000019a
1000066c:	1000ab54 	.word	0x1000ab54

10000670 <print_sensor_data>:
10000670:	b5d0      	push	{r4, r6, r7, lr}
10000672:	b082      	sub	sp, #8
10000674:	f001 fa30 	bl	10001ad8 <time_us_64>
10000678:	2900      	cmp	r1, #0
1000067a:	d065      	beq.n	10000748 <print_sensor_data+0xd8>
1000067c:	22fa      	movs	r2, #250	@ 0xfa
1000067e:	2300      	movs	r3, #0
10000680:	0092      	lsls	r2, r2, #2
10000682:	f001 fe19 	bl	100022b8 <__wrap___aeabi_uldivmod>
10000686:	0004      	movs	r4, r0
10000688:	4838      	ldr	r0, [pc, #224]	@ (1000076c <print_sensor_data+0xfc>)
1000068a:	f004 fb9b 	bl	10004dc4 <__wrap_puts>
1000068e:	4b38      	ldr	r3, [pc, #224]	@ (10000770 <print_sensor_data+0x100>)
10000690:	4a38      	ldr	r2, [pc, #224]	@ (10000774 <print_sensor_data+0x104>)
10000692:	681b      	ldr	r3, [r3, #0]
10000694:	1ae3      	subs	r3, r4, r3
10000696:	4293      	cmp	r3, r2
10000698:	d863      	bhi.n	10000762 <print_sensor_data+0xf2>
1000069a:	4837      	ldr	r0, [pc, #220]	@ (10000778 <print_sensor_data+0x108>)
1000069c:	f004 fb92 	bl	10004dc4 <__wrap_puts>
100006a0:	4e36      	ldr	r6, [pc, #216]	@ (1000077c <print_sensor_data+0x10c>)
100006a2:	4837      	ldr	r0, [pc, #220]	@ (10000780 <print_sensor_data+0x110>)
100006a4:	8871      	ldrh	r1, [r6, #2]
100006a6:	f004 fc15 	bl	10004ed4 <__wrap_printf>
100006aa:	88b1      	ldrh	r1, [r6, #4]
100006ac:	4835      	ldr	r0, [pc, #212]	@ (10000784 <print_sensor_data+0x114>)
100006ae:	f004 fc11 	bl	10004ed4 <__wrap_printf>
100006b2:	88f1      	ldrh	r1, [r6, #6]
100006b4:	4834      	ldr	r0, [pc, #208]	@ (10000788 <print_sensor_data+0x118>)
100006b6:	f004 fc0d 	bl	10004ed4 <__wrap_printf>
100006ba:	68b0      	ldr	r0, [r6, #8]
100006bc:	f002 fd00 	bl	100030c0 <__wrap___aeabi_f2d>
100006c0:	0002      	movs	r2, r0
100006c2:	000b      	movs	r3, r1
100006c4:	4831      	ldr	r0, [pc, #196]	@ (1000078c <print_sensor_data+0x11c>)
100006c6:	f004 fc05 	bl	10004ed4 <__wrap_printf>
100006ca:	4b2a      	ldr	r3, [pc, #168]	@ (10000774 <print_sensor_data+0x104>)
100006cc:	429c      	cmp	r4, r3
100006ce:	d841      	bhi.n	10000754 <print_sensor_data+0xe4>
100006d0:	2200      	movs	r2, #0
100006d2:	2300      	movs	r3, #0
100006d4:	482e      	ldr	r0, [pc, #184]	@ (10000790 <print_sensor_data+0x120>)
100006d6:	f004 fbfd 	bl	10004ed4 <__wrap_printf>
100006da:	2100      	movs	r1, #0
100006dc:	482d      	ldr	r0, [pc, #180]	@ (10000794 <print_sensor_data+0x124>)
100006de:	f004 fbf9 	bl	10004ed4 <__wrap_printf>
100006e2:	482d      	ldr	r0, [pc, #180]	@ (10000798 <print_sensor_data+0x128>)
100006e4:	f004 fb6e 	bl	10004dc4 <__wrap_puts>
100006e8:	4b2c      	ldr	r3, [pc, #176]	@ (1000079c <print_sensor_data+0x12c>)
100006ea:	6818      	ldr	r0, [r3, #0]
100006ec:	f002 fce8 	bl	100030c0 <__wrap___aeabi_f2d>
100006f0:	4b2b      	ldr	r3, [pc, #172]	@ (100007a0 <print_sensor_data+0x130>)
100006f2:	0006      	movs	r6, r0
100006f4:	6818      	ldr	r0, [r3, #0]
100006f6:	000f      	movs	r7, r1
100006f8:	f002 fce2 	bl	100030c0 <__wrap___aeabi_f2d>
100006fc:	4c29      	ldr	r4, [pc, #164]	@ (100007a4 <print_sensor_data+0x134>)
100006fe:	0032      	movs	r2, r6
10000700:	9000      	str	r0, [sp, #0]
10000702:	9101      	str	r1, [sp, #4]
10000704:	003b      	movs	r3, r7
10000706:	0020      	movs	r0, r4
10000708:	f004 fbe4 	bl	10004ed4 <__wrap_printf>
1000070c:	4b26      	ldr	r3, [pc, #152]	@ (100007a8 <print_sensor_data+0x138>)
1000070e:	6818      	ldr	r0, [r3, #0]
10000710:	f002 fcd6 	bl	100030c0 <__wrap___aeabi_f2d>
10000714:	4b25      	ldr	r3, [pc, #148]	@ (100007ac <print_sensor_data+0x13c>)
10000716:	0006      	movs	r6, r0
10000718:	6818      	ldr	r0, [r3, #0]
1000071a:	000f      	movs	r7, r1
1000071c:	f002 fcd0 	bl	100030c0 <__wrap___aeabi_f2d>
10000720:	4c23      	ldr	r4, [pc, #140]	@ (100007b0 <print_sensor_data+0x140>)
10000722:	9000      	str	r0, [sp, #0]
10000724:	9101      	str	r1, [sp, #4]
10000726:	0032      	movs	r2, r6
10000728:	003b      	movs	r3, r7
1000072a:	0020      	movs	r0, r4
1000072c:	f004 fbd2 	bl	10004ed4 <__wrap_printf>
10000730:	4b20      	ldr	r3, [pc, #128]	@ (100007b4 <print_sensor_data+0x144>)
10000732:	4821      	ldr	r0, [pc, #132]	@ (100007b8 <print_sensor_data+0x148>)
10000734:	881a      	ldrh	r2, [r3, #0]
10000736:	4b21      	ldr	r3, [pc, #132]	@ (100007bc <print_sensor_data+0x14c>)
10000738:	8819      	ldrh	r1, [r3, #0]
1000073a:	f004 fbcb 	bl	10004ed4 <__wrap_printf>
1000073e:	4820      	ldr	r0, [pc, #128]	@ (100007c0 <print_sensor_data+0x150>)
10000740:	f004 fb40 	bl	10004dc4 <__wrap_puts>
10000744:	b002      	add	sp, #8
10000746:	bdd0      	pop	{r4, r6, r7, pc}
10000748:	21fa      	movs	r1, #250	@ 0xfa
1000074a:	0089      	lsls	r1, r1, #2
1000074c:	f001 fd76 	bl	1000223c <__wrap___aeabi_uidiv>
10000750:	0004      	movs	r4, r0
10000752:	e799      	b.n	10000688 <print_sensor_data+0x18>
10000754:	481b      	ldr	r0, [pc, #108]	@ (100007c4 <print_sensor_data+0x154>)
10000756:	f004 fb35 	bl	10004dc4 <__wrap_puts>
1000075a:	481b      	ldr	r0, [pc, #108]	@ (100007c8 <print_sensor_data+0x158>)
1000075c:	f004 fb32 	bl	10004dc4 <__wrap_puts>
10000760:	e7bf      	b.n	100006e2 <print_sensor_data+0x72>
10000762:	481a      	ldr	r0, [pc, #104]	@ (100007cc <print_sensor_data+0x15c>)
10000764:	f004 fb2e 	bl	10004dc4 <__wrap_puts>
10000768:	e7af      	b.n	100006ca <print_sensor_data+0x5a>
1000076a:	46c0      	nop			@ (mov r8, r8)
1000076c:	1000abd4 	.word	0x1000abd4
10000770:	20000e64 	.word	0x20000e64
10000774:	0000270f 	.word	0x0000270f
10000778:	1000abf8 	.word	0x1000abf8
1000077c:	20000e58 	.word	0x20000e58
10000780:	1000ac08 	.word	0x1000ac08
10000784:	1000ac14 	.word	0x1000ac14
10000788:	1000ac20 	.word	0x1000ac20
1000078c:	1000ac30 	.word	0x1000ac30
10000790:	1000ac60 	.word	0x1000ac60
10000794:	1000ac78 	.word	0x1000ac78
10000798:	1000accc 	.word	0x1000accc
1000079c:	200001a4 	.word	0x200001a4
100007a0:	200001a8 	.word	0x200001a8
100007a4:	1000ace8 	.word	0x1000ace8
100007a8:	2000019c 	.word	0x2000019c
100007ac:	200001a0 	.word	0x200001a0
100007b0:	1000ad04 	.word	0x1000ad04
100007b4:	20000198 	.word	0x20000198
100007b8:	1000ad24 	.word	0x1000ad24
100007bc:	2000019a 	.word	0x2000019a
100007c0:	1000aa3c 	.word	0x1000aa3c
100007c4:	1000ac90 	.word	0x1000ac90
100007c8:	1000acac 	.word	0x1000acac
100007cc:	1000ac40 	.word	0x1000ac40

100007d0 <process_console_command>:
100007d0:	b510      	push	{r4, lr}
100007d2:	2000      	movs	r0, #0
100007d4:	b086      	sub	sp, #24
100007d6:	f004 fa5d 	bl	10004c94 <stdio_getchar_timeout_us>
100007da:	1c83      	adds	r3, r0, #2
100007dc:	d00b      	beq.n	100007f6 <process_console_command+0x26>
100007de:	4c4c      	ldr	r4, [pc, #304]	@ (10000910 <process_console_command+0x140>)
100007e0:	6823      	ldr	r3, [r4, #0]
100007e2:	280d      	cmp	r0, #13
100007e4:	d009      	beq.n	100007fa <process_console_command+0x2a>
100007e6:	280a      	cmp	r0, #10
100007e8:	d007      	beq.n	100007fa <process_console_command+0x2a>
100007ea:	2808      	cmp	r0, #8
100007ec:	d010      	beq.n	10000810 <process_console_command+0x40>
100007ee:	287f      	cmp	r0, #127	@ 0x7f
100007f0:	d00e      	beq.n	10000810 <process_console_command+0x40>
100007f2:	2b7e      	cmp	r3, #126	@ 0x7e
100007f4:	d92d      	bls.n	10000852 <process_console_command+0x82>
100007f6:	b006      	add	sp, #24
100007f8:	bd10      	pop	{r4, pc}
100007fa:	2200      	movs	r2, #0
100007fc:	4845      	ldr	r0, [pc, #276]	@ (10000914 <process_console_command+0x144>)
100007fe:	54c2      	strb	r2, [r0, r3]
10000800:	2b00      	cmp	r3, #0
10000802:	dc0d      	bgt.n	10000820 <process_console_command+0x50>
10000804:	2300      	movs	r3, #0
10000806:	4844      	ldr	r0, [pc, #272]	@ (10000918 <process_console_command+0x148>)
10000808:	6023      	str	r3, [r4, #0]
1000080a:	f004 fb63 	bl	10004ed4 <__wrap_printf>
1000080e:	e7f2      	b.n	100007f6 <process_console_command+0x26>
10000810:	2b00      	cmp	r3, #0
10000812:	ddf0      	ble.n	100007f6 <process_console_command+0x26>
10000814:	3b01      	subs	r3, #1
10000816:	4841      	ldr	r0, [pc, #260]	@ (1000091c <process_console_command+0x14c>)
10000818:	6023      	str	r3, [r4, #0]
1000081a:	f004 fb5b 	bl	10004ed4 <__wrap_printf>
1000081e:	e7ea      	b.n	100007f6 <process_console_command+0x26>
10000820:	f7ff fe30 	bl	10000484 <parse_console_command>
10000824:	2804      	cmp	r0, #4
10000826:	d045      	beq.n	100008b4 <process_console_command+0xe4>
10000828:	dc06      	bgt.n	10000838 <process_console_command+0x68>
1000082a:	2801      	cmp	r0, #1
1000082c:	d01c      	beq.n	10000868 <process_console_command+0x98>
1000082e:	2803      	cmp	r0, #3
10000830:	d13c      	bne.n	100008ac <process_console_command+0xdc>
10000832:	f7ff ff1d 	bl	10000670 <print_sensor_data>
10000836:	e7e5      	b.n	10000804 <process_console_command+0x34>
10000838:	2806      	cmp	r0, #6
1000083a:	d137      	bne.n	100008ac <process_console_command+0xdc>
1000083c:	4838      	ldr	r0, [pc, #224]	@ (10000920 <process_console_command+0x150>)
1000083e:	f004 fac1 	bl	10004dc4 <__wrap_puts>
10000842:	f000 fae9 	bl	10000e18 <uart_protocol_send_ping>
10000846:	2800      	cmp	r0, #0
10000848:	d00a      	beq.n	10000860 <process_console_command+0x90>
1000084a:	4836      	ldr	r0, [pc, #216]	@ (10000924 <process_console_command+0x154>)
1000084c:	f004 faba 	bl	10004dc4 <__wrap_puts>
10000850:	e7d8      	b.n	10000804 <process_console_command+0x34>
10000852:	1c5a      	adds	r2, r3, #1
10000854:	6022      	str	r2, [r4, #0]
10000856:	4a2f      	ldr	r2, [pc, #188]	@ (10000914 <process_console_command+0x144>)
10000858:	54d0      	strb	r0, [r2, r3]
1000085a:	f004 fa67 	bl	10004d2c <__wrap_putchar>
1000085e:	e7ca      	b.n	100007f6 <process_console_command+0x26>
10000860:	4831      	ldr	r0, [pc, #196]	@ (10000928 <process_console_command+0x158>)
10000862:	f004 faaf 	bl	10004dc4 <__wrap_puts>
10000866:	e7cd      	b.n	10000804 <process_console_command+0x34>
10000868:	4830      	ldr	r0, [pc, #192]	@ (1000092c <process_console_command+0x15c>)
1000086a:	f004 faab 	bl	10004dc4 <__wrap_puts>
1000086e:	4830      	ldr	r0, [pc, #192]	@ (10000930 <process_console_command+0x160>)
10000870:	f004 faa8 	bl	10004dc4 <__wrap_puts>
10000874:	482f      	ldr	r0, [pc, #188]	@ (10000934 <process_console_command+0x164>)
10000876:	f004 faa5 	bl	10004dc4 <__wrap_puts>
1000087a:	482f      	ldr	r0, [pc, #188]	@ (10000938 <process_console_command+0x168>)
1000087c:	f004 faa2 	bl	10004dc4 <__wrap_puts>
10000880:	482e      	ldr	r0, [pc, #184]	@ (1000093c <process_console_command+0x16c>)
10000882:	f004 fa9f 	bl	10004dc4 <__wrap_puts>
10000886:	482e      	ldr	r0, [pc, #184]	@ (10000940 <process_console_command+0x170>)
10000888:	f004 fa9c 	bl	10004dc4 <__wrap_puts>
1000088c:	482d      	ldr	r0, [pc, #180]	@ (10000944 <process_console_command+0x174>)
1000088e:	f004 fa99 	bl	10004dc4 <__wrap_puts>
10000892:	482d      	ldr	r0, [pc, #180]	@ (10000948 <process_console_command+0x178>)
10000894:	f004 fa96 	bl	10004dc4 <__wrap_puts>
10000898:	482c      	ldr	r0, [pc, #176]	@ (1000094c <process_console_command+0x17c>)
1000089a:	f004 fa93 	bl	10004dc4 <__wrap_puts>
1000089e:	482c      	ldr	r0, [pc, #176]	@ (10000950 <process_console_command+0x180>)
100008a0:	f004 fa90 	bl	10004dc4 <__wrap_puts>
100008a4:	482b      	ldr	r0, [pc, #172]	@ (10000954 <process_console_command+0x184>)
100008a6:	f004 fa8d 	bl	10004dc4 <__wrap_puts>
100008aa:	e7ab      	b.n	10000804 <process_console_command+0x34>
100008ac:	482a      	ldr	r0, [pc, #168]	@ (10000958 <process_console_command+0x188>)
100008ae:	f004 fa89 	bl	10004dc4 <__wrap_puts>
100008b2:	e7a7      	b.n	10000804 <process_console_command+0x34>
100008b4:	4b29      	ldr	r3, [pc, #164]	@ (1000095c <process_console_command+0x18c>)
100008b6:	492a      	ldr	r1, [pc, #168]	@ (10000960 <process_console_command+0x190>)
100008b8:	681b      	ldr	r3, [r3, #0]
100008ba:	4a2a      	ldr	r2, [pc, #168]	@ (10000964 <process_console_command+0x194>)
100008bc:	9300      	str	r3, [sp, #0]
100008be:	4b2a      	ldr	r3, [pc, #168]	@ (10000968 <process_console_command+0x198>)
100008c0:	8812      	ldrh	r2, [r2, #0]
100008c2:	681b      	ldr	r3, [r3, #0]
100008c4:	4829      	ldr	r0, [pc, #164]	@ (1000096c <process_console_command+0x19c>)
100008c6:	9301      	str	r3, [sp, #4]
100008c8:	4b29      	ldr	r3, [pc, #164]	@ (10000970 <process_console_command+0x1a0>)
100008ca:	681b      	ldr	r3, [r3, #0]
100008cc:	9302      	str	r3, [sp, #8]
100008ce:	4b29      	ldr	r3, [pc, #164]	@ (10000974 <process_console_command+0x1a4>)
100008d0:	681b      	ldr	r3, [r3, #0]
100008d2:	9303      	str	r3, [sp, #12]
100008d4:	880b      	ldrh	r3, [r1, #0]
100008d6:	7809      	ldrb	r1, [r1, #0]
100008d8:	0a1b      	lsrs	r3, r3, #8
100008da:	0209      	lsls	r1, r1, #8
100008dc:	430b      	orrs	r3, r1
100008de:	0a11      	lsrs	r1, r2, #8
100008e0:	0409      	lsls	r1, r1, #16
100008e2:	4003      	ands	r3, r0
100008e4:	430b      	orrs	r3, r1
100008e6:	021b      	lsls	r3, r3, #8
100008e8:	0612      	lsls	r2, r2, #24
100008ea:	0a1b      	lsrs	r3, r3, #8
100008ec:	4313      	orrs	r3, r2
100008ee:	4669      	mov	r1, sp
100008f0:	2214      	movs	r2, #20
100008f2:	2002      	movs	r0, #2
100008f4:	9304      	str	r3, [sp, #16]
100008f6:	f000 f929 	bl	10000b4c <uart_protocol_send_command>
100008fa:	2800      	cmp	r0, #0
100008fc:	d003      	beq.n	10000906 <process_console_command+0x136>
100008fe:	481e      	ldr	r0, [pc, #120]	@ (10000978 <process_console_command+0x1a8>)
10000900:	f004 fa60 	bl	10004dc4 <__wrap_puts>
10000904:	e77e      	b.n	10000804 <process_console_command+0x34>
10000906:	481d      	ldr	r0, [pc, #116]	@ (1000097c <process_console_command+0x1ac>)
10000908:	f004 fa5c 	bl	10004dc4 <__wrap_puts>
1000090c:	e77a      	b.n	10000804 <process_console_command+0x34>
1000090e:	46c0      	nop			@ (mov r8, r8)
10000910:	20000d98 	.word	0x20000d98
10000914:	20000da0 	.word	0x20000da0
10000918:	1000adbc 	.word	0x1000adbc
1000091c:	1000adc0 	.word	0x1000adc0
10000920:	1000ad40 	.word	0x1000ad40
10000924:	1000ad60 	.word	0x1000ad60
10000928:	1000ad6c 	.word	0x1000ad6c
1000092c:	1000a7f0 	.word	0x1000a7f0
10000930:	1000a80c 	.word	0x1000a80c
10000934:	1000a844 	.word	0x1000a844
10000938:	1000a87c 	.word	0x1000a87c
1000093c:	1000a8b8 	.word	0x1000a8b8
10000940:	1000a8f8 	.word	0x1000a8f8
10000944:	1000a934 	.word	0x1000a934
10000948:	1000a978 	.word	0x1000a978
1000094c:	1000a9bc 	.word	0x1000a9bc
10000950:	1000a9fc 	.word	0x1000a9fc
10000954:	1000aa3c 	.word	0x1000aa3c
10000958:	1000ad84 	.word	0x1000ad84
1000095c:	200001a8 	.word	0x200001a8
10000960:	2000019a 	.word	0x2000019a
10000964:	20000198 	.word	0x20000198
10000968:	200001a4 	.word	0x200001a4
1000096c:	ff00ffff 	.word	0xff00ffff
10000970:	200001a0 	.word	0x200001a0
10000974:	2000019c 	.word	0x2000019c
10000978:	1000ab98 	.word	0x1000ab98
1000097c:	1000abb8 	.word	0x1000abb8

10000980 <main>:
10000980:	b5f8      	push	{r3, r4, r5, r6, r7, lr}
10000982:	46de      	mov	lr, fp
10000984:	4647      	mov	r7, r8
10000986:	b580      	push	{r7, lr}
10000988:	f7ff fd6c 	bl	10000464 <setup_hardware>
1000098c:	4851      	ldr	r0, [pc, #324]	@ (10000ad4 <main+0x154>)
1000098e:	f004 fa19 	bl	10004dc4 <__wrap_puts>
10000992:	4851      	ldr	r0, [pc, #324]	@ (10000ad8 <main+0x158>)
10000994:	f004 fa16 	bl	10004dc4 <__wrap_puts>
10000998:	4850      	ldr	r0, [pc, #320]	@ (10000adc <main+0x15c>)
1000099a:	f004 fa13 	bl	10004dc4 <__wrap_puts>
1000099e:	4850      	ldr	r0, [pc, #320]	@ (10000ae0 <main+0x160>)
100009a0:	f004 fa10 	bl	10004dc4 <__wrap_puts>
100009a4:	21e1      	movs	r1, #225	@ 0xe1
100009a6:	2309      	movs	r3, #9
100009a8:	2208      	movs	r2, #8
100009aa:	484e      	ldr	r0, [pc, #312]	@ (10000ae4 <main+0x164>)
100009ac:	0249      	lsls	r1, r1, #9
100009ae:	f000 f8ad 	bl	10000b0c <uart_protocol_init>
100009b2:	2800      	cmp	r0, #0
100009b4:	d100      	bne.n	100009b8 <main+0x38>
100009b6:	e088      	b.n	10000aca <main+0x14a>
100009b8:	484b      	ldr	r0, [pc, #300]	@ (10000ae8 <main+0x168>)
100009ba:	f004 fa03 	bl	10004dc4 <__wrap_puts>
100009be:	484b      	ldr	r0, [pc, #300]	@ (10000aec <main+0x16c>)
100009c0:	f004 fa00 	bl	10004dc4 <__wrap_puts>
100009c4:	f001 f888 	bl	10001ad8 <time_us_64>
100009c8:	4b49      	ldr	r3, [pc, #292]	@ (10000af0 <main+0x170>)
100009ca:	4a4a      	ldr	r2, [pc, #296]	@ (10000af4 <main+0x174>)
100009cc:	4698      	mov	r8, r3
100009ce:	2300      	movs	r3, #0
100009d0:	1880      	adds	r0, r0, r2
100009d2:	4159      	adcs	r1, r3
100009d4:	000b      	movs	r3, r1
100009d6:	2180      	movs	r1, #128	@ 0x80
100009d8:	0002      	movs	r2, r0
100009da:	0609      	lsls	r1, r1, #24
100009dc:	428b      	cmp	r3, r1
100009de:	d302      	bcc.n	100009e6 <main+0x66>
100009e0:	2201      	movs	r2, #1
100009e2:	4b45      	ldr	r3, [pc, #276]	@ (10000af8 <main+0x178>)
100009e4:	4252      	negs	r2, r2
100009e6:	4641      	mov	r1, r8
100009e8:	600a      	str	r2, [r1, #0]
100009ea:	604b      	str	r3, [r1, #4]
100009ec:	f001 f874 	bl	10001ad8 <time_us_64>
100009f0:	2300      	movs	r3, #0
100009f2:	4a42      	ldr	r2, [pc, #264]	@ (10000afc <main+0x17c>)
100009f4:	4f42      	ldr	r7, [pc, #264]	@ (10000b00 <main+0x180>)
100009f6:	1880      	adds	r0, r0, r2
100009f8:	4159      	adcs	r1, r3
100009fa:	000b      	movs	r3, r1
100009fc:	2180      	movs	r1, #128	@ 0x80
100009fe:	0002      	movs	r2, r0
10000a00:	0609      	lsls	r1, r1, #24
10000a02:	428b      	cmp	r3, r1
10000a04:	d302      	bcc.n	10000a0c <main+0x8c>
10000a06:	2201      	movs	r2, #1
10000a08:	4b3b      	ldr	r3, [pc, #236]	@ (10000af8 <main+0x178>)
10000a0a:	4252      	negs	r2, r2
10000a0c:	607b      	str	r3, [r7, #4]
10000a0e:	2380      	movs	r3, #128	@ 0x80
10000a10:	061b      	lsls	r3, r3, #24
10000a12:	469b      	mov	fp, r3
10000a14:	2500      	movs	r5, #0
10000a16:	4e3b      	ldr	r6, [pc, #236]	@ (10000b04 <main+0x184>)
10000a18:	4c36      	ldr	r4, [pc, #216]	@ (10000af4 <main+0x174>)
10000a1a:	603a      	str	r2, [r7, #0]
10000a1c:	e02d      	b.n	10000a7a <main+0xfa>
10000a1e:	f001 f85b 	bl	10001ad8 <time_us_64>
10000a22:	683a      	ldr	r2, [r7, #0]
10000a24:	687b      	ldr	r3, [r7, #4]
10000a26:	1a12      	subs	r2, r2, r0
10000a28:	418b      	sbcs	r3, r1
10000a2a:	2b00      	cmp	r3, #0
10000a2c:	dd34      	ble.n	10000a98 <main+0x118>
10000a2e:	f001 f853 	bl	10001ad8 <time_us_64>
10000a32:	4643      	mov	r3, r8
10000a34:	681a      	ldr	r2, [r3, #0]
10000a36:	685b      	ldr	r3, [r3, #4]
10000a38:	1a12      	subs	r2, r2, r0
10000a3a:	418b      	sbcs	r3, r1
10000a3c:	2b00      	cmp	r3, #0
10000a3e:	dc19      	bgt.n	10000a74 <main+0xf4>
10000a40:	d040      	beq.n	10000ac4 <main+0x144>
10000a42:	7833      	ldrb	r3, [r6, #0]
10000a44:	425a      	negs	r2, r3
10000a46:	415a      	adcs	r2, r3
10000a48:	7032      	strb	r2, [r6, #0]
10000a4a:	2b00      	cmp	r3, #0
10000a4c:	d11e      	bne.n	10000a8c <main+0x10c>
10000a4e:	23d0      	movs	r3, #208	@ 0xd0
10000a50:	2280      	movs	r2, #128	@ 0x80
10000a52:	061b      	lsls	r3, r3, #24
10000a54:	0492      	lsls	r2, r2, #18
10000a56:	615a      	str	r2, [r3, #20]
10000a58:	f001 f83e 	bl	10001ad8 <time_us_64>
10000a5c:	1900      	adds	r0, r0, r4
10000a5e:	4169      	adcs	r1, r5
10000a60:	0002      	movs	r2, r0
10000a62:	000b      	movs	r3, r1
10000a64:	4559      	cmp	r1, fp
10000a66:	d302      	bcc.n	10000a6e <main+0xee>
10000a68:	2201      	movs	r2, #1
10000a6a:	4b23      	ldr	r3, [pc, #140]	@ (10000af8 <main+0x178>)
10000a6c:	4252      	negs	r2, r2
10000a6e:	4641      	mov	r1, r8
10000a70:	600a      	str	r2, [r1, #0]
10000a72:	604b      	str	r3, [r1, #4]
10000a74:	200a      	movs	r0, #10
10000a76:	f000 ff85 	bl	10001984 <sleep_ms>
10000a7a:	f7ff fea9 	bl	100007d0 <process_console_command>
10000a7e:	f000 fa1b 	bl	10000eb8 <uart_protocol_data_available>
10000a82:	2800      	cmp	r0, #0
10000a84:	d0cb      	beq.n	10000a1e <main+0x9e>
10000a86:	f7ff fc25 	bl	100002d4 <process_uart_packets.part.0>
10000a8a:	e7c8      	b.n	10000a1e <main+0x9e>
10000a8c:	23d0      	movs	r3, #208	@ 0xd0
10000a8e:	2280      	movs	r2, #128	@ 0x80
10000a90:	061b      	lsls	r3, r3, #24
10000a92:	0492      	lsls	r2, r2, #18
10000a94:	619a      	str	r2, [r3, #24]
10000a96:	e7df      	b.n	10000a58 <main+0xd8>
10000a98:	2b00      	cmp	r3, #0
10000a9a:	d101      	bne.n	10000aa0 <main+0x120>
10000a9c:	2a00      	cmp	r2, #0
10000a9e:	d1c6      	bne.n	10000a2e <main+0xae>
10000aa0:	f000 f9ba 	bl	10000e18 <uart_protocol_send_ping>
10000aa4:	f001 f818 	bl	10001ad8 <time_us_64>
10000aa8:	2300      	movs	r3, #0
10000aaa:	4a14      	ldr	r2, [pc, #80]	@ (10000afc <main+0x17c>)
10000aac:	1880      	adds	r0, r0, r2
10000aae:	4159      	adcs	r1, r3
10000ab0:	0002      	movs	r2, r0
10000ab2:	000b      	movs	r3, r1
10000ab4:	4559      	cmp	r1, fp
10000ab6:	d302      	bcc.n	10000abe <main+0x13e>
10000ab8:	2201      	movs	r2, #1
10000aba:	4b0f      	ldr	r3, [pc, #60]	@ (10000af8 <main+0x178>)
10000abc:	4252      	negs	r2, r2
10000abe:	603a      	str	r2, [r7, #0]
10000ac0:	607b      	str	r3, [r7, #4]
10000ac2:	e7b4      	b.n	10000a2e <main+0xae>
10000ac4:	2a00      	cmp	r2, #0
10000ac6:	d0bc      	beq.n	10000a42 <main+0xc2>
10000ac8:	e7d4      	b.n	10000a74 <main+0xf4>
10000aca:	480f      	ldr	r0, [pc, #60]	@ (10000b08 <main+0x188>)
10000acc:	f004 f97a 	bl	10004dc4 <__wrap_puts>
10000ad0:	e772      	b.n	100009b8 <main+0x38>
10000ad2:	46c0      	nop			@ (mov r8, r8)
10000ad4:	1000adc4 	.word	0x1000adc4
10000ad8:	1000adf4 	.word	0x1000adf4
10000adc:	1000ae14 	.word	0x1000ae14
10000ae0:	1000ae44 	.word	0x1000ae44
10000ae4:	40038000 	.word	0x40038000
10000ae8:	1000ae8c 	.word	0x1000ae8c
10000aec:	1000aea0 	.word	0x1000aea0
10000af0:	20000a18 	.word	0x20000a18
10000af4:	0007a120 	.word	0x0007a120
10000af8:	7fffffff 	.word	0x7fffffff
10000afc:	004c4b40 	.word	0x004c4b40
10000b00:	20000a20 	.word	0x20000a20
10000b04:	20000ea4 	.word	0x20000ea4
10000b08:	1000ae68 	.word	0x1000ae68

10000b0c <uart_protocol_init>:
10000b0c:	b5f8      	push	{r3, r4, r5, r6, r7, lr}
10000b0e:	0015      	movs	r5, r2
10000b10:	001e      	movs	r6, r3
10000b12:	000c      	movs	r4, r1
10000b14:	4f0b      	ldr	r7, [pc, #44]	@ (10000b44 <uart_protocol_init+0x38>)
10000b16:	6038      	str	r0, [r7, #0]
10000b18:	f001 f82c 	bl	10001b74 <uart_init>
10000b1c:	0028      	movs	r0, r5
10000b1e:	2102      	movs	r1, #2
10000b20:	f000 fb1a 	bl	10001158 <gpio_set_function>
10000b24:	0030      	movs	r0, r6
10000b26:	2102      	movs	r1, #2
10000b28:	f000 fb16 	bl	10001158 <gpio_set_function>
10000b2c:	6838      	ldr	r0, [r7, #0]
10000b2e:	2101      	movs	r1, #1
10000b30:	f001 f8ae 	bl	10001c90 <uart_set_fifo_enabled>
10000b34:	0033      	movs	r3, r6
10000b36:	002a      	movs	r2, r5
10000b38:	0021      	movs	r1, r4
10000b3a:	4803      	ldr	r0, [pc, #12]	@ (10000b48 <uart_protocol_init+0x3c>)
10000b3c:	f004 f9ca 	bl	10004ed4 <__wrap_printf>
10000b40:	2001      	movs	r0, #1
10000b42:	bdf8      	pop	{r3, r4, r5, r6, r7, pc}
10000b44:	20000ea0 	.word	0x20000ea0
10000b48:	1000aec4 	.word	0x1000aec4

10000b4c <uart_protocol_send_command>:
10000b4c:	b5f0      	push	{r4, r5, r6, r7, lr}
10000b4e:	46c6      	mov	lr, r8
10000b50:	23aa      	movs	r3, #170	@ 0xaa
10000b52:	b500      	push	{lr}
10000b54:	b08a      	sub	sp, #40	@ 0x28
10000b56:	ac01      	add	r4, sp, #4
10000b58:	4680      	mov	r8, r0
10000b5a:	0017      	movs	r7, r2
10000b5c:	7023      	strb	r3, [r4, #0]
10000b5e:	7060      	strb	r0, [r4, #1]
10000b60:	70a2      	strb	r2, [r4, #2]
10000b62:	2900      	cmp	r1, #0
10000b64:	d100      	bne.n	10000b68 <uart_protocol_send_command+0x1c>
10000b66:	e0e8      	b.n	10000d3a <uart_protocol_send_command+0x1ee>
10000b68:	2a00      	cmp	r2, #0
10000b6a:	d166      	bne.n	10000c3a <uart_protocol_send_command+0xee>
10000b6c:	2300      	movs	r3, #0
10000b6e:	25aa      	movs	r5, #170	@ 0xaa
10000b70:	469c      	mov	ip, r3
10000b72:	4045      	eors	r5, r0
10000b74:	2323      	movs	r3, #35	@ 0x23
10000b76:	54e5      	strb	r5, [r4, r3]
10000b78:	4b75      	ldr	r3, [pc, #468]	@ (10000d50 <uart_protocol_send_command+0x204>)
10000b7a:	4a76      	ldr	r2, [pc, #472]	@ (10000d54 <uart_protocol_send_command+0x208>)
10000b7c:	681b      	ldr	r3, [r3, #0]
10000b7e:	4976      	ldr	r1, [pc, #472]	@ (10000d58 <uart_protocol_send_command+0x20c>)
10000b80:	189a      	adds	r2, r3, r2
10000b82:	4250      	negs	r0, r2
10000b84:	4142      	adcs	r2, r0
10000b86:	0052      	lsls	r2, r2, #1
10000b88:	5e56      	ldrsh	r6, [r2, r1]
10000b8a:	2eaa      	cmp	r6, #170	@ 0xaa
10000b8c:	d04e      	beq.n	10000c2c <uart_protocol_send_command+0xe0>
10000b8e:	2220      	movs	r2, #32
10000b90:	6999      	ldr	r1, [r3, #24]
10000b92:	420a      	tst	r2, r1
10000b94:	d1fc      	bne.n	10000b90 <uart_protocol_send_command+0x44>
10000b96:	22aa      	movs	r2, #170	@ 0xaa
10000b98:	601a      	str	r2, [r3, #0]
10000b9a:	4546      	cmp	r6, r8
10000b9c:	d03f      	beq.n	10000c1e <uart_protocol_send_command+0xd2>
10000b9e:	2220      	movs	r2, #32
10000ba0:	6999      	ldr	r1, [r3, #24]
10000ba2:	420a      	tst	r2, r1
10000ba4:	d1fc      	bne.n	10000ba0 <uart_protocol_send_command+0x54>
10000ba6:	4642      	mov	r2, r8
10000ba8:	601a      	str	r2, [r3, #0]
10000baa:	4566      	cmp	r6, ip
10000bac:	d030      	beq.n	10000c10 <uart_protocol_send_command+0xc4>
10000bae:	2220      	movs	r2, #32
10000bb0:	6999      	ldr	r1, [r3, #24]
10000bb2:	420a      	tst	r2, r1
10000bb4:	d1fc      	bne.n	10000bb0 <uart_protocol_send_command+0x64>
10000bb6:	4662      	mov	r2, ip
10000bb8:	601f      	str	r7, [r3, #0]
10000bba:	18a7      	adds	r7, r4, r2
10000bbc:	220d      	movs	r2, #13
10000bbe:	4690      	mov	r8, r2
10000bc0:	4662      	mov	r2, ip
10000bc2:	0020      	movs	r0, r4
10000bc4:	2120      	movs	r1, #32
10000bc6:	2a00      	cmp	r2, #0
10000bc8:	d009      	beq.n	10000bde <uart_protocol_send_command+0x92>
10000bca:	78c4      	ldrb	r4, [r0, #3]
10000bcc:	42a6      	cmp	r6, r4
10000bce:	d013      	beq.n	10000bf8 <uart_protocol_send_command+0xac>
10000bd0:	699a      	ldr	r2, [r3, #24]
10000bd2:	4211      	tst	r1, r2
10000bd4:	d1fc      	bne.n	10000bd0 <uart_protocol_send_command+0x84>
10000bd6:	3001      	adds	r0, #1
10000bd8:	601c      	str	r4, [r3, #0]
10000bda:	42b8      	cmp	r0, r7
10000bdc:	d1f5      	bne.n	10000bca <uart_protocol_send_command+0x7e>
10000bde:	2120      	movs	r1, #32
10000be0:	42ae      	cmp	r6, r5
10000be2:	d00f      	beq.n	10000c04 <uart_protocol_send_command+0xb8>
10000be4:	2120      	movs	r1, #32
10000be6:	699a      	ldr	r2, [r3, #24]
10000be8:	4211      	tst	r1, r2
10000bea:	d1fc      	bne.n	10000be6 <uart_protocol_send_command+0x9a>
10000bec:	2001      	movs	r0, #1
10000bee:	601d      	str	r5, [r3, #0]
10000bf0:	b00a      	add	sp, #40	@ 0x28
10000bf2:	bc80      	pop	{r7}
10000bf4:	46b8      	mov	r8, r7
10000bf6:	bdf0      	pop	{r4, r5, r6, r7, pc}
10000bf8:	699a      	ldr	r2, [r3, #24]
10000bfa:	4211      	tst	r1, r2
10000bfc:	d1fc      	bne.n	10000bf8 <uart_protocol_send_command+0xac>
10000bfe:	4642      	mov	r2, r8
10000c00:	601a      	str	r2, [r3, #0]
10000c02:	e7e5      	b.n	10000bd0 <uart_protocol_send_command+0x84>
10000c04:	699a      	ldr	r2, [r3, #24]
10000c06:	4211      	tst	r1, r2
10000c08:	d1fc      	bne.n	10000c04 <uart_protocol_send_command+0xb8>
10000c0a:	220d      	movs	r2, #13
10000c0c:	601a      	str	r2, [r3, #0]
10000c0e:	e7e9      	b.n	10000be4 <uart_protocol_send_command+0x98>
10000c10:	2120      	movs	r1, #32
10000c12:	699a      	ldr	r2, [r3, #24]
10000c14:	4211      	tst	r1, r2
10000c16:	d1fc      	bne.n	10000c12 <uart_protocol_send_command+0xc6>
10000c18:	220d      	movs	r2, #13
10000c1a:	601a      	str	r2, [r3, #0]
10000c1c:	e7c7      	b.n	10000bae <uart_protocol_send_command+0x62>
10000c1e:	2120      	movs	r1, #32
10000c20:	699a      	ldr	r2, [r3, #24]
10000c22:	4211      	tst	r1, r2
10000c24:	d1fc      	bne.n	10000c20 <uart_protocol_send_command+0xd4>
10000c26:	220d      	movs	r2, #13
10000c28:	601a      	str	r2, [r3, #0]
10000c2a:	e7b8      	b.n	10000b9e <uart_protocol_send_command+0x52>
10000c2c:	2120      	movs	r1, #32
10000c2e:	699a      	ldr	r2, [r3, #24]
10000c30:	4211      	tst	r1, r2
10000c32:	d1fc      	bne.n	10000c2e <uart_protocol_send_command+0xe2>
10000c34:	220d      	movs	r2, #13
10000c36:	601a      	str	r2, [r3, #0]
10000c38:	e7a9      	b.n	10000b8e <uart_protocol_send_command+0x42>
10000c3a:	466b      	mov	r3, sp
10000c3c:	4645      	mov	r5, r8
10000c3e:	1dd8      	adds	r0, r3, #7
10000c40:	f002 faea 	bl	10003218 <__wrap___aeabi_memcpy>
10000c44:	23aa      	movs	r3, #170	@ 0xaa
10000c46:	46bc      	mov	ip, r7
10000c48:	407d      	eors	r5, r7
10000c4a:	405d      	eors	r5, r3
10000c4c:	2101      	movs	r1, #1
10000c4e:	2f00      	cmp	r7, #0
10000c50:	dd00      	ble.n	10000c54 <uart_protocol_send_command+0x108>
10000c52:	0039      	movs	r1, r7
10000c54:	2f09      	cmp	r7, #9
10000c56:	dd78      	ble.n	10000d4a <uart_protocol_send_command+0x1fe>
10000c58:	78e3      	ldrb	r3, [r4, #3]
10000c5a:	3901      	subs	r1, #1
10000c5c:	406b      	eors	r3, r5
10000c5e:	9a02      	ldr	r2, [sp, #8]
10000c60:	088d      	lsrs	r5, r1, #2
10000c62:	2d01      	cmp	r5, #1
10000c64:	d019      	beq.n	10000c9a <uart_protocol_send_command+0x14e>
10000c66:	9803      	ldr	r0, [sp, #12]
10000c68:	4050      	eors	r0, r2
10000c6a:	2d02      	cmp	r5, #2
10000c6c:	d063      	beq.n	10000d36 <uart_protocol_send_command+0x1ea>
10000c6e:	9a04      	ldr	r2, [sp, #16]
10000c70:	4050      	eors	r0, r2
10000c72:	2d03      	cmp	r5, #3
10000c74:	d05f      	beq.n	10000d36 <uart_protocol_send_command+0x1ea>
10000c76:	9a05      	ldr	r2, [sp, #20]
10000c78:	4050      	eors	r0, r2
10000c7a:	2d04      	cmp	r5, #4
10000c7c:	d05b      	beq.n	10000d36 <uart_protocol_send_command+0x1ea>
10000c7e:	9a06      	ldr	r2, [sp, #24]
10000c80:	4050      	eors	r0, r2
10000c82:	2d05      	cmp	r5, #5
10000c84:	d057      	beq.n	10000d36 <uart_protocol_send_command+0x1ea>
10000c86:	9a07      	ldr	r2, [sp, #28]
10000c88:	4050      	eors	r0, r2
10000c8a:	2d06      	cmp	r5, #6
10000c8c:	d053      	beq.n	10000d36 <uart_protocol_send_command+0x1ea>
10000c8e:	9a08      	ldr	r2, [sp, #32]
10000c90:	4050      	eors	r0, r2
10000c92:	2d07      	cmp	r5, #7
10000c94:	d04f      	beq.n	10000d36 <uart_protocol_send_command+0x1ea>
10000c96:	9a09      	ldr	r2, [sp, #36]	@ 0x24
10000c98:	4042      	eors	r2, r0
10000c9a:	0410      	lsls	r0, r2, #16
10000c9c:	4053      	eors	r3, r2
10000c9e:	0e00      	lsrs	r0, r0, #24
10000ca0:	4043      	eors	r3, r0
10000ca2:	0210      	lsls	r0, r2, #8
10000ca4:	0e00      	lsrs	r0, r0, #24
10000ca6:	0e12      	lsrs	r2, r2, #24
10000ca8:	4043      	eors	r3, r0
10000caa:	4053      	eors	r3, r2
10000cac:	b2dd      	uxtb	r5, r3
10000cae:	2203      	movs	r2, #3
10000cb0:	000b      	movs	r3, r1
10000cb2:	4393      	bics	r3, r2
10000cb4:	3301      	adds	r3, #1
10000cb6:	420a      	tst	r2, r1
10000cb8:	d100      	bne.n	10000cbc <uart_protocol_send_command+0x170>
10000cba:	e75b      	b.n	10000b74 <uart_protocol_send_command+0x28>
10000cbc:	18e2      	adds	r2, r4, r3
10000cbe:	78d2      	ldrb	r2, [r2, #3]
10000cc0:	4055      	eors	r5, r2
10000cc2:	1c5a      	adds	r2, r3, #1
10000cc4:	42ba      	cmp	r2, r7
10000cc6:	db00      	blt.n	10000cca <uart_protocol_send_command+0x17e>
10000cc8:	e754      	b.n	10000b74 <uart_protocol_send_command+0x28>
10000cca:	18a2      	adds	r2, r4, r2
10000ccc:	78d2      	ldrb	r2, [r2, #3]
10000cce:	4055      	eors	r5, r2
10000cd0:	1c9a      	adds	r2, r3, #2
10000cd2:	b2ed      	uxtb	r5, r5
10000cd4:	4297      	cmp	r7, r2
10000cd6:	dc00      	bgt.n	10000cda <uart_protocol_send_command+0x18e>
10000cd8:	e74c      	b.n	10000b74 <uart_protocol_send_command+0x28>
10000cda:	18a2      	adds	r2, r4, r2
10000cdc:	78d2      	ldrb	r2, [r2, #3]
10000cde:	4055      	eors	r5, r2
10000ce0:	1cda      	adds	r2, r3, #3
10000ce2:	4297      	cmp	r7, r2
10000ce4:	dc00      	bgt.n	10000ce8 <uart_protocol_send_command+0x19c>
10000ce6:	e745      	b.n	10000b74 <uart_protocol_send_command+0x28>
10000ce8:	18a2      	adds	r2, r4, r2
10000cea:	78d2      	ldrb	r2, [r2, #3]
10000cec:	4055      	eors	r5, r2
10000cee:	1d1a      	adds	r2, r3, #4
10000cf0:	4297      	cmp	r7, r2
10000cf2:	dc00      	bgt.n	10000cf6 <uart_protocol_send_command+0x1aa>
10000cf4:	e73e      	b.n	10000b74 <uart_protocol_send_command+0x28>
10000cf6:	18a2      	adds	r2, r4, r2
10000cf8:	78d2      	ldrb	r2, [r2, #3]
10000cfa:	4055      	eors	r5, r2
10000cfc:	1d5a      	adds	r2, r3, #5
10000cfe:	4297      	cmp	r7, r2
10000d00:	dc00      	bgt.n	10000d04 <uart_protocol_send_command+0x1b8>
10000d02:	e737      	b.n	10000b74 <uart_protocol_send_command+0x28>
10000d04:	18a2      	adds	r2, r4, r2
10000d06:	78d2      	ldrb	r2, [r2, #3]
10000d08:	4055      	eors	r5, r2
10000d0a:	1d9a      	adds	r2, r3, #6
10000d0c:	4297      	cmp	r7, r2
10000d0e:	dc00      	bgt.n	10000d12 <uart_protocol_send_command+0x1c6>
10000d10:	e730      	b.n	10000b74 <uart_protocol_send_command+0x28>
10000d12:	18a2      	adds	r2, r4, r2
10000d14:	78d2      	ldrb	r2, [r2, #3]
10000d16:	4055      	eors	r5, r2
10000d18:	1dda      	adds	r2, r3, #7
10000d1a:	4297      	cmp	r7, r2
10000d1c:	dc00      	bgt.n	10000d20 <uart_protocol_send_command+0x1d4>
10000d1e:	e729      	b.n	10000b74 <uart_protocol_send_command+0x28>
10000d20:	18a2      	adds	r2, r4, r2
10000d22:	78d2      	ldrb	r2, [r2, #3]
10000d24:	3308      	adds	r3, #8
10000d26:	4055      	eors	r5, r2
10000d28:	429f      	cmp	r7, r3
10000d2a:	dc00      	bgt.n	10000d2e <uart_protocol_send_command+0x1e2>
10000d2c:	e722      	b.n	10000b74 <uart_protocol_send_command+0x28>
10000d2e:	18e3      	adds	r3, r4, r3
10000d30:	78db      	ldrb	r3, [r3, #3]
10000d32:	405d      	eors	r5, r3
10000d34:	e71e      	b.n	10000b74 <uart_protocol_send_command+0x28>
10000d36:	0002      	movs	r2, r0
10000d38:	e7af      	b.n	10000c9a <uart_protocol_send_command+0x14e>
10000d3a:	0005      	movs	r5, r0
10000d3c:	23aa      	movs	r3, #170	@ 0xaa
10000d3e:	4055      	eors	r5, r2
10000d40:	4694      	mov	ip, r2
10000d42:	405d      	eors	r5, r3
10000d44:	2a00      	cmp	r2, #0
10000d46:	d181      	bne.n	10000c4c <uart_protocol_send_command+0x100>
10000d48:	e714      	b.n	10000b74 <uart_protocol_send_command+0x28>
10000d4a:	2300      	movs	r3, #0
10000d4c:	e7b6      	b.n	10000cbc <uart_protocol_send_command+0x170>
10000d4e:	46c0      	nop			@ (mov r8, r8)
10000d50:	20000ea0 	.word	0x20000ea0
10000d54:	bffc8000 	.word	0xbffc8000
10000d58:	20000e9c 	.word	0x20000e9c

10000d5c <uart_protocol_send_ack>:
10000d5c:	b530      	push	{r4, r5, lr}
10000d5e:	25af      	movs	r5, #175	@ 0xaf
10000d60:	4b2a      	ldr	r3, [pc, #168]	@ (10000e0c <uart_protocol_send_ack+0xb0>)
10000d62:	4a2b      	ldr	r2, [pc, #172]	@ (10000e10 <uart_protocol_send_ack+0xb4>)
10000d64:	681b      	ldr	r3, [r3, #0]
10000d66:	0004      	movs	r4, r0
10000d68:	189a      	adds	r2, r3, r2
10000d6a:	4045      	eors	r5, r0
10000d6c:	4250      	negs	r0, r2
10000d6e:	4142      	adcs	r2, r0
10000d70:	4928      	ldr	r1, [pc, #160]	@ (10000e14 <uart_protocol_send_ack+0xb8>)
10000d72:	0052      	lsls	r2, r2, #1
10000d74:	5e50      	ldrsh	r0, [r2, r1]
10000d76:	28aa      	cmp	r0, #170	@ 0xaa
10000d78:	d041      	beq.n	10000dfe <uart_protocol_send_ack+0xa2>
10000d7a:	2120      	movs	r1, #32
10000d7c:	699a      	ldr	r2, [r3, #24]
10000d7e:	4211      	tst	r1, r2
10000d80:	d1fc      	bne.n	10000d7c <uart_protocol_send_ack+0x20>
10000d82:	22aa      	movs	r2, #170	@ 0xaa
10000d84:	601a      	str	r2, [r3, #0]
10000d86:	2804      	cmp	r0, #4
10000d88:	d032      	beq.n	10000df0 <uart_protocol_send_ack+0x94>
10000d8a:	2120      	movs	r1, #32
10000d8c:	699a      	ldr	r2, [r3, #24]
10000d8e:	4211      	tst	r1, r2
10000d90:	d1fc      	bne.n	10000d8c <uart_protocol_send_ack+0x30>
10000d92:	2204      	movs	r2, #4
10000d94:	601a      	str	r2, [r3, #0]
10000d96:	2801      	cmp	r0, #1
10000d98:	d023      	beq.n	10000de2 <uart_protocol_send_ack+0x86>
10000d9a:	2120      	movs	r1, #32
10000d9c:	699a      	ldr	r2, [r3, #24]
10000d9e:	4211      	tst	r1, r2
10000da0:	d1fc      	bne.n	10000d9c <uart_protocol_send_ack+0x40>
10000da2:	2201      	movs	r2, #1
10000da4:	601a      	str	r2, [r3, #0]
10000da6:	42a0      	cmp	r0, r4
10000da8:	d014      	beq.n	10000dd4 <uart_protocol_send_ack+0x78>
10000daa:	2120      	movs	r1, #32
10000dac:	699a      	ldr	r2, [r3, #24]
10000dae:	4211      	tst	r1, r2
10000db0:	d1fc      	bne.n	10000dac <uart_protocol_send_ack+0x50>
10000db2:	601c      	str	r4, [r3, #0]
10000db4:	42a8      	cmp	r0, r5
10000db6:	d006      	beq.n	10000dc6 <uart_protocol_send_ack+0x6a>
10000db8:	2120      	movs	r1, #32
10000dba:	699a      	ldr	r2, [r3, #24]
10000dbc:	4211      	tst	r1, r2
10000dbe:	d1fc      	bne.n	10000dba <uart_protocol_send_ack+0x5e>
10000dc0:	2001      	movs	r0, #1
10000dc2:	601d      	str	r5, [r3, #0]
10000dc4:	bd30      	pop	{r4, r5, pc}
10000dc6:	2120      	movs	r1, #32
10000dc8:	699a      	ldr	r2, [r3, #24]
10000dca:	4211      	tst	r1, r2
10000dcc:	d1fc      	bne.n	10000dc8 <uart_protocol_send_ack+0x6c>
10000dce:	220d      	movs	r2, #13
10000dd0:	601a      	str	r2, [r3, #0]
10000dd2:	e7f1      	b.n	10000db8 <uart_protocol_send_ack+0x5c>
10000dd4:	2120      	movs	r1, #32
10000dd6:	699a      	ldr	r2, [r3, #24]
10000dd8:	4211      	tst	r1, r2
10000dda:	d1fc      	bne.n	10000dd6 <uart_protocol_send_ack+0x7a>
10000ddc:	220d      	movs	r2, #13
10000dde:	601a      	str	r2, [r3, #0]
10000de0:	e7e3      	b.n	10000daa <uart_protocol_send_ack+0x4e>
10000de2:	2120      	movs	r1, #32
10000de4:	699a      	ldr	r2, [r3, #24]
10000de6:	4211      	tst	r1, r2
10000de8:	d1fc      	bne.n	10000de4 <uart_protocol_send_ack+0x88>
10000dea:	220d      	movs	r2, #13
10000dec:	601a      	str	r2, [r3, #0]
10000dee:	e7d4      	b.n	10000d9a <uart_protocol_send_ack+0x3e>
10000df0:	2120      	movs	r1, #32
10000df2:	699a      	ldr	r2, [r3, #24]
10000df4:	4211      	tst	r1, r2
10000df6:	d1fc      	bne.n	10000df2 <uart_protocol_send_ack+0x96>
10000df8:	220d      	movs	r2, #13
10000dfa:	601a      	str	r2, [r3, #0]
10000dfc:	e7c5      	b.n	10000d8a <uart_protocol_send_ack+0x2e>
10000dfe:	2120      	movs	r1, #32
10000e00:	699a      	ldr	r2, [r3, #24]
10000e02:	4211      	tst	r1, r2
10000e04:	d1fc      	bne.n	10000e00 <uart_protocol_send_ack+0xa4>
10000e06:	220d      	movs	r2, #13
10000e08:	601a      	str	r2, [r3, #0]
10000e0a:	e7b6      	b.n	10000d7a <uart_protocol_send_ack+0x1e>
10000e0c:	20000ea0 	.word	0x20000ea0
10000e10:	bffc8000 	.word	0xbffc8000
10000e14:	20000e9c 	.word	0x20000e9c

10000e18 <uart_protocol_send_ping>:
10000e18:	4b24      	ldr	r3, [pc, #144]	@ (10000eac <uart_protocol_send_ping+0x94>)
10000e1a:	4a25      	ldr	r2, [pc, #148]	@ (10000eb0 <uart_protocol_send_ping+0x98>)
10000e1c:	681b      	ldr	r3, [r3, #0]
10000e1e:	4925      	ldr	r1, [pc, #148]	@ (10000eb4 <uart_protocol_send_ping+0x9c>)
10000e20:	189a      	adds	r2, r3, r2
10000e22:	4250      	negs	r0, r2
10000e24:	4142      	adcs	r2, r0
10000e26:	0052      	lsls	r2, r2, #1
10000e28:	b510      	push	{r4, lr}
10000e2a:	5e54      	ldrsh	r4, [r2, r1]
10000e2c:	2caa      	cmp	r4, #170	@ 0xaa
10000e2e:	d035      	beq.n	10000e9c <uart_protocol_send_ping+0x84>
10000e30:	2120      	movs	r1, #32
10000e32:	699a      	ldr	r2, [r3, #24]
10000e34:	4211      	tst	r1, r2
10000e36:	d1fc      	bne.n	10000e32 <uart_protocol_send_ping+0x1a>
10000e38:	22aa      	movs	r2, #170	@ 0xaa
10000e3a:	601a      	str	r2, [r3, #0]
10000e3c:	2c06      	cmp	r4, #6
10000e3e:	d026      	beq.n	10000e8e <uart_protocol_send_ping+0x76>
10000e40:	2120      	movs	r1, #32
10000e42:	699a      	ldr	r2, [r3, #24]
10000e44:	4211      	tst	r1, r2
10000e46:	d1fc      	bne.n	10000e42 <uart_protocol_send_ping+0x2a>
10000e48:	2206      	movs	r2, #6
10000e4a:	601a      	str	r2, [r3, #0]
10000e4c:	2c00      	cmp	r4, #0
10000e4e:	d017      	beq.n	10000e80 <uart_protocol_send_ping+0x68>
10000e50:	2120      	movs	r1, #32
10000e52:	0008      	movs	r0, r1
10000e54:	699a      	ldr	r2, [r3, #24]
10000e56:	4010      	ands	r0, r2
10000e58:	4211      	tst	r1, r2
10000e5a:	d1fa      	bne.n	10000e52 <uart_protocol_send_ping+0x3a>
10000e5c:	6018      	str	r0, [r3, #0]
10000e5e:	2cac      	cmp	r4, #172	@ 0xac
10000e60:	d007      	beq.n	10000e72 <uart_protocol_send_ping+0x5a>
10000e62:	2120      	movs	r1, #32
10000e64:	699a      	ldr	r2, [r3, #24]
10000e66:	4211      	tst	r1, r2
10000e68:	d1fc      	bne.n	10000e64 <uart_protocol_send_ping+0x4c>
10000e6a:	22ac      	movs	r2, #172	@ 0xac
10000e6c:	2001      	movs	r0, #1
10000e6e:	601a      	str	r2, [r3, #0]
10000e70:	bd10      	pop	{r4, pc}
10000e72:	2120      	movs	r1, #32
10000e74:	699a      	ldr	r2, [r3, #24]
10000e76:	4211      	tst	r1, r2
10000e78:	d1fc      	bne.n	10000e74 <uart_protocol_send_ping+0x5c>
10000e7a:	220d      	movs	r2, #13
10000e7c:	601a      	str	r2, [r3, #0]
10000e7e:	e7f0      	b.n	10000e62 <uart_protocol_send_ping+0x4a>
10000e80:	2120      	movs	r1, #32
10000e82:	699a      	ldr	r2, [r3, #24]
10000e84:	4211      	tst	r1, r2
10000e86:	d1fc      	bne.n	10000e82 <uart_protocol_send_ping+0x6a>
10000e88:	220d      	movs	r2, #13
10000e8a:	601a      	str	r2, [r3, #0]
10000e8c:	e7e0      	b.n	10000e50 <uart_protocol_send_ping+0x38>
10000e8e:	2120      	movs	r1, #32
10000e90:	699a      	ldr	r2, [r3, #24]
10000e92:	4211      	tst	r1, r2
10000e94:	d1fc      	bne.n	10000e90 <uart_protocol_send_ping+0x78>
10000e96:	220d      	movs	r2, #13
10000e98:	601a      	str	r2, [r3, #0]
10000e9a:	e7d1      	b.n	10000e40 <uart_protocol_send_ping+0x28>
10000e9c:	2120      	movs	r1, #32
10000e9e:	699a      	ldr	r2, [r3, #24]
10000ea0:	4211      	tst	r1, r2
10000ea2:	d1fc      	bne.n	10000e9e <uart_protocol_send_ping+0x86>
10000ea4:	220d      	movs	r2, #13
10000ea6:	601a      	str	r2, [r3, #0]
10000ea8:	e7c2      	b.n	10000e30 <uart_protocol_send_ping+0x18>
10000eaa:	46c0      	nop			@ (mov r8, r8)
10000eac:	20000ea0 	.word	0x20000ea0
10000eb0:	bffc8000 	.word	0xbffc8000
10000eb4:	20000e9c 	.word	0x20000e9c

10000eb8 <uart_protocol_data_available>:
10000eb8:	2001      	movs	r0, #1
10000eba:	4b03      	ldr	r3, [pc, #12]	@ (10000ec8 <uart_protocol_data_available+0x10>)
10000ebc:	681b      	ldr	r3, [r3, #0]
10000ebe:	699b      	ldr	r3, [r3, #24]
10000ec0:	091b      	lsrs	r3, r3, #4
10000ec2:	4398      	bics	r0, r3
10000ec4:	4770      	bx	lr
10000ec6:	46c0      	nop			@ (mov r8, r8)
10000ec8:	20000ea0 	.word	0x20000ea0

10000ecc <uart_protocol_receive_packet>:
10000ecc:	b5f8      	push	{r3, r4, r5, r6, r7, lr}
10000ece:	46ce      	mov	lr, r9
10000ed0:	4647      	mov	r7, r8
10000ed2:	4d8e      	ldr	r5, [pc, #568]	@ (1000110c <uart_protocol_receive_packet+0x240>)
10000ed4:	0004      	movs	r4, r0
10000ed6:	6828      	ldr	r0, [r5, #0]
10000ed8:	2210      	movs	r2, #16
10000eda:	6983      	ldr	r3, [r0, #24]
10000edc:	b580      	push	{r7, lr}
10000ede:	06db      	lsls	r3, r3, #27
10000ee0:	d500      	bpl.n	10000ee4 <uart_protocol_receive_packet+0x18>
10000ee2:	e0a4      	b.n	1000102e <uart_protocol_receive_packet+0x162>
10000ee4:	6983      	ldr	r3, [r0, #24]
10000ee6:	421a      	tst	r2, r3
10000ee8:	d107      	bne.n	10000efa <uart_protocol_receive_packet+0x2e>
10000eea:	6983      	ldr	r3, [r0, #24]
10000eec:	421a      	tst	r2, r3
10000eee:	d1fc      	bne.n	10000eea <uart_protocol_receive_packet+0x1e>
10000ef0:	6803      	ldr	r3, [r0, #0]
10000ef2:	b2db      	uxtb	r3, r3
10000ef4:	2baa      	cmp	r3, #170	@ 0xaa
10000ef6:	d1f5      	bne.n	10000ee4 <uart_protocol_receive_packet+0x18>
10000ef8:	7023      	strb	r3, [r4, #0]
10000efa:	21fa      	movs	r1, #250	@ 0xfa
10000efc:	0089      	lsls	r1, r1, #2
10000efe:	f000 fef5 	bl	10001cec <uart_is_readable_within_us>
10000f02:	2800      	cmp	r0, #0
10000f04:	d100      	bne.n	10000f08 <uart_protocol_receive_packet+0x3c>
10000f06:	e092      	b.n	1000102e <uart_protocol_receive_packet+0x162>
10000f08:	2210      	movs	r2, #16
10000f0a:	6828      	ldr	r0, [r5, #0]
10000f0c:	6983      	ldr	r3, [r0, #24]
10000f0e:	421a      	tst	r2, r3
10000f10:	d1fc      	bne.n	10000f0c <uart_protocol_receive_packet+0x40>
10000f12:	21fa      	movs	r1, #250	@ 0xfa
10000f14:	6803      	ldr	r3, [r0, #0]
10000f16:	0089      	lsls	r1, r1, #2
10000f18:	7063      	strb	r3, [r4, #1]
10000f1a:	f000 fee7 	bl	10001cec <uart_is_readable_within_us>
10000f1e:	2800      	cmp	r0, #0
10000f20:	d100      	bne.n	10000f24 <uart_protocol_receive_packet+0x58>
10000f22:	e084      	b.n	1000102e <uart_protocol_receive_packet+0x162>
10000f24:	2210      	movs	r2, #16
10000f26:	6828      	ldr	r0, [r5, #0]
10000f28:	6983      	ldr	r3, [r0, #24]
10000f2a:	421a      	tst	r2, r3
10000f2c:	d1fc      	bne.n	10000f28 <uart_protocol_receive_packet+0x5c>
10000f2e:	6803      	ldr	r3, [r0, #0]
10000f30:	b2db      	uxtb	r3, r3
10000f32:	70a3      	strb	r3, [r4, #2]
10000f34:	2b20      	cmp	r3, #32
10000f36:	d87a      	bhi.n	1000102e <uart_protocol_receive_packet+0x162>
10000f38:	2b00      	cmp	r3, #0
10000f3a:	d012      	beq.n	10000f62 <uart_protocol_receive_packet+0x96>
10000f3c:	0027      	movs	r7, r4
10000f3e:	2610      	movs	r6, #16
10000f40:	21fa      	movs	r1, #250	@ 0xfa
10000f42:	0089      	lsls	r1, r1, #2
10000f44:	f000 fed2 	bl	10001cec <uart_is_readable_within_us>
10000f48:	2800      	cmp	r0, #0
10000f4a:	d070      	beq.n	1000102e <uart_protocol_receive_packet+0x162>
10000f4c:	6828      	ldr	r0, [r5, #0]
10000f4e:	6983      	ldr	r3, [r0, #24]
10000f50:	421e      	tst	r6, r3
10000f52:	d1fc      	bne.n	10000f4e <uart_protocol_receive_packet+0x82>
10000f54:	6803      	ldr	r3, [r0, #0]
10000f56:	3701      	adds	r7, #1
10000f58:	70bb      	strb	r3, [r7, #2]
10000f5a:	78a2      	ldrb	r2, [r4, #2]
10000f5c:	1b3b      	subs	r3, r7, r4
10000f5e:	429a      	cmp	r2, r3
10000f60:	dcee      	bgt.n	10000f40 <uart_protocol_receive_packet+0x74>
10000f62:	21fa      	movs	r1, #250	@ 0xfa
10000f64:	0089      	lsls	r1, r1, #2
10000f66:	f000 fec1 	bl	10001cec <uart_is_readable_within_us>
10000f6a:	2800      	cmp	r0, #0
10000f6c:	d05f      	beq.n	1000102e <uart_protocol_receive_packet+0x162>
10000f6e:	2110      	movs	r1, #16
10000f70:	682a      	ldr	r2, [r5, #0]
10000f72:	6993      	ldr	r3, [r2, #24]
10000f74:	4219      	tst	r1, r3
10000f76:	d1fc      	bne.n	10000f72 <uart_protocol_receive_packet+0xa6>
10000f78:	6813      	ldr	r3, [r2, #0]
10000f7a:	2223      	movs	r2, #35	@ 0x23
10000f7c:	b2db      	uxtb	r3, r3
10000f7e:	54a3      	strb	r3, [r4, r2]
10000f80:	7822      	ldrb	r2, [r4, #0]
10000f82:	4699      	mov	r9, r3
10000f84:	2aaa      	cmp	r2, #170	@ 0xaa
10000f86:	d152      	bne.n	1000102e <uart_protocol_receive_packet+0x162>
10000f88:	78a5      	ldrb	r5, [r4, #2]
10000f8a:	2d20      	cmp	r5, #32
10000f8c:	d84f      	bhi.n	1000102e <uart_protocol_receive_packet+0x162>
10000f8e:	7861      	ldrb	r1, [r4, #1]
10000f90:	4069      	eors	r1, r5
10000f92:	4051      	eors	r1, r2
10000f94:	2d00      	cmp	r5, #0
10000f96:	d044      	beq.n	10001022 <uart_protocol_receive_packet+0x156>
10000f98:	2003      	movs	r0, #3
10000f9a:	1ce2      	adds	r2, r4, #3
10000f9c:	4252      	negs	r2, r2
10000f9e:	1e6e      	subs	r6, r5, #1
10000fa0:	4010      	ands	r0, r2
10000fa2:	2e0a      	cmp	r6, #10
10000fa4:	d800      	bhi.n	10000fa8 <uart_protocol_receive_packet+0xdc>
10000fa6:	e0ae      	b.n	10001106 <uart_protocol_receive_packet+0x23a>
10000fa8:	2800      	cmp	r0, #0
10000faa:	d100      	bne.n	10000fae <uart_protocol_receive_packet+0xe2>
10000fac:	e0a9      	b.n	10001102 <uart_protocol_receive_packet+0x236>
10000fae:	78e6      	ldrb	r6, [r4, #3]
10000fb0:	4071      	eors	r1, r6
10000fb2:	0792      	lsls	r2, r2, #30
10000fb4:	d400      	bmi.n	10000fb8 <uart_protocol_receive_packet+0xec>
10000fb6:	e0a2      	b.n	100010fe <uart_protocol_receive_packet+0x232>
10000fb8:	7922      	ldrb	r2, [r4, #4]
10000fba:	4051      	eors	r1, r2
10000fbc:	2803      	cmp	r0, #3
10000fbe:	d000      	beq.n	10000fc2 <uart_protocol_receive_packet+0xf6>
10000fc0:	e09b      	b.n	100010fa <uart_protocol_receive_packet+0x22e>
10000fc2:	2603      	movs	r6, #3
10000fc4:	7962      	ldrb	r2, [r4, #5]
10000fc6:	4051      	eors	r1, r2
10000fc8:	1a2b      	subs	r3, r5, r0
10000fca:	3003      	adds	r0, #3
10000fcc:	1820      	adds	r0, r4, r0
10000fce:	6842      	ldr	r2, [r0, #4]
10000fd0:	4698      	mov	r8, r3
10000fd2:	4694      	mov	ip, r2
10000fd4:	4667      	mov	r7, ip
10000fd6:	6802      	ldr	r2, [r0, #0]
10000fd8:	089b      	lsrs	r3, r3, #2
10000fda:	407a      	eors	r2, r7
10000fdc:	2b02      	cmp	r3, #2
10000fde:	d100      	bne.n	10000fe2 <uart_protocol_receive_packet+0x116>
10000fe0:	e07e      	b.n	100010e0 <uart_protocol_receive_packet+0x214>
10000fe2:	6887      	ldr	r7, [r0, #8]
10000fe4:	407a      	eors	r2, r7
10000fe6:	2b03      	cmp	r3, #3
10000fe8:	d026      	beq.n	10001038 <uart_protocol_receive_packet+0x16c>
10000fea:	68c7      	ldr	r7, [r0, #12]
10000fec:	407a      	eors	r2, r7
10000fee:	2b04      	cmp	r3, #4
10000ff0:	d022      	beq.n	10001038 <uart_protocol_receive_packet+0x16c>
10000ff2:	6907      	ldr	r7, [r0, #16]
10000ff4:	407a      	eors	r2, r7
10000ff6:	2b05      	cmp	r3, #5
10000ff8:	d01e      	beq.n	10001038 <uart_protocol_receive_packet+0x16c>
10000ffa:	6947      	ldr	r7, [r0, #20]
10000ffc:	407a      	eors	r2, r7
10000ffe:	2b06      	cmp	r3, #6
10001000:	d01a      	beq.n	10001038 <uart_protocol_receive_packet+0x16c>
10001002:	6987      	ldr	r7, [r0, #24]
10001004:	407a      	eors	r2, r7
10001006:	2b08      	cmp	r3, #8
10001008:	d116      	bne.n	10001038 <uart_protocol_receive_packet+0x16c>
1000100a:	69c0      	ldr	r0, [r0, #28]
1000100c:	4042      	eors	r2, r0
1000100e:	0410      	lsls	r0, r2, #16
10001010:	0e00      	lsrs	r0, r0, #24
10001012:	4050      	eors	r0, r2
10001014:	4041      	eors	r1, r0
10001016:	0210      	lsls	r0, r2, #8
10001018:	0e00      	lsrs	r0, r0, #24
1000101a:	4041      	eors	r1, r0
1000101c:	0e12      	lsrs	r2, r2, #24
1000101e:	4051      	eors	r1, r2
10001020:	b2c9      	uxtb	r1, r1
10001022:	464b      	mov	r3, r9
10001024:	1a58      	subs	r0, r3, r1
10001026:	4243      	negs	r3, r0
10001028:	4158      	adcs	r0, r3
1000102a:	b2c0      	uxtb	r0, r0
1000102c:	e000      	b.n	10001030 <uart_protocol_receive_packet+0x164>
1000102e:	2000      	movs	r0, #0
10001030:	bcc0      	pop	{r6, r7}
10001032:	46b9      	mov	r9, r7
10001034:	46b0      	mov	r8, r6
10001036:	bdf8      	pop	{r3, r4, r5, r6, r7, pc}
10001038:	0410      	lsls	r0, r2, #16
1000103a:	0e00      	lsrs	r0, r0, #24
1000103c:	4050      	eors	r0, r2
1000103e:	4041      	eors	r1, r0
10001040:	0210      	lsls	r0, r2, #8
10001042:	0e00      	lsrs	r0, r0, #24
10001044:	4041      	eors	r1, r0
10001046:	0e12      	lsrs	r2, r2, #24
10001048:	4051      	eors	r1, r2
1000104a:	2003      	movs	r0, #3
1000104c:	4642      	mov	r2, r8
1000104e:	4643      	mov	r3, r8
10001050:	4382      	bics	r2, r0
10001052:	b2c9      	uxtb	r1, r1
10001054:	1992      	adds	r2, r2, r6
10001056:	4218      	tst	r0, r3
10001058:	d0e3      	beq.n	10001022 <uart_protocol_receive_packet+0x156>
1000105a:	18a0      	adds	r0, r4, r2
1000105c:	78c0      	ldrb	r0, [r0, #3]
1000105e:	4041      	eors	r1, r0
10001060:	1c50      	adds	r0, r2, #1
10001062:	42a8      	cmp	r0, r5
10001064:	dadd      	bge.n	10001022 <uart_protocol_receive_packet+0x156>
10001066:	1820      	adds	r0, r4, r0
10001068:	78c0      	ldrb	r0, [r0, #3]
1000106a:	4041      	eors	r1, r0
1000106c:	1c90      	adds	r0, r2, #2
1000106e:	b2c9      	uxtb	r1, r1
10001070:	4285      	cmp	r5, r0
10001072:	ddd6      	ble.n	10001022 <uart_protocol_receive_packet+0x156>
10001074:	1820      	adds	r0, r4, r0
10001076:	78c0      	ldrb	r0, [r0, #3]
10001078:	4041      	eors	r1, r0
1000107a:	1cd0      	adds	r0, r2, #3
1000107c:	4285      	cmp	r5, r0
1000107e:	ddd0      	ble.n	10001022 <uart_protocol_receive_packet+0x156>
10001080:	1820      	adds	r0, r4, r0
10001082:	78c0      	ldrb	r0, [r0, #3]
10001084:	4041      	eors	r1, r0
10001086:	1d10      	adds	r0, r2, #4
10001088:	4285      	cmp	r5, r0
1000108a:	ddca      	ble.n	10001022 <uart_protocol_receive_packet+0x156>
1000108c:	1820      	adds	r0, r4, r0
1000108e:	78c0      	ldrb	r0, [r0, #3]
10001090:	4041      	eors	r1, r0
10001092:	1d50      	adds	r0, r2, #5
10001094:	4285      	cmp	r5, r0
10001096:	ddc4      	ble.n	10001022 <uart_protocol_receive_packet+0x156>
10001098:	1820      	adds	r0, r4, r0
1000109a:	78c0      	ldrb	r0, [r0, #3]
1000109c:	4041      	eors	r1, r0
1000109e:	1d90      	adds	r0, r2, #6
100010a0:	4285      	cmp	r5, r0
100010a2:	ddbe      	ble.n	10001022 <uart_protocol_receive_packet+0x156>
100010a4:	1820      	adds	r0, r4, r0
100010a6:	78c0      	ldrb	r0, [r0, #3]
100010a8:	4041      	eors	r1, r0
100010aa:	1dd0      	adds	r0, r2, #7
100010ac:	4285      	cmp	r5, r0
100010ae:	ddb8      	ble.n	10001022 <uart_protocol_receive_packet+0x156>
100010b0:	1820      	adds	r0, r4, r0
100010b2:	78c0      	ldrb	r0, [r0, #3]
100010b4:	4041      	eors	r1, r0
100010b6:	0010      	movs	r0, r2
100010b8:	3008      	adds	r0, #8
100010ba:	4285      	cmp	r5, r0
100010bc:	ddb1      	ble.n	10001022 <uart_protocol_receive_packet+0x156>
100010be:	1820      	adds	r0, r4, r0
100010c0:	78c0      	ldrb	r0, [r0, #3]
100010c2:	4041      	eors	r1, r0
100010c4:	0010      	movs	r0, r2
100010c6:	3009      	adds	r0, #9
100010c8:	4285      	cmp	r5, r0
100010ca:	ddaa      	ble.n	10001022 <uart_protocol_receive_packet+0x156>
100010cc:	1820      	adds	r0, r4, r0
100010ce:	78c0      	ldrb	r0, [r0, #3]
100010d0:	320a      	adds	r2, #10
100010d2:	4041      	eors	r1, r0
100010d4:	4295      	cmp	r5, r2
100010d6:	dda4      	ble.n	10001022 <uart_protocol_receive_packet+0x156>
100010d8:	18a4      	adds	r4, r4, r2
100010da:	78e2      	ldrb	r2, [r4, #3]
100010dc:	4051      	eors	r1, r2
100010de:	e7a0      	b.n	10001022 <uart_protocol_receive_packet+0x156>
100010e0:	0410      	lsls	r0, r2, #16
100010e2:	0e00      	lsrs	r0, r0, #24
100010e4:	4050      	eors	r0, r2
100010e6:	4041      	eors	r1, r0
100010e8:	0210      	lsls	r0, r2, #8
100010ea:	0e00      	lsrs	r0, r0, #24
100010ec:	0e12      	lsrs	r2, r2, #24
100010ee:	4041      	eors	r1, r0
100010f0:	4051      	eors	r1, r2
100010f2:	0032      	movs	r2, r6
100010f4:	b2c9      	uxtb	r1, r1
100010f6:	3208      	adds	r2, #8
100010f8:	e7af      	b.n	1000105a <uart_protocol_receive_packet+0x18e>
100010fa:	2602      	movs	r6, #2
100010fc:	e764      	b.n	10000fc8 <uart_protocol_receive_packet+0xfc>
100010fe:	2601      	movs	r6, #1
10001100:	e762      	b.n	10000fc8 <uart_protocol_receive_packet+0xfc>
10001102:	2600      	movs	r6, #0
10001104:	e760      	b.n	10000fc8 <uart_protocol_receive_packet+0xfc>
10001106:	2200      	movs	r2, #0
10001108:	e7a7      	b.n	1000105a <uart_protocol_receive_packet+0x18e>
1000110a:	46c0      	nop			@ (mov r8, r8)
1000110c:	20000ea0 	.word	0x20000ea0

10001110 <uart_protocol_parse_light_data>:
10001110:	7842      	ldrb	r2, [r0, #1]
10001112:	0003      	movs	r3, r0
10001114:	2000      	movs	r0, #0
10001116:	2a01      	cmp	r2, #1
10001118:	d105      	bne.n	10001126 <uart_protocol_parse_light_data+0x16>
1000111a:	789a      	ldrb	r2, [r3, #2]
1000111c:	2a0a      	cmp	r2, #10
1000111e:	d902      	bls.n	10001126 <uart_protocol_parse_light_data+0x16>
10001120:	78da      	ldrb	r2, [r3, #3]
10001122:	2a01      	cmp	r2, #1
10001124:	d000      	beq.n	10001128 <uart_protocol_parse_light_data+0x18>
10001126:	4770      	bx	lr
10001128:	700a      	strb	r2, [r1, #0]
1000112a:	795a      	ldrb	r2, [r3, #5]
1000112c:	7918      	ldrb	r0, [r3, #4]
1000112e:	0212      	lsls	r2, r2, #8
10001130:	4302      	orrs	r2, r0
10001132:	ba52      	rev16	r2, r2
10001134:	804a      	strh	r2, [r1, #2]
10001136:	79da      	ldrb	r2, [r3, #7]
10001138:	7998      	ldrb	r0, [r3, #6]
1000113a:	0212      	lsls	r2, r2, #8
1000113c:	4302      	orrs	r2, r0
1000113e:	ba52      	rev16	r2, r2
10001140:	808a      	strh	r2, [r1, #4]
10001142:	7a5a      	ldrb	r2, [r3, #9]
10001144:	7a18      	ldrb	r0, [r3, #8]
10001146:	0212      	lsls	r2, r2, #8
10001148:	330a      	adds	r3, #10
1000114a:	4302      	orrs	r2, r0
1000114c:	681b      	ldr	r3, [r3, #0]
1000114e:	ba52      	rev16	r2, r2
10001150:	2001      	movs	r0, #1
10001152:	80ca      	strh	r2, [r1, #6]
10001154:	608b      	str	r3, [r1, #8]
10001156:	e7e6      	b.n	10001126 <uart_protocol_parse_light_data+0x16>

10001158 <gpio_set_function>:
10001158:	4a09      	ldr	r2, [pc, #36]	@ (10001180 <gpio_set_function+0x28>)
1000115a:	0083      	lsls	r3, r0, #2
1000115c:	189a      	adds	r2, r3, r2
1000115e:	b510      	push	{r4, lr}
10001160:	6814      	ldr	r4, [r2, #0]
10001162:	2240      	movs	r2, #64	@ 0x40
10001164:	4054      	eors	r4, r2
10001166:	3280      	adds	r2, #128	@ 0x80
10001168:	4022      	ands	r2, r4
1000116a:	4c06      	ldr	r4, [pc, #24]	@ (10001184 <gpio_set_function+0x2c>)
1000116c:	00c0      	lsls	r0, r0, #3
1000116e:	46a4      	mov	ip, r4
10001170:	4463      	add	r3, ip
10001172:	601a      	str	r2, [r3, #0]
10001174:	4b04      	ldr	r3, [pc, #16]	@ (10001188 <gpio_set_function+0x30>)
10001176:	469c      	mov	ip, r3
10001178:	4460      	add	r0, ip
1000117a:	6041      	str	r1, [r0, #4]
1000117c:	bd10      	pop	{r4, pc}
1000117e:	46c0      	nop			@ (mov r8, r8)
10001180:	4001c004 	.word	0x4001c004
10001184:	4001d004 	.word	0x4001d004
10001188:	40014000 	.word	0x40014000

1000118c <gpio_init>:
1000118c:	2301      	movs	r3, #1
1000118e:	22d0      	movs	r2, #208	@ 0xd0
10001190:	4083      	lsls	r3, r0
10001192:	0612      	lsls	r2, r2, #24
10001194:	6293      	str	r3, [r2, #40]	@ 0x28
10001196:	6193      	str	r3, [r2, #24]
10001198:	4a09      	ldr	r2, [pc, #36]	@ (100011c0 <gpio_init+0x34>)
1000119a:	0083      	lsls	r3, r0, #2
1000119c:	189a      	adds	r2, r3, r2
1000119e:	6811      	ldr	r1, [r2, #0]
100011a0:	2240      	movs	r2, #64	@ 0x40
100011a2:	4051      	eors	r1, r2
100011a4:	3280      	adds	r2, #128	@ 0x80
100011a6:	400a      	ands	r2, r1
100011a8:	4906      	ldr	r1, [pc, #24]	@ (100011c4 <gpio_init+0x38>)
100011aa:	00c0      	lsls	r0, r0, #3
100011ac:	468c      	mov	ip, r1
100011ae:	4463      	add	r3, ip
100011b0:	601a      	str	r2, [r3, #0]
100011b2:	4b05      	ldr	r3, [pc, #20]	@ (100011c8 <gpio_init+0x3c>)
100011b4:	469c      	mov	ip, r3
100011b6:	2305      	movs	r3, #5
100011b8:	4460      	add	r0, ip
100011ba:	6043      	str	r3, [r0, #4]
100011bc:	4770      	bx	lr
100011be:	46c0      	nop			@ (mov r8, r8)
100011c0:	4001c004 	.word	0x4001c004
100011c4:	4001d004 	.word	0x4001d004
100011c8:	40014000 	.word	0x40014000

100011cc <panic>:
100011cc:	b40f      	push	{r0, r1, r2, r3}
100011ce:	b500      	push	{lr}
100011d0:	4808      	ldr	r0, [pc, #32]	@ (100011f4 <panic+0x28>)
100011d2:	b083      	sub	sp, #12
100011d4:	f003 fdf6 	bl	10004dc4 <__wrap_puts>
100011d8:	9b04      	ldr	r3, [sp, #16]
100011da:	2b00      	cmp	r3, #0
100011dc:	d007      	beq.n	100011ee <panic+0x22>
100011de:	a905      	add	r1, sp, #20
100011e0:	0018      	movs	r0, r3
100011e2:	9101      	str	r1, [sp, #4]
100011e4:	f003 fbe6 	bl	100049b4 <weak_raw_vprintf>
100011e8:	4803      	ldr	r0, [pc, #12]	@ (100011f8 <panic+0x2c>)
100011ea:	f003 fdeb 	bl	10004dc4 <__wrap_puts>
100011ee:	2001      	movs	r0, #1
100011f0:	f003 fbf8 	bl	100049e4 <_exit>
100011f4:	1000af04 	.word	0x1000af04
100011f8:	1000a6d8 	.word	0x1000a6d8

100011fc <hw_claim_or_assert>:
100011fc:	b570      	push	{r4, r5, r6, lr}
100011fe:	f3ef 8c10 	mrs	ip, PRIMASK
10001202:	b672      	cpsid	i
10001204:	4d0d      	ldr	r5, [pc, #52]	@ (1000123c <hw_claim_or_assert+0x40>)
10001206:	682b      	ldr	r3, [r5, #0]
10001208:	2b00      	cmp	r3, #0
1000120a:	d0fc      	beq.n	10001206 <hw_claim_or_assert+0xa>
1000120c:	f3bf 8f5f 	dmb	sy
10001210:	2407      	movs	r4, #7
10001212:	08cb      	lsrs	r3, r1, #3
10001214:	18c6      	adds	r6, r0, r3
10001216:	5cc0      	ldrb	r0, [r0, r3]
10001218:	2301      	movs	r3, #1
1000121a:	400c      	ands	r4, r1
1000121c:	40a3      	lsls	r3, r4
1000121e:	001c      	movs	r4, r3
10001220:	4004      	ands	r4, r0
10001222:	4203      	tst	r3, r0
10001224:	d107      	bne.n	10001236 <hw_claim_or_assert+0x3a>
10001226:	4318      	orrs	r0, r3
10001228:	7030      	strb	r0, [r6, #0]
1000122a:	f3bf 8f5f 	dmb	sy
1000122e:	602c      	str	r4, [r5, #0]
10001230:	f38c 8810 	msr	PRIMASK, ip
10001234:	bd70      	pop	{r4, r5, r6, pc}
10001236:	0010      	movs	r0, r2
10001238:	f7ff ffc8 	bl	100011cc <panic>
1000123c:	d000012c 	.word	0xd000012c

10001240 <next_striped_spin_lock_num>:
10001240:	4a04      	ldr	r2, [pc, #16]	@ (10001254 <next_striped_spin_lock_num+0x14>)
10001242:	7810      	ldrb	r0, [r2, #0]
10001244:	1c43      	adds	r3, r0, #1
10001246:	b2db      	uxtb	r3, r3
10001248:	2b17      	cmp	r3, #23
1000124a:	d900      	bls.n	1000124e <next_striped_spin_lock_num+0xe>
1000124c:	2310      	movs	r3, #16
1000124e:	7013      	strb	r3, [r2, #0]
10001250:	4770      	bx	lr
10001252:	46c0      	nop			@ (mov r8, r8)
10001254:	200001ac 	.word	0x200001ac

10001258 <spin_locks_reset>:
10001258:	2100      	movs	r1, #0
1000125a:	4b04      	ldr	r3, [pc, #16]	@ (1000126c <spin_locks_reset+0x14>)
1000125c:	4a04      	ldr	r2, [pc, #16]	@ (10001270 <spin_locks_reset+0x18>)
1000125e:	f3bf 8f5f 	dmb	sy
10001262:	c302      	stmia	r3!, {r1}
10001264:	4293      	cmp	r3, r2
10001266:	d1fa      	bne.n	1000125e <spin_locks_reset+0x6>
10001268:	4770      	bx	lr
1000126a:	46c0      	nop			@ (mov r8, r8)
1000126c:	d0000100 	.word	0xd0000100
10001270:	d0000180 	.word	0xd0000180

10001274 <runtime_init_per_core_irq_priorities>:
10001274:	4b05      	ldr	r3, [pc, #20]	@ (1000128c <runtime_init_per_core_irq_priorities+0x18>)
10001276:	4a06      	ldr	r2, [pc, #24]	@ (10001290 <runtime_init_per_core_irq_priorities+0x1c>)
10001278:	6013      	str	r3, [r2, #0]
1000127a:	4a06      	ldr	r2, [pc, #24]	@ (10001294 <runtime_init_per_core_irq_priorities+0x20>)
1000127c:	6013      	str	r3, [r2, #0]
1000127e:	6053      	str	r3, [r2, #4]
10001280:	6093      	str	r3, [r2, #8]
10001282:	60d3      	str	r3, [r2, #12]
10001284:	6113      	str	r3, [r2, #16]
10001286:	6153      	str	r3, [r2, #20]
10001288:	6193      	str	r3, [r2, #24]
1000128a:	4770      	bx	lr
1000128c:	80808080 	.word	0x80808080
10001290:	e000e400 	.word	0xe000e400
10001294:	e000e404 	.word	0xe000e404

10001298 <irq_set_enabled>:
10001298:	231f      	movs	r3, #31
1000129a:	4018      	ands	r0, r3
1000129c:	3b1e      	subs	r3, #30
1000129e:	4083      	lsls	r3, r0
100012a0:	2900      	cmp	r1, #0
100012a2:	d005      	beq.n	100012b0 <irq_set_enabled+0x18>
100012a4:	21c0      	movs	r1, #192	@ 0xc0
100012a6:	4a04      	ldr	r2, [pc, #16]	@ (100012b8 <irq_set_enabled+0x20>)
100012a8:	0049      	lsls	r1, r1, #1
100012aa:	5053      	str	r3, [r2, r1]
100012ac:	6013      	str	r3, [r2, #0]
100012ae:	4770      	bx	lr
100012b0:	2280      	movs	r2, #128	@ 0x80
100012b2:	4901      	ldr	r1, [pc, #4]	@ (100012b8 <irq_set_enabled+0x20>)
100012b4:	508b      	str	r3, [r1, r2]
100012b6:	e7fa      	b.n	100012ae <irq_set_enabled+0x16>
100012b8:	e000e100 	.word	0xe000e100

100012bc <irq_set_exclusive_handler>:
100012bc:	b570      	push	{r4, r5, r6, lr}
100012be:	000d      	movs	r5, r1
100012c0:	f3ef 8610 	mrs	r6, PRIMASK
100012c4:	b672      	cpsid	i
100012c6:	4a0f      	ldr	r2, [pc, #60]	@ (10001304 <irq_set_exclusive_handler+0x48>)
100012c8:	6813      	ldr	r3, [r2, #0]
100012ca:	2b00      	cmp	r3, #0
100012cc:	d0fc      	beq.n	100012c8 <irq_set_exclusive_handler+0xc>
100012ce:	f3bf 8f5f 	dmb	sy
100012d2:	4b0d      	ldr	r3, [pc, #52]	@ (10001308 <irq_set_exclusive_handler+0x4c>)
100012d4:	3010      	adds	r0, #16
100012d6:	689b      	ldr	r3, [r3, #8]
100012d8:	0084      	lsls	r4, r0, #2
100012da:	591b      	ldr	r3, [r3, r4]
100012dc:	4a0b      	ldr	r2, [pc, #44]	@ (1000130c <irq_set_exclusive_handler+0x50>)
100012de:	4293      	cmp	r3, r2
100012e0:	d003      	beq.n	100012ea <irq_set_exclusive_handler+0x2e>
100012e2:	429d      	cmp	r5, r3
100012e4:	d001      	beq.n	100012ea <irq_set_exclusive_handler+0x2e>
100012e6:	f000 fea3 	bl	10002030 <hard_assertion_failure>
100012ea:	4b07      	ldr	r3, [pc, #28]	@ (10001308 <irq_set_exclusive_handler+0x4c>)
100012ec:	689b      	ldr	r3, [r3, #8]
100012ee:	511d      	str	r5, [r3, r4]
100012f0:	f3bf 8f5f 	dmb	sy
100012f4:	f3bf 8f5f 	dmb	sy
100012f8:	2200      	movs	r2, #0
100012fa:	4b02      	ldr	r3, [pc, #8]	@ (10001304 <irq_set_exclusive_handler+0x48>)
100012fc:	601a      	str	r2, [r3, #0]
100012fe:	f386 8810 	msr	PRIMASK, r6
10001302:	bd70      	pop	{r4, r5, r6, pc}
10001304:	d0000124 	.word	0xd0000124
10001308:	e000ed00 	.word	0xe000ed00
1000130c:	100001cd 	.word	0x100001cd

10001310 <lock_init>:
10001310:	4b02      	ldr	r3, [pc, #8]	@ (1000131c <lock_init+0xc>)
10001312:	469c      	mov	ip, r3
10001314:	4461      	add	r1, ip
10001316:	0089      	lsls	r1, r1, #2
10001318:	6001      	str	r1, [r0, #0]
1000131a:	4770      	bx	lr
1000131c:	34000040 	.word	0x34000040

10001320 <runtime_init_mutex>:
10001320:	b5f0      	push	{r4, r5, r6, r7, lr}
10001322:	23ff      	movs	r3, #255	@ 0xff
10001324:	46c6      	mov	lr, r8
10001326:	4d14      	ldr	r5, [pc, #80]	@ (10001378 <runtime_init_mutex+0x58>)
10001328:	4f14      	ldr	r7, [pc, #80]	@ (1000137c <runtime_init_mutex+0x5c>)
1000132a:	002c      	movs	r4, r5
1000132c:	4698      	mov	r8, r3
1000132e:	b500      	push	{lr}
10001330:	42bd      	cmp	r5, r7
10001332:	d30d      	bcc.n	10001350 <runtime_init_mutex+0x30>
10001334:	e01d      	b.n	10001372 <runtime_init_mutex+0x52>
10001336:	f7ff ff83 	bl	10001240 <next_striped_spin_lock_num>
1000133a:	0001      	movs	r1, r0
1000133c:	0028      	movs	r0, r5
1000133e:	f7ff ffe7 	bl	10001310 <lock_init>
10001342:	4643      	mov	r3, r8
10001344:	80b3      	strh	r3, [r6, #4]
10001346:	f3bf 8f5f 	dmb	sy
1000134a:	42bc      	cmp	r4, r7
1000134c:	d211      	bcs.n	10001372 <runtime_init_mutex+0x52>
1000134e:	0025      	movs	r5, r4
10001350:	6823      	ldr	r3, [r4, #0]
10001352:	0026      	movs	r6, r4
10001354:	3408      	adds	r4, #8
10001356:	2b00      	cmp	r3, #0
10001358:	d1ed      	bne.n	10001336 <runtime_init_mutex+0x16>
1000135a:	f7ff ff71 	bl	10001240 <next_striped_spin_lock_num>
1000135e:	0001      	movs	r1, r0
10001360:	0028      	movs	r0, r5
10001362:	f7ff ffd5 	bl	10001310 <lock_init>
10001366:	4643      	mov	r3, r8
10001368:	7133      	strb	r3, [r6, #4]
1000136a:	f3bf 8f5f 	dmb	sy
1000136e:	42bc      	cmp	r4, r7
10001370:	d3ed      	bcc.n	1000134e <runtime_init_mutex+0x2e>
10001372:	bc80      	pop	{r7}
10001374:	46b8      	mov	r8, r7
10001376:	bdf0      	pop	{r4, r5, r6, r7, pc}
10001378:	20000890 	.word	0x20000890
1000137c:	20000898 	.word	0x20000898

10001380 <sleep_until_callback>:
10001380:	4b0a      	ldr	r3, [pc, #40]	@ (100013ac <sleep_until_callback+0x2c>)
10001382:	6819      	ldr	r1, [r3, #0]
10001384:	f3ef 8010 	mrs	r0, PRIMASK
10001388:	b672      	cpsid	i
1000138a:	680a      	ldr	r2, [r1, #0]
1000138c:	2a00      	cmp	r2, #0
1000138e:	d0fc      	beq.n	1000138a <sleep_until_callback+0xa>
10001390:	f3bf 8f5f 	dmb	sy
10001394:	681b      	ldr	r3, [r3, #0]
10001396:	f3bf 8f5f 	dmb	sy
1000139a:	2200      	movs	r2, #0
1000139c:	601a      	str	r2, [r3, #0]
1000139e:	f380 8810 	msr	PRIMASK, r0
100013a2:	bf40      	sev
100013a4:	2000      	movs	r0, #0
100013a6:	2100      	movs	r1, #0
100013a8:	4770      	bx	lr
100013aa:	46c0      	nop			@ (mov r8, r8)
100013ac:	20000e98 	.word	0x20000e98

100013b0 <alarm_pool_irq_handler>:
100013b0:	b5f0      	push	{r4, r5, r6, r7, lr}
100013b2:	46de      	mov	lr, fp
100013b4:	4657      	mov	r7, sl
100013b6:	464e      	mov	r6, r9
100013b8:	4645      	mov	r5, r8
100013ba:	b5e0      	push	{r5, r6, r7, lr}
100013bc:	b085      	sub	sp, #20
100013be:	f3ef 8205 	mrs	r2, IPSR
100013c2:	2303      	movs	r3, #3
100013c4:	4013      	ands	r3, r2
100013c6:	4ab5      	ldr	r2, [pc, #724]	@ (1000169c <alarm_pool_irq_handler+0x2ec>)
100013c8:	0099      	lsls	r1, r3, #2
100013ca:	5857      	ldr	r7, [r2, r1]
100013cc:	2201      	movs	r2, #1
100013ce:	409a      	lsls	r2, r3
100013d0:	4688      	mov	r8, r1
100013d2:	4693      	mov	fp, r2
100013d4:	4bb2      	ldr	r3, [pc, #712]	@ (100016a0 <alarm_pool_irq_handler+0x2f0>)
100013d6:	601a      	str	r2, [r3, #0]
100013d8:	4bb2      	ldr	r3, [pc, #712]	@ (100016a4 <alarm_pool_irq_handler+0x2f4>)
100013da:	9302      	str	r3, [sp, #8]
100013dc:	465b      	mov	r3, fp
100013de:	48b2      	ldr	r0, [pc, #712]	@ (100016a8 <alarm_pool_irq_handler+0x2f8>)
100013e0:	6343      	str	r3, [r0, #52]	@ 0x34
100013e2:	2308      	movs	r3, #8
100013e4:	5efe      	ldrsh	r6, [r7, r3]
100013e6:	2e00      	cmp	r6, #0
100013e8:	da35      	bge.n	10001456 <alarm_pool_irq_handler+0xa6>
100013ea:	88bb      	ldrh	r3, [r7, #4]
100013ec:	b21b      	sxth	r3, r3
100013ee:	2b00      	cmp	r3, #0
100013f0:	db00      	blt.n	100013f4 <alarm_pool_irq_handler+0x44>
100013f2:	e0a8      	b.n	10001546 <alarm_pool_irq_handler+0x196>
100013f4:	79bb      	ldrb	r3, [r7, #6]
100013f6:	2b00      	cmp	r3, #0
100013f8:	d000      	beq.n	100013fc <alarm_pool_irq_handler+0x4c>
100013fa:	e0e9      	b.n	100015d0 <alarm_pool_irq_handler+0x220>
100013fc:	2308      	movs	r3, #8
100013fe:	5ef8      	ldrsh	r0, [r7, r3]
10001400:	2800      	cmp	r0, #0
10001402:	db1e      	blt.n	10001442 <alarm_pool_irq_handler+0x92>
10001404:	0043      	lsls	r3, r0, #1
10001406:	697a      	ldr	r2, [r7, #20]
10001408:	181b      	adds	r3, r3, r0
1000140a:	00db      	lsls	r3, r3, #3
1000140c:	18d3      	adds	r3, r2, r3
1000140e:	689d      	ldr	r5, [r3, #8]
10001410:	68dc      	ldr	r4, [r3, #12]
10001412:	1c6b      	adds	r3, r5, #1
10001414:	d100      	bne.n	10001418 <alarm_pool_irq_handler+0x68>
10001416:	e108      	b.n	1000162a <alarm_pool_irq_handler+0x27a>
10001418:	48a3      	ldr	r0, [pc, #652]	@ (100016a8 <alarm_pool_irq_handler+0x2f8>)
1000141a:	0001      	movs	r1, r0
1000141c:	4441      	add	r1, r8
1000141e:	6a82      	ldr	r2, [r0, #40]	@ 0x28
10001420:	690b      	ldr	r3, [r1, #16]
10001422:	1aae      	subs	r6, r5, r2
10001424:	1a9b      	subs	r3, r3, r2
10001426:	429e      	cmp	r6, r3
10001428:	d313      	bcc.n	10001452 <alarm_pool_irq_handler+0xa2>
1000142a:	465a      	mov	r2, fp
1000142c:	6a03      	ldr	r3, [r0, #32]
1000142e:	421a      	tst	r2, r3
10001430:	d00f      	beq.n	10001452 <alarm_pool_irq_handler+0xa2>
10001432:	489d      	ldr	r0, [pc, #628]	@ (100016a8 <alarm_pool_irq_handler+0x2f8>)
10001434:	f000 fb48 	bl	10001ac8 <timer_time_us_64>
10001438:	428c      	cmp	r4, r1
1000143a:	dc02      	bgt.n	10001442 <alarm_pool_irq_handler+0x92>
1000143c:	d1ce      	bne.n	100013dc <alarm_pool_irq_handler+0x2c>
1000143e:	4285      	cmp	r5, r0
10001440:	d9cc      	bls.n	100013dc <alarm_pool_irq_handler+0x2c>
10001442:	bf40      	sev
10001444:	b005      	add	sp, #20
10001446:	bcf0      	pop	{r4, r5, r6, r7}
10001448:	46bb      	mov	fp, r7
1000144a:	46b2      	mov	sl, r6
1000144c:	46a9      	mov	r9, r5
1000144e:	46a0      	mov	r8, r4
10001450:	bdf0      	pop	{r4, r5, r6, r7, pc}
10001452:	610d      	str	r5, [r1, #16]
10001454:	e7ed      	b.n	10001432 <alarm_pool_irq_handler+0x82>
10001456:	697a      	ldr	r2, [r7, #20]
10001458:	0073      	lsls	r3, r6, #1
1000145a:	4691      	mov	r9, r2
1000145c:	199b      	adds	r3, r3, r6
1000145e:	00db      	lsls	r3, r3, #3
10001460:	4499      	add	r9, r3
10001462:	464b      	mov	r3, r9
10001464:	689c      	ldr	r4, [r3, #8]
10001466:	68dd      	ldr	r5, [r3, #12]
10001468:	f000 fb2e 	bl	10001ac8 <timer_time_us_64>
1000146c:	428d      	cmp	r5, r1
1000146e:	dcbc      	bgt.n	100013ea <alarm_pool_irq_handler+0x3a>
10001470:	d100      	bne.n	10001474 <alarm_pool_irq_handler+0xc4>
10001472:	e0fc      	b.n	1000166e <alarm_pool_irq_handler+0x2be>
10001474:	2d00      	cmp	r5, #0
10001476:	da00      	bge.n	1000147a <alarm_pool_irq_handler+0xca>
10001478:	e0e1      	b.n	1000163e <alarm_pool_irq_handler+0x28e>
1000147a:	464a      	mov	r2, r9
1000147c:	464b      	mov	r3, r9
1000147e:	6952      	ldr	r2, [r2, #20]
10001480:	691b      	ldr	r3, [r3, #16]
10001482:	4692      	mov	sl, r2
10001484:	9a02      	ldr	r2, [sp, #8]
10001486:	4293      	cmp	r3, r2
10001488:	d100      	bne.n	1000148c <alarm_pool_irq_handler+0xdc>
1000148a:	e0d2      	b.n	10001632 <alarm_pool_irq_handler+0x282>
1000148c:	464a      	mov	r2, r9
1000148e:	2108      	movs	r1, #8
10001490:	5e78      	ldrsh	r0, [r7, r1]
10001492:	8852      	ldrh	r2, [r2, #2]
10001494:	0400      	lsls	r0, r0, #16
10001496:	4651      	mov	r1, sl
10001498:	4310      	orrs	r0, r2
1000149a:	4798      	blx	r3
1000149c:	9000      	str	r0, [sp, #0]
1000149e:	9101      	str	r1, [sp, #4]
100014a0:	9900      	ldr	r1, [sp, #0]
100014a2:	9a01      	ldr	r2, [sp, #4]
100014a4:	000b      	movs	r3, r1
100014a6:	0010      	movs	r0, r2
100014a8:	4313      	orrs	r3, r2
100014aa:	d100      	bne.n	100014ae <alarm_pool_irq_handler+0xfe>
100014ac:	e0c7      	b.n	1000163e <alarm_pool_irq_handler+0x28e>
100014ae:	0013      	movs	r3, r2
100014b0:	000a      	movs	r2, r1
100014b2:	2800      	cmp	r0, #0
100014b4:	db00      	blt.n	100014b8 <alarm_pool_irq_handler+0x108>
100014b6:	e0de      	b.n	10001676 <alarm_pool_irq_handler+0x2c6>
100014b8:	0020      	movs	r0, r4
100014ba:	0029      	movs	r1, r5
100014bc:	1a80      	subs	r0, r0, r2
100014be:	4199      	sbcs	r1, r3
100014c0:	464b      	mov	r3, r9
100014c2:	6098      	str	r0, [r3, #8]
100014c4:	60d9      	str	r1, [r3, #12]
100014c6:	2200      	movs	r2, #0
100014c8:	5e9a      	ldrsh	r2, [r3, r2]
100014ca:	2a00      	cmp	r2, #0
100014cc:	da00      	bge.n	100014d0 <alarm_pool_irq_handler+0x120>
100014ce:	e78c      	b.n	100013ea <alarm_pool_irq_handler+0x3a>
100014d0:	0053      	lsls	r3, r2, #1
100014d2:	189c      	adds	r4, r3, r2
100014d4:	697d      	ldr	r5, [r7, #20]
100014d6:	00e4      	lsls	r4, r4, #3
100014d8:	192c      	adds	r4, r5, r4
100014da:	9300      	str	r3, [sp, #0]
100014dc:	68a3      	ldr	r3, [r4, #8]
100014de:	68e4      	ldr	r4, [r4, #12]
100014e0:	469a      	mov	sl, r3
100014e2:	428c      	cmp	r4, r1
100014e4:	dd00      	ble.n	100014e8 <alarm_pool_irq_handler+0x138>
100014e6:	e780      	b.n	100013ea <alarm_pool_irq_handler+0x3a>
100014e8:	d102      	bne.n	100014f0 <alarm_pool_irq_handler+0x140>
100014ea:	4283      	cmp	r3, r0
100014ec:	d900      	bls.n	100014f0 <alarm_pool_irq_handler+0x140>
100014ee:	e77c      	b.n	100013ea <alarm_pool_irq_handler+0x3a>
100014f0:	2308      	movs	r3, #8
100014f2:	469c      	mov	ip, r3
100014f4:	44bc      	add	ip, r7
100014f6:	813a      	strh	r2, [r7, #8]
100014f8:	9703      	str	r7, [sp, #12]
100014fa:	4667      	mov	r7, ip
100014fc:	9b00      	ldr	r3, [sp, #0]
100014fe:	46b4      	mov	ip, r6
10001500:	003e      	movs	r6, r7
10001502:	e00e      	b.n	10001522 <alarm_pool_irq_handler+0x172>
10001504:	428c      	cmp	r4, r1
10001506:	d100      	bne.n	1000150a <alarm_pool_irq_handler+0x15a>
10001508:	e0c3      	b.n	10001692 <alarm_pool_irq_handler+0x2e2>
1000150a:	001e      	movs	r6, r3
1000150c:	2300      	movs	r3, #0
1000150e:	5ef2      	ldrsh	r2, [r6, r3]
10001510:	2a00      	cmp	r2, #0
10001512:	db0b      	blt.n	1000152c <alarm_pool_irq_handler+0x17c>
10001514:	0053      	lsls	r3, r2, #1
10001516:	189c      	adds	r4, r3, r2
10001518:	00e4      	lsls	r4, r4, #3
1000151a:	192c      	adds	r4, r5, r4
1000151c:	68a7      	ldr	r7, [r4, #8]
1000151e:	68e4      	ldr	r4, [r4, #12]
10001520:	46ba      	mov	sl, r7
10001522:	189b      	adds	r3, r3, r2
10001524:	00db      	lsls	r3, r3, #3
10001526:	18eb      	adds	r3, r5, r3
10001528:	428c      	cmp	r4, r1
1000152a:	ddeb      	ble.n	10001504 <alarm_pool_irq_handler+0x154>
1000152c:	0033      	movs	r3, r6
1000152e:	4666      	mov	r6, ip
10001530:	469c      	mov	ip, r3
10001532:	464b      	mov	r3, r9
10001534:	801a      	strh	r2, [r3, #0]
10001536:	4663      	mov	r3, ip
10001538:	9f03      	ldr	r7, [sp, #12]
1000153a:	801e      	strh	r6, [r3, #0]
1000153c:	88bb      	ldrh	r3, [r7, #4]
1000153e:	b21b      	sxth	r3, r3
10001540:	2b00      	cmp	r3, #0
10001542:	da00      	bge.n	10001546 <alarm_pool_irq_handler+0x196>
10001544:	e756      	b.n	100013f4 <alarm_pool_irq_handler+0x44>
10001546:	693a      	ldr	r2, [r7, #16]
10001548:	f3ef 8110 	mrs	r1, PRIMASK
1000154c:	b672      	cpsid	i
1000154e:	6813      	ldr	r3, [r2, #0]
10001550:	2b00      	cmp	r3, #0
10001552:	d0fc      	beq.n	1000154e <alarm_pool_irq_handler+0x19e>
10001554:	f3bf 8f5f 	dmb	sy
10001558:	2301      	movs	r3, #1
1000155a:	88be      	ldrh	r6, [r7, #4]
1000155c:	425b      	negs	r3, r3
1000155e:	80bb      	strh	r3, [r7, #4]
10001560:	b236      	sxth	r6, r6
10001562:	693b      	ldr	r3, [r7, #16]
10001564:	f3bf 8f5f 	dmb	sy
10001568:	2200      	movs	r2, #0
1000156a:	601a      	str	r2, [r3, #0]
1000156c:	f381 8810 	msr	PRIMASK, r1
10001570:	2e00      	cmp	r6, #0
10001572:	da00      	bge.n	10001576 <alarm_pool_irq_handler+0x1c6>
10001574:	e73e      	b.n	100013f4 <alarm_pool_irq_handler+0x44>
10001576:	003b      	movs	r3, r7
10001578:	3308      	adds	r3, #8
1000157a:	003a      	movs	r2, r7
1000157c:	4699      	mov	r9, r3
1000157e:	697d      	ldr	r5, [r7, #20]
10001580:	0073      	lsls	r3, r6, #1
10001582:	199b      	adds	r3, r3, r6
10001584:	00db      	lsls	r3, r3, #3
10001586:	18eb      	adds	r3, r5, r3
10001588:	6899      	ldr	r1, [r3, #8]
1000158a:	68dc      	ldr	r4, [r3, #12]
1000158c:	468c      	mov	ip, r1
1000158e:	2008      	movs	r0, #8
10001590:	5e11      	ldrsh	r1, [r2, r0]
10001592:	4648      	mov	r0, r9
10001594:	2900      	cmp	r1, #0
10001596:	db10      	blt.n	100015ba <alarm_pool_irq_handler+0x20a>
10001598:	9300      	str	r3, [sp, #0]
1000159a:	e006      	b.n	100015aa <alarm_pool_irq_handler+0x1fa>
1000159c:	42a3      	cmp	r3, r4
1000159e:	d040      	beq.n	10001622 <alarm_pool_irq_handler+0x272>
100015a0:	2300      	movs	r3, #0
100015a2:	5ef9      	ldrsh	r1, [r7, r3]
100015a4:	0038      	movs	r0, r7
100015a6:	2900      	cmp	r1, #0
100015a8:	db06      	blt.n	100015b8 <alarm_pool_irq_handler+0x208>
100015aa:	004f      	lsls	r7, r1, #1
100015ac:	187f      	adds	r7, r7, r1
100015ae:	00ff      	lsls	r7, r7, #3
100015b0:	19ef      	adds	r7, r5, r7
100015b2:	68fb      	ldr	r3, [r7, #12]
100015b4:	42a3      	cmp	r3, r4
100015b6:	ddf1      	ble.n	1000159c <alarm_pool_irq_handler+0x1ec>
100015b8:	9b00      	ldr	r3, [sp, #0]
100015ba:	8006      	strh	r6, [r0, #0]
100015bc:	2000      	movs	r0, #0
100015be:	5e1e      	ldrsh	r6, [r3, r0]
100015c0:	8019      	strh	r1, [r3, #0]
100015c2:	2e00      	cmp	r6, #0
100015c4:	dadc      	bge.n	10001580 <alarm_pool_irq_handler+0x1d0>
100015c6:	0017      	movs	r7, r2
100015c8:	79bb      	ldrb	r3, [r7, #6]
100015ca:	2b00      	cmp	r3, #0
100015cc:	d100      	bne.n	100015d0 <alarm_pool_irq_handler+0x220>
100015ce:	e715      	b.n	100013fc <alarm_pool_irq_handler+0x4c>
100015d0:	2300      	movs	r3, #0
100015d2:	71bb      	strb	r3, [r7, #6]
100015d4:	003d      	movs	r5, r7
100015d6:	2308      	movs	r3, #8
100015d8:	5ef9      	ldrsh	r1, [r7, r3]
100015da:	3508      	adds	r5, #8
100015dc:	1c4b      	adds	r3, r1, #1
100015de:	d100      	bne.n	100015e2 <alarm_pool_irq_handler+0x232>
100015e0:	e72f      	b.n	10001442 <alarm_pool_irq_handler+0x92>
100015e2:	697c      	ldr	r4, [r7, #20]
100015e4:	0008      	movs	r0, r1
100015e6:	46a4      	mov	ip, r4
100015e8:	e003      	b.n	100015f2 <alarm_pool_irq_handler+0x242>
100015ea:	0035      	movs	r5, r6
100015ec:	1c4b      	adds	r3, r1, #1
100015ee:	d100      	bne.n	100015f2 <alarm_pool_irq_handler+0x242>
100015f0:	e706      	b.n	10001400 <alarm_pool_irq_handler+0x50>
100015f2:	004b      	lsls	r3, r1, #1
100015f4:	185b      	adds	r3, r3, r1
100015f6:	000a      	movs	r2, r1
100015f8:	4661      	mov	r1, ip
100015fa:	00db      	lsls	r3, r3, #3
100015fc:	18ce      	adds	r6, r1, r3
100015fe:	5ec9      	ldrsh	r1, [r1, r3]
10001600:	8873      	ldrh	r3, [r6, #2]
10001602:	b21b      	sxth	r3, r3
10001604:	2b00      	cmp	r3, #0
10001606:	daf0      	bge.n	100015ea <alarm_pool_irq_handler+0x23a>
10001608:	2301      	movs	r3, #1
1000160a:	425b      	negs	r3, r3
1000160c:	17dc      	asrs	r4, r3, #31
1000160e:	60b3      	str	r3, [r6, #8]
10001610:	60f4      	str	r4, [r6, #12]
10001612:	4282      	cmp	r2, r0
10001614:	d0ea      	beq.n	100015ec <alarm_pool_irq_handler+0x23c>
10001616:	8029      	strh	r1, [r5, #0]
10001618:	893b      	ldrh	r3, [r7, #8]
1000161a:	0010      	movs	r0, r2
1000161c:	8033      	strh	r3, [r6, #0]
1000161e:	813a      	strh	r2, [r7, #8]
10001620:	e7e4      	b.n	100015ec <alarm_pool_irq_handler+0x23c>
10001622:	68bb      	ldr	r3, [r7, #8]
10001624:	4563      	cmp	r3, ip
10001626:	d9bb      	bls.n	100015a0 <alarm_pool_irq_handler+0x1f0>
10001628:	e7c6      	b.n	100015b8 <alarm_pool_irq_handler+0x208>
1000162a:	1c63      	adds	r3, r4, #1
1000162c:	d000      	beq.n	10001630 <alarm_pool_irq_handler+0x280>
1000162e:	e6f3      	b.n	10001418 <alarm_pool_irq_handler+0x68>
10001630:	e6ff      	b.n	10001432 <alarm_pool_irq_handler+0x82>
10001632:	4653      	mov	r3, sl
10001634:	4650      	mov	r0, sl
10001636:	691b      	ldr	r3, [r3, #16]
10001638:	4798      	blx	r3
1000163a:	2800      	cmp	r0, #0
1000163c:	d123      	bne.n	10001686 <alarm_pool_irq_handler+0x2d6>
1000163e:	464b      	mov	r3, r9
10001640:	881b      	ldrh	r3, [r3, #0]
10001642:	693a      	ldr	r2, [r7, #16]
10001644:	813b      	strh	r3, [r7, #8]
10001646:	f3ef 8310 	mrs	r3, PRIMASK
1000164a:	b672      	cpsid	i
1000164c:	6811      	ldr	r1, [r2, #0]
1000164e:	2900      	cmp	r1, #0
10001650:	d0fc      	beq.n	1000164c <alarm_pool_irq_handler+0x29c>
10001652:	f3bf 8f5f 	dmb	sy
10001656:	4649      	mov	r1, r9
10001658:	887a      	ldrh	r2, [r7, #2]
1000165a:	800a      	strh	r2, [r1, #0]
1000165c:	693a      	ldr	r2, [r7, #16]
1000165e:	807e      	strh	r6, [r7, #2]
10001660:	f3bf 8f5f 	dmb	sy
10001664:	2100      	movs	r1, #0
10001666:	6011      	str	r1, [r2, #0]
10001668:	f383 8810 	msr	PRIMASK, r3
1000166c:	e6bd      	b.n	100013ea <alarm_pool_irq_handler+0x3a>
1000166e:	4284      	cmp	r4, r0
10001670:	d800      	bhi.n	10001674 <alarm_pool_irq_handler+0x2c4>
10001672:	e6ff      	b.n	10001474 <alarm_pool_irq_handler+0xc4>
10001674:	e6b9      	b.n	100013ea <alarm_pool_irq_handler+0x3a>
10001676:	480c      	ldr	r0, [pc, #48]	@ (100016a8 <alarm_pool_irq_handler+0x2f8>)
10001678:	f000 fa26 	bl	10001ac8 <timer_time_us_64>
1000167c:	9b00      	ldr	r3, [sp, #0]
1000167e:	9c01      	ldr	r4, [sp, #4]
10001680:	18c0      	adds	r0, r0, r3
10001682:	4161      	adcs	r1, r4
10001684:	e71c      	b.n	100014c0 <alarm_pool_irq_handler+0x110>
10001686:	4653      	mov	r3, sl
10001688:	681a      	ldr	r2, [r3, #0]
1000168a:	685b      	ldr	r3, [r3, #4]
1000168c:	9200      	str	r2, [sp, #0]
1000168e:	9301      	str	r3, [sp, #4]
10001690:	e706      	b.n	100014a0 <alarm_pool_irq_handler+0xf0>
10001692:	4582      	cmp	sl, r0
10001694:	d800      	bhi.n	10001698 <alarm_pool_irq_handler+0x2e8>
10001696:	e738      	b.n	1000150a <alarm_pool_irq_handler+0x15a>
10001698:	e748      	b.n	1000152c <alarm_pool_irq_handler+0x17c>
1000169a:	46c0      	nop			@ (mov r8, r8)
1000169c:	20000e84 	.word	0x20000e84
100016a0:	4005703c 	.word	0x4005703c
100016a4:	100013b1 	.word	0x100013b1
100016a8:	40054000 	.word	0x40054000

100016ac <runtime_init_default_alarm_pool>:
100016ac:	b570      	push	{r4, r5, r6, lr}
100016ae:	4c2e      	ldr	r4, [pc, #184]	@ (10001768 <runtime_init_default_alarm_pool+0xbc>)
100016b0:	6925      	ldr	r5, [r4, #16]
100016b2:	2d00      	cmp	r5, #0
100016b4:	d004      	beq.n	100016c0 <runtime_init_default_alarm_pool+0x14>
100016b6:	210a      	movs	r1, #10
100016b8:	482c      	ldr	r0, [pc, #176]	@ (1000176c <runtime_init_default_alarm_pool+0xc0>)
100016ba:	f7ff fe29 	bl	10001310 <lock_init>
100016be:	bd70      	pop	{r4, r5, r6, pc}
100016c0:	4e2b      	ldr	r6, [pc, #172]	@ (10001770 <runtime_init_default_alarm_pool+0xc4>)
100016c2:	2103      	movs	r1, #3
100016c4:	0030      	movs	r0, r6
100016c6:	f000 f9f5 	bl	10001ab4 <timer_hardware_alarm_claim>
100016ca:	60e6      	str	r6, [r4, #12]
100016cc:	f7ff fdb8 	bl	10001240 <next_striped_spin_lock_num>
100016d0:	4b28      	ldr	r3, [pc, #160]	@ (10001774 <runtime_init_default_alarm_pool+0xc8>)
100016d2:	2203      	movs	r2, #3
100016d4:	469c      	mov	ip, r3
100016d6:	23d0      	movs	r3, #208	@ 0xd0
100016d8:	7022      	strb	r2, [r4, #0]
100016da:	061b      	lsls	r3, r3, #24
100016dc:	681b      	ldr	r3, [r3, #0]
100016de:	2101      	movs	r1, #1
100016e0:	7063      	strb	r3, [r4, #1]
100016e2:	4b25      	ldr	r3, [pc, #148]	@ (10001778 <runtime_init_default_alarm_pool+0xcc>)
100016e4:	4460      	add	r0, ip
100016e6:	60a3      	str	r3, [r4, #8]
100016e8:	230f      	movs	r3, #15
100016ea:	0080      	lsls	r0, r0, #2
100016ec:	6120      	str	r0, [r4, #16]
100016ee:	2002      	movs	r0, #2
100016f0:	8063      	strh	r3, [r4, #2]
100016f2:	6963      	ldr	r3, [r4, #20]
100016f4:	4249      	negs	r1, r1
100016f6:	80a1      	strh	r1, [r4, #4]
100016f8:	8019      	strh	r1, [r3, #0]
100016fa:	3102      	adds	r1, #2
100016fc:	8619      	strh	r1, [r3, #48]	@ 0x30
100016fe:	3147      	adds	r1, #71	@ 0x47
10001700:	831d      	strh	r5, [r3, #24]
10001702:	5258      	strh	r0, [r3, r1]
10001704:	3118      	adds	r1, #24
10001706:	525a      	strh	r2, [r3, r1]
10001708:	3275      	adds	r2, #117	@ 0x75
1000170a:	395c      	subs	r1, #92	@ 0x5c
1000170c:	5299      	strh	r1, [r3, r2]
1000170e:	3218      	adds	r2, #24
10001710:	3101      	adds	r1, #1
10001712:	5299      	strh	r1, [r3, r2]
10001714:	3218      	adds	r2, #24
10001716:	3101      	adds	r1, #1
10001718:	5299      	strh	r1, [r3, r2]
1000171a:	3218      	adds	r2, #24
1000171c:	3101      	adds	r1, #1
1000171e:	5299      	strh	r1, [r3, r2]
10001720:	3508      	adds	r5, #8
10001722:	3218      	adds	r2, #24
10001724:	529d      	strh	r5, [r3, r2]
10001726:	3102      	adds	r1, #2
10001728:	3218      	adds	r2, #24
1000172a:	5299      	strh	r1, [r3, r2]
1000172c:	3218      	adds	r2, #24
1000172e:	3101      	adds	r1, #1
10001730:	5299      	strh	r1, [r3, r2]
10001732:	3218      	adds	r2, #24
10001734:	3101      	adds	r1, #1
10001736:	5299      	strh	r1, [r3, r2]
10001738:	3218      	adds	r2, #24
1000173a:	3101      	adds	r1, #1
1000173c:	5299      	strh	r1, [r3, r2]
1000173e:	3218      	adds	r2, #24
10001740:	3101      	adds	r1, #1
10001742:	5299      	strh	r1, [r3, r2]
10001744:	3218      	adds	r2, #24
10001746:	3101      	adds	r1, #1
10001748:	5299      	strh	r1, [r3, r2]
1000174a:	4b0c      	ldr	r3, [pc, #48]	@ (1000177c <runtime_init_default_alarm_pool+0xd0>)
1000174c:	490c      	ldr	r1, [pc, #48]	@ (10001780 <runtime_init_default_alarm_pool+0xd4>)
1000174e:	60dc      	str	r4, [r3, #12]
10001750:	3001      	adds	r0, #1
10001752:	6235      	str	r5, [r6, #32]
10001754:	f7ff fdb2 	bl	100012bc <irq_set_exclusive_handler>
10001758:	2101      	movs	r1, #1
1000175a:	2003      	movs	r0, #3
1000175c:	f7ff fd9c 	bl	10001298 <irq_set_enabled>
10001760:	4b08      	ldr	r3, [pc, #32]	@ (10001784 <runtime_init_default_alarm_pool+0xd8>)
10001762:	601d      	str	r5, [r3, #0]
10001764:	e7a7      	b.n	100016b6 <runtime_init_default_alarm_pool+0xa>
10001766:	46c0      	nop			@ (mov r8, r8)
10001768:	200001b0 	.word	0x200001b0
1000176c:	20000e98 	.word	0x20000e98
10001770:	40054000 	.word	0x40054000
10001774:	34000040 	.word	0x34000040
10001778:	0010ffff 	.word	0x0010ffff
1000177c:	20000e84 	.word	0x20000e84
10001780:	100013b1 	.word	0x100013b1
10001784:	40056038 	.word	0x40056038

10001788 <alarm_pool_add_alarm_at_force_in_context>:
10001788:	b570      	push	{r4, r5, r6, lr}
1000178a:	0001      	movs	r1, r0
1000178c:	6904      	ldr	r4, [r0, #16]
1000178e:	f3ef 8c10 	mrs	ip, PRIMASK
10001792:	b672      	cpsid	i
10001794:	6820      	ldr	r0, [r4, #0]
10001796:	2800      	cmp	r0, #0
10001798:	d0fc      	beq.n	10001794 <alarm_pool_add_alarm_at_force_in_context+0xc>
1000179a:	f3bf 8f5f 	dmb	sy
1000179e:	2002      	movs	r0, #2
100017a0:	5e0d      	ldrsh	r5, [r1, r0]
100017a2:	694c      	ldr	r4, [r1, #20]
100017a4:	0068      	lsls	r0, r5, #1
100017a6:	1940      	adds	r0, r0, r5
100017a8:	00c0      	lsls	r0, r0, #3
100017aa:	1824      	adds	r4, r4, r0
100017ac:	2d00      	cmp	r5, #0
100017ae:	db37      	blt.n	10001820 <alarm_pool_add_alarm_at_force_in_context+0x98>
100017b0:	8820      	ldrh	r0, [r4, #0]
100017b2:	8048      	strh	r0, [r1, #2]
100017b4:	6908      	ldr	r0, [r1, #16]
100017b6:	f3bf 8f5f 	dmb	sy
100017ba:	2600      	movs	r6, #0
100017bc:	6006      	str	r6, [r0, #0]
100017be:	f38c 8810 	msr	PRIMASK, ip
100017c2:	60e3      	str	r3, [r4, #12]
100017c4:	8863      	ldrh	r3, [r4, #2]
100017c6:	9804      	ldr	r0, [sp, #16]
100017c8:	3301      	adds	r3, #1
100017ca:	6120      	str	r0, [r4, #16]
100017cc:	045b      	lsls	r3, r3, #17
100017ce:	9805      	ldr	r0, [sp, #20]
100017d0:	0c5b      	lsrs	r3, r3, #17
100017d2:	60a2      	str	r2, [r4, #8]
100017d4:	6160      	str	r0, [r4, #20]
100017d6:	1c1a      	adds	r2, r3, #0
100017d8:	2b00      	cmp	r3, #0
100017da:	d01f      	beq.n	1000181c <alarm_pool_add_alarm_at_force_in_context+0x94>
100017dc:	b293      	uxth	r3, r2
100017de:	0428      	lsls	r0, r5, #16
100017e0:	8062      	strh	r2, [r4, #2]
100017e2:	4318      	orrs	r0, r3
100017e4:	690a      	ldr	r2, [r1, #16]
100017e6:	f3ef 8c10 	mrs	ip, PRIMASK
100017ea:	b672      	cpsid	i
100017ec:	6813      	ldr	r3, [r2, #0]
100017ee:	2b00      	cmp	r3, #0
100017f0:	d0fc      	beq.n	100017ec <alarm_pool_add_alarm_at_force_in_context+0x64>
100017f2:	f3bf 8f5f 	dmb	sy
100017f6:	888b      	ldrh	r3, [r1, #4]
100017f8:	8023      	strh	r3, [r4, #0]
100017fa:	808d      	strh	r5, [r1, #4]
100017fc:	690b      	ldr	r3, [r1, #16]
100017fe:	f3bf 8f5f 	dmb	sy
10001802:	2200      	movs	r2, #0
10001804:	601a      	str	r2, [r3, #0]
10001806:	f38c 8810 	msr	PRIMASK, ip
1000180a:	780b      	ldrb	r3, [r1, #0]
1000180c:	3201      	adds	r2, #1
1000180e:	409a      	lsls	r2, r3
10001810:	68cb      	ldr	r3, [r1, #12]
10001812:	4908      	ldr	r1, [pc, #32]	@ (10001834 <alarm_pool_add_alarm_at_force_in_context+0xac>)
10001814:	468c      	mov	ip, r1
10001816:	4463      	add	r3, ip
10001818:	601a      	str	r2, [r3, #0]
1000181a:	bd70      	pop	{r4, r5, r6, pc}
1000181c:	2201      	movs	r2, #1
1000181e:	e7dd      	b.n	100017dc <alarm_pool_add_alarm_at_force_in_context+0x54>
10001820:	690b      	ldr	r3, [r1, #16]
10001822:	f3bf 8f5f 	dmb	sy
10001826:	2200      	movs	r2, #0
10001828:	601a      	str	r2, [r3, #0]
1000182a:	f38c 8810 	msr	PRIMASK, ip
1000182e:	2001      	movs	r0, #1
10001830:	4240      	negs	r0, r0
10001832:	e7f2      	b.n	1000181a <alarm_pool_add_alarm_at_force_in_context+0x92>
10001834:	0000203c 	.word	0x0000203c

10001838 <alarm_pool_cancel_alarm>:
10001838:	b510      	push	{r4, lr}
1000183a:	8943      	ldrh	r3, [r0, #10]
1000183c:	140a      	asrs	r2, r1, #16
1000183e:	4293      	cmp	r3, r2
10001840:	dd1a      	ble.n	10001878 <alarm_pool_cancel_alarm+0x40>
10001842:	0053      	lsls	r3, r2, #1
10001844:	189b      	adds	r3, r3, r2
10001846:	6942      	ldr	r2, [r0, #20]
10001848:	00db      	lsls	r3, r3, #3
1000184a:	18d3      	adds	r3, r2, r3
1000184c:	6904      	ldr	r4, [r0, #16]
1000184e:	f3ef 8c10 	mrs	ip, PRIMASK
10001852:	b672      	cpsid	i
10001854:	6822      	ldr	r2, [r4, #0]
10001856:	2a00      	cmp	r2, #0
10001858:	d0fc      	beq.n	10001854 <alarm_pool_cancel_alarm+0x1c>
1000185a:	f3bf 8f5f 	dmb	sy
1000185e:	885a      	ldrh	r2, [r3, #2]
10001860:	0409      	lsls	r1, r1, #16
10001862:	b294      	uxth	r4, r2
10001864:	0c09      	lsrs	r1, r1, #16
10001866:	428a      	cmp	r2, r1
10001868:	d008      	beq.n	1000187c <alarm_pool_cancel_alarm+0x44>
1000186a:	6903      	ldr	r3, [r0, #16]
1000186c:	f3bf 8f5f 	dmb	sy
10001870:	2200      	movs	r2, #0
10001872:	601a      	str	r2, [r3, #0]
10001874:	f38c 8810 	msr	PRIMASK, ip
10001878:	2000      	movs	r0, #0
1000187a:	bd10      	pop	{r4, pc}
1000187c:	2280      	movs	r2, #128	@ 0x80
1000187e:	0212      	lsls	r2, r2, #8
10001880:	4314      	orrs	r4, r2
10001882:	805c      	strh	r4, [r3, #2]
10001884:	2301      	movs	r3, #1
10001886:	6902      	ldr	r2, [r0, #16]
10001888:	7183      	strb	r3, [r0, #6]
1000188a:	f3bf 8f5f 	dmb	sy
1000188e:	2100      	movs	r1, #0
10001890:	6011      	str	r1, [r2, #0]
10001892:	f38c 8810 	msr	PRIMASK, ip
10001896:	4904      	ldr	r1, [pc, #16]	@ (100018a8 <alarm_pool_cancel_alarm+0x70>)
10001898:	7802      	ldrb	r2, [r0, #0]
1000189a:	468c      	mov	ip, r1
1000189c:	4093      	lsls	r3, r2
1000189e:	68c2      	ldr	r2, [r0, #12]
100018a0:	2001      	movs	r0, #1
100018a2:	4462      	add	r2, ip
100018a4:	6013      	str	r3, [r2, #0]
100018a6:	e7e8      	b.n	1000187a <alarm_pool_cancel_alarm+0x42>
100018a8:	0000203c 	.word	0x0000203c

100018ac <sleep_until>:
100018ac:	b5f0      	push	{r4, r5, r6, r7, lr}
100018ae:	0004      	movs	r4, r0
100018b0:	000d      	movs	r5, r1
100018b2:	2606      	movs	r6, #6
100018b4:	4276      	negs	r6, r6
100018b6:	17f7      	asrs	r7, r6, #31
100018b8:	46c6      	mov	lr, r8
100018ba:	1936      	adds	r6, r6, r4
100018bc:	416f      	adcs	r7, r5
100018be:	b500      	push	{lr}
100018c0:	b082      	sub	sp, #8
100018c2:	428f      	cmp	r7, r1
100018c4:	d814      	bhi.n	100018f0 <sleep_until+0x44>
100018c6:	d011      	beq.n	100018ec <sleep_until+0x40>
100018c8:	f000 f906 	bl	10001ad8 <time_us_64>
100018cc:	0032      	movs	r2, r6
100018ce:	003b      	movs	r3, r7
100018d0:	1a12      	subs	r2, r2, r0
100018d2:	418b      	sbcs	r3, r1
100018d4:	2b00      	cmp	r3, #0
100018d6:	dc17      	bgt.n	10001908 <sleep_until+0x5c>
100018d8:	2b00      	cmp	r3, #0
100018da:	d047      	beq.n	1000196c <sleep_until+0xc0>
100018dc:	0020      	movs	r0, r4
100018de:	0029      	movs	r1, r5
100018e0:	f000 f938 	bl	10001b54 <busy_wait_until>
100018e4:	b002      	add	sp, #8
100018e6:	bc80      	pop	{r7}
100018e8:	46b8      	mov	r8, r7
100018ea:	bdf0      	pop	{r4, r5, r6, r7, pc}
100018ec:	4286      	cmp	r6, r0
100018ee:	d9eb      	bls.n	100018c8 <sleep_until+0x1c>
100018f0:	2200      	movs	r2, #0
100018f2:	2300      	movs	r3, #0
100018f4:	0016      	movs	r6, r2
100018f6:	001f      	movs	r7, r3
100018f8:	f000 f8ee 	bl	10001ad8 <time_us_64>
100018fc:	0032      	movs	r2, r6
100018fe:	003b      	movs	r3, r7
10001900:	1a12      	subs	r2, r2, r0
10001902:	418b      	sbcs	r3, r1
10001904:	2b00      	cmp	r3, #0
10001906:	dde7      	ble.n	100018d8 <sleep_until+0x2c>
10001908:	f000 f8e6 	bl	10001ad8 <time_us_64>
1000190c:	0032      	movs	r2, r6
1000190e:	003b      	movs	r3, r7
10001910:	1a12      	subs	r2, r2, r0
10001912:	418b      	sbcs	r3, r1
10001914:	2b00      	cmp	r3, #0
10001916:	db0a      	blt.n	1000192e <sleep_until+0x82>
10001918:	2300      	movs	r3, #0
1000191a:	9301      	str	r3, [sp, #4]
1000191c:	4b15      	ldr	r3, [pc, #84]	@ (10001974 <sleep_until+0xc8>)
1000191e:	0032      	movs	r2, r6
10001920:	9300      	str	r3, [sp, #0]
10001922:	4815      	ldr	r0, [pc, #84]	@ (10001978 <sleep_until+0xcc>)
10001924:	003b      	movs	r3, r7
10001926:	f7ff ff2f 	bl	10001788 <alarm_pool_add_alarm_at_force_in_context>
1000192a:	2800      	cmp	r0, #0
1000192c:	dbd6      	blt.n	100018dc <sleep_until+0x30>
1000192e:	2300      	movs	r3, #0
10001930:	469c      	mov	ip, r3
10001932:	46b0      	mov	r8, r6
10001934:	4a11      	ldr	r2, [pc, #68]	@ (1000197c <sleep_until+0xd0>)
10001936:	4e12      	ldr	r6, [pc, #72]	@ (10001980 <sleep_until+0xd4>)
10001938:	6a73      	ldr	r3, [r6, #36]	@ 0x24
1000193a:	429f      	cmp	r7, r3
1000193c:	d804      	bhi.n	10001948 <sleep_until+0x9c>
1000193e:	6ab1      	ldr	r1, [r6, #40]	@ 0x28
10001940:	4541      	cmp	r1, r8
10001942:	d2cb      	bcs.n	100018dc <sleep_until+0x30>
10001944:	429f      	cmp	r7, r3
10001946:	d1c9      	bne.n	100018dc <sleep_until+0x30>
10001948:	6811      	ldr	r1, [r2, #0]
1000194a:	f3ef 8010 	mrs	r0, PRIMASK
1000194e:	b672      	cpsid	i
10001950:	680b      	ldr	r3, [r1, #0]
10001952:	2b00      	cmp	r3, #0
10001954:	d0fc      	beq.n	10001950 <sleep_until+0xa4>
10001956:	f3bf 8f5f 	dmb	sy
1000195a:	6813      	ldr	r3, [r2, #0]
1000195c:	f3bf 8f5f 	dmb	sy
10001960:	4661      	mov	r1, ip
10001962:	6019      	str	r1, [r3, #0]
10001964:	f380 8810 	msr	PRIMASK, r0
10001968:	bf20      	wfe
1000196a:	e7e5      	b.n	10001938 <sleep_until+0x8c>
1000196c:	2a00      	cmp	r2, #0
1000196e:	d0b5      	beq.n	100018dc <sleep_until+0x30>
10001970:	e7ca      	b.n	10001908 <sleep_until+0x5c>
10001972:	46c0      	nop			@ (mov r8, r8)
10001974:	10001381 	.word	0x10001381
10001978:	200001b0 	.word	0x200001b0
1000197c:	20000e98 	.word	0x20000e98
10001980:	40054000 	.word	0x40054000

10001984 <sleep_ms>:
10001984:	b570      	push	{r4, r5, r6, lr}
10001986:	0006      	movs	r6, r0
10001988:	f000 f8a6 	bl	10001ad8 <time_us_64>
1000198c:	22fa      	movs	r2, #250	@ 0xfa
1000198e:	0004      	movs	r4, r0
10001990:	000d      	movs	r5, r1
10001992:	2300      	movs	r3, #0
10001994:	0030      	movs	r0, r6
10001996:	2100      	movs	r1, #0
10001998:	0092      	lsls	r2, r2, #2
1000199a:	f001 fb41 	bl	10003020 <__wrap___aeabi_lmul>
1000199e:	2380      	movs	r3, #128	@ 0x80
100019a0:	1900      	adds	r0, r0, r4
100019a2:	4169      	adcs	r1, r5
100019a4:	061b      	lsls	r3, r3, #24
100019a6:	4299      	cmp	r1, r3
100019a8:	d302      	bcc.n	100019b0 <sleep_ms+0x2c>
100019aa:	2001      	movs	r0, #1
100019ac:	4902      	ldr	r1, [pc, #8]	@ (100019b8 <sleep_ms+0x34>)
100019ae:	4240      	negs	r0, r0
100019b0:	f7ff ff7c 	bl	100018ac <sleep_until>
100019b4:	bd70      	pop	{r4, r5, r6, pc}
100019b6:	46c0      	nop			@ (mov r8, r8)
100019b8:	7fffffff 	.word	0x7fffffff

100019bc <best_effort_wfe_or_timeout>:
100019bc:	b5f0      	push	{r4, r5, r6, r7, lr}
100019be:	46d6      	mov	lr, sl
100019c0:	464f      	mov	r7, r9
100019c2:	4646      	mov	r6, r8
100019c4:	b5c0      	push	{r6, r7, lr}
100019c6:	0004      	movs	r4, r0
100019c8:	000d      	movs	r5, r1
100019ca:	b082      	sub	sp, #8
100019cc:	f3ef 8705 	mrs	r7, IPSR
100019d0:	4689      	mov	r9, r1
100019d2:	2f00      	cmp	r7, #0
100019d4:	d00e      	beq.n	100019f4 <best_effort_wfe_or_timeout+0x38>
100019d6:	4934      	ldr	r1, [pc, #208]	@ (10001aa8 <best_effort_wfe_or_timeout+0xec>)
100019d8:	2000      	movs	r0, #0
100019da:	6a4b      	ldr	r3, [r1, #36]	@ 0x24
100019dc:	42ab      	cmp	r3, r5
100019de:	d303      	bcc.n	100019e8 <best_effort_wfe_or_timeout+0x2c>
100019e0:	6a8a      	ldr	r2, [r1, #40]	@ 0x28
100019e2:	3001      	adds	r0, #1
100019e4:	42a2      	cmp	r2, r4
100019e6:	d326      	bcc.n	10001a36 <best_effort_wfe_or_timeout+0x7a>
100019e8:	b002      	add	sp, #8
100019ea:	bce0      	pop	{r5, r6, r7}
100019ec:	46ba      	mov	sl, r7
100019ee:	46b1      	mov	r9, r6
100019f0:	46a8      	mov	r8, r5
100019f2:	bdf0      	pop	{r4, r5, r6, r7, pc}
100019f4:	4b2d      	ldr	r3, [pc, #180]	@ (10001aac <best_effort_wfe_or_timeout+0xf0>)
100019f6:	4698      	mov	r8, r3
100019f8:	68db      	ldr	r3, [r3, #12]
100019fa:	469a      	mov	sl, r3
100019fc:	4643      	mov	r3, r8
100019fe:	4650      	mov	r0, sl
10001a00:	781e      	ldrb	r6, [r3, #0]
10001a02:	f000 f861 	bl	10001ac8 <timer_time_us_64>
10001a06:	000b      	movs	r3, r1
10001a08:	4651      	mov	r1, sl
10001a0a:	0002      	movs	r2, r0
10001a0c:	3604      	adds	r6, #4
10001a0e:	00b6      	lsls	r6, r6, #2
10001a10:	5871      	ldr	r1, [r6, r1]
10001a12:	0020      	movs	r0, r4
10001a14:	1a8e      	subs	r6, r1, r2
10001a16:	0029      	movs	r1, r5
10001a18:	1a80      	subs	r0, r0, r2
10001a1a:	4199      	sbcs	r1, r3
10001a1c:	428f      	cmp	r7, r1
10001a1e:	dc11      	bgt.n	10001a44 <best_effort_wfe_or_timeout+0x88>
10001a20:	d00e      	beq.n	10001a40 <best_effort_wfe_or_timeout+0x84>
10001a22:	bf20      	wfe
10001a24:	4a20      	ldr	r2, [pc, #128]	@ (10001aa8 <best_effort_wfe_or_timeout+0xec>)
10001a26:	2000      	movs	r0, #0
10001a28:	6a53      	ldr	r3, [r2, #36]	@ 0x24
10001a2a:	454b      	cmp	r3, r9
10001a2c:	d3dc      	bcc.n	100019e8 <best_effort_wfe_or_timeout+0x2c>
10001a2e:	6a92      	ldr	r2, [r2, #40]	@ 0x28
10001a30:	3001      	adds	r0, #1
10001a32:	42a2      	cmp	r2, r4
10001a34:	d2d8      	bcs.n	100019e8 <best_effort_wfe_or_timeout+0x2c>
10001a36:	1b5b      	subs	r3, r3, r5
10001a38:	1e5a      	subs	r2, r3, #1
10001a3a:	4193      	sbcs	r3, r2
10001a3c:	b2d8      	uxtb	r0, r3
10001a3e:	e7d3      	b.n	100019e8 <best_effort_wfe_or_timeout+0x2c>
10001a40:	4286      	cmp	r6, r0
10001a42:	d9ee      	bls.n	10001a22 <best_effort_wfe_or_timeout+0x66>
10001a44:	f000 f848 	bl	10001ad8 <time_us_64>
10001a48:	0022      	movs	r2, r4
10001a4a:	002b      	movs	r3, r5
10001a4c:	1a12      	subs	r2, r2, r0
10001a4e:	418b      	sbcs	r3, r1
10001a50:	2b00      	cmp	r3, #0
10001a52:	db1a      	blt.n	10001a8a <best_effort_wfe_or_timeout+0xce>
10001a54:	2300      	movs	r3, #0
10001a56:	9301      	str	r3, [sp, #4]
10001a58:	4b15      	ldr	r3, [pc, #84]	@ (10001ab0 <best_effort_wfe_or_timeout+0xf4>)
10001a5a:	0022      	movs	r2, r4
10001a5c:	9300      	str	r3, [sp, #0]
10001a5e:	4640      	mov	r0, r8
10001a60:	002b      	movs	r3, r5
10001a62:	f7ff fe91 	bl	10001788 <alarm_pool_add_alarm_at_force_in_context>
10001a66:	1e01      	subs	r1, r0, #0
10001a68:	dd0f      	ble.n	10001a8a <best_effort_wfe_or_timeout+0xce>
10001a6a:	4b0f      	ldr	r3, [pc, #60]	@ (10001aa8 <best_effort_wfe_or_timeout+0xec>)
10001a6c:	6a5a      	ldr	r2, [r3, #36]	@ 0x24
10001a6e:	454a      	cmp	r2, r9
10001a70:	d317      	bcc.n	10001aa2 <best_effort_wfe_or_timeout+0xe6>
10001a72:	6a9b      	ldr	r3, [r3, #40]	@ 0x28
10001a74:	42a3      	cmp	r3, r4
10001a76:	d312      	bcc.n	10001a9e <best_effort_wfe_or_timeout+0xe2>
10001a78:	4640      	mov	r0, r8
10001a7a:	f7ff fedd 	bl	10001838 <alarm_pool_cancel_alarm>
10001a7e:	4a0a      	ldr	r2, [pc, #40]	@ (10001aa8 <best_effort_wfe_or_timeout+0xec>)
10001a80:	2000      	movs	r0, #0
10001a82:	6a53      	ldr	r3, [r2, #36]	@ 0x24
10001a84:	454b      	cmp	r3, r9
10001a86:	d3af      	bcc.n	100019e8 <best_effort_wfe_or_timeout+0x2c>
10001a88:	e7d1      	b.n	10001a2e <best_effort_wfe_or_timeout+0x72>
10001a8a:	4a07      	ldr	r2, [pc, #28]	@ (10001aa8 <best_effort_wfe_or_timeout+0xec>)
10001a8c:	2000      	movs	r0, #0
10001a8e:	6a53      	ldr	r3, [r2, #36]	@ 0x24
10001a90:	454b      	cmp	r3, r9
10001a92:	d3a9      	bcc.n	100019e8 <best_effort_wfe_or_timeout+0x2c>
10001a94:	6a92      	ldr	r2, [r2, #40]	@ 0x28
10001a96:	2001      	movs	r0, #1
10001a98:	42a2      	cmp	r2, r4
10001a9a:	d2a5      	bcs.n	100019e8 <best_effort_wfe_or_timeout+0x2c>
10001a9c:	e7cb      	b.n	10001a36 <best_effort_wfe_or_timeout+0x7a>
10001a9e:	454a      	cmp	r2, r9
10001aa0:	d1ea      	bne.n	10001a78 <best_effort_wfe_or_timeout+0xbc>
10001aa2:	bf20      	wfe
10001aa4:	e7e8      	b.n	10001a78 <best_effort_wfe_or_timeout+0xbc>
10001aa6:	46c0      	nop			@ (mov r8, r8)
10001aa8:	40054000 	.word	0x40054000
10001aac:	200001b0 	.word	0x200001b0
10001ab0:	10001381 	.word	0x10001381

10001ab4 <timer_hardware_alarm_claim>:
10001ab4:	b510      	push	{r4, lr}
10001ab6:	4a02      	ldr	r2, [pc, #8]	@ (10001ac0 <timer_hardware_alarm_claim+0xc>)
10001ab8:	4802      	ldr	r0, [pc, #8]	@ (10001ac4 <timer_hardware_alarm_claim+0x10>)
10001aba:	f7ff fb9f 	bl	100011fc <hw_claim_or_assert>
10001abe:	bd10      	pop	{r4, pc}
10001ac0:	1000af14 	.word	0x1000af14
10001ac4:	20000d9c 	.word	0x20000d9c

10001ac8 <timer_time_us_64>:
10001ac8:	0003      	movs	r3, r0
10001aca:	6a41      	ldr	r1, [r0, #36]	@ 0x24
10001acc:	000a      	movs	r2, r1
10001ace:	6a98      	ldr	r0, [r3, #40]	@ 0x28
10001ad0:	6a59      	ldr	r1, [r3, #36]	@ 0x24
10001ad2:	428a      	cmp	r2, r1
10001ad4:	d1fa      	bne.n	10001acc <timer_time_us_64+0x4>
10001ad6:	4770      	bx	lr

10001ad8 <time_us_64>:
10001ad8:	4b03      	ldr	r3, [pc, #12]	@ (10001ae8 <time_us_64+0x10>)
10001ada:	6a59      	ldr	r1, [r3, #36]	@ 0x24
10001adc:	000a      	movs	r2, r1
10001ade:	6a98      	ldr	r0, [r3, #40]	@ 0x28
10001ae0:	6a59      	ldr	r1, [r3, #36]	@ 0x24
10001ae2:	4291      	cmp	r1, r2
10001ae4:	d1fa      	bne.n	10001adc <time_us_64+0x4>
10001ae6:	4770      	bx	lr
10001ae8:	40054000 	.word	0x40054000

10001aec <busy_wait_us>:
10001aec:	b570      	push	{r4, r5, r6, lr}
10001aee:	0004      	movs	r4, r0
10001af0:	000d      	movs	r5, r1
10001af2:	4a17      	ldr	r2, [pc, #92]	@ (10001b50 <busy_wait_us+0x64>)
10001af4:	6a53      	ldr	r3, [r2, #36]	@ 0x24
10001af6:	0019      	movs	r1, r3
10001af8:	6a96      	ldr	r6, [r2, #40]	@ 0x28
10001afa:	6a53      	ldr	r3, [r2, #36]	@ 0x24
10001afc:	428b      	cmp	r3, r1
10001afe:	d1fa      	bne.n	10001af6 <busy_wait_us+0xa>
10001b00:	0030      	movs	r0, r6
10001b02:	0019      	movs	r1, r3
10001b04:	1824      	adds	r4, r4, r0
10001b06:	414d      	adcs	r5, r1
10001b08:	42ab      	cmp	r3, r5
10001b0a:	d816      	bhi.n	10001b3a <busy_wait_us+0x4e>
10001b0c:	d013      	beq.n	10001b36 <busy_wait_us+0x4a>
10001b0e:	4b10      	ldr	r3, [pc, #64]	@ (10001b50 <busy_wait_us+0x64>)
10001b10:	002a      	movs	r2, r5
10001b12:	6a5b      	ldr	r3, [r3, #36]	@ 0x24
10001b14:	429d      	cmp	r5, r3
10001b16:	d903      	bls.n	10001b20 <busy_wait_us+0x34>
10001b18:	490d      	ldr	r1, [pc, #52]	@ (10001b50 <busy_wait_us+0x64>)
10001b1a:	6a4b      	ldr	r3, [r1, #36]	@ 0x24
10001b1c:	4293      	cmp	r3, r2
10001b1e:	d3fc      	bcc.n	10001b1a <busy_wait_us+0x2e>
10001b20:	4293      	cmp	r3, r2
10001b22:	d107      	bne.n	10001b34 <busy_wait_us+0x48>
10001b24:	4a0a      	ldr	r2, [pc, #40]	@ (10001b50 <busy_wait_us+0x64>)
10001b26:	e002      	b.n	10001b2e <busy_wait_us+0x42>
10001b28:	6a51      	ldr	r1, [r2, #36]	@ 0x24
10001b2a:	4299      	cmp	r1, r3
10001b2c:	d102      	bne.n	10001b34 <busy_wait_us+0x48>
10001b2e:	6a91      	ldr	r1, [r2, #40]	@ 0x28
10001b30:	42a1      	cmp	r1, r4
10001b32:	d3f9      	bcc.n	10001b28 <busy_wait_us+0x3c>
10001b34:	bd70      	pop	{r4, r5, r6, pc}
10001b36:	42a6      	cmp	r6, r4
10001b38:	d9e9      	bls.n	10001b0e <busy_wait_us+0x22>
10001b3a:	4b05      	ldr	r3, [pc, #20]	@ (10001b50 <busy_wait_us+0x64>)
10001b3c:	6a5b      	ldr	r3, [r3, #36]	@ 0x24
10001b3e:	001c      	movs	r4, r3
10001b40:	1c5a      	adds	r2, r3, #1
10001b42:	d0ef      	beq.n	10001b24 <busy_wait_us+0x38>
10001b44:	2201      	movs	r2, #1
10001b46:	2401      	movs	r4, #1
10001b48:	4264      	negs	r4, r4
10001b4a:	17e5      	asrs	r5, r4, #31
10001b4c:	4252      	negs	r2, r2
10001b4e:	e7e3      	b.n	10001b18 <busy_wait_us+0x2c>
10001b50:	40054000 	.word	0x40054000

10001b54 <busy_wait_until>:
10001b54:	4a06      	ldr	r2, [pc, #24]	@ (10001b70 <busy_wait_until+0x1c>)
10001b56:	6a53      	ldr	r3, [r2, #36]	@ 0x24
10001b58:	4299      	cmp	r1, r3
10001b5a:	d8fc      	bhi.n	10001b56 <busy_wait_until+0x2>
10001b5c:	d107      	bne.n	10001b6e <busy_wait_until+0x1a>
10001b5e:	4b04      	ldr	r3, [pc, #16]	@ (10001b70 <busy_wait_until+0x1c>)
10001b60:	e002      	b.n	10001b68 <busy_wait_until+0x14>
10001b62:	6a5a      	ldr	r2, [r3, #36]	@ 0x24
10001b64:	4291      	cmp	r1, r2
10001b66:	d102      	bne.n	10001b6e <busy_wait_until+0x1a>
10001b68:	6a9a      	ldr	r2, [r3, #40]	@ 0x28
10001b6a:	4282      	cmp	r2, r0
10001b6c:	d3f9      	bcc.n	10001b62 <busy_wait_until+0xe>
10001b6e:	4770      	bx	lr
10001b70:	40054000 	.word	0x40054000

10001b74 <uart_init>:
10001b74:	b5f8      	push	{r3, r4, r5, r6, r7, lr}
10001b76:	0004      	movs	r4, r0
10001b78:	2006      	movs	r0, #6
10001b7a:	000d      	movs	r5, r1
10001b7c:	f000 f9b2 	bl	10001ee4 <clock_get_hz>
10001b80:	2800      	cmp	r0, #0
10001b82:	d042      	beq.n	10001c0a <uart_init+0x96>
10001b84:	4b36      	ldr	r3, [pc, #216]	@ (10001c60 <uart_init+0xec>)
10001b86:	4937      	ldr	r1, [pc, #220]	@ (10001c64 <uart_init+0xf0>)
10001b88:	18e2      	adds	r2, r4, r3
10001b8a:	4253      	negs	r3, r2
10001b8c:	415a      	adcs	r2, r3
10001b8e:	2380      	movs	r3, #128	@ 0x80
10001b90:	03db      	lsls	r3, r3, #15
10001b92:	469c      	mov	ip, r3
10001b94:	0592      	lsls	r2, r2, #22
10001b96:	4b34      	ldr	r3, [pc, #208]	@ (10001c68 <uart_init+0xf4>)
10001b98:	4462      	add	r2, ip
10001b9a:	601a      	str	r2, [r3, #0]
10001b9c:	4b33      	ldr	r3, [pc, #204]	@ (10001c6c <uart_init+0xf8>)
10001b9e:	601a      	str	r2, [r3, #0]
10001ba0:	0010      	movs	r0, r2
10001ba2:	680b      	ldr	r3, [r1, #0]
10001ba4:	4398      	bics	r0, r3
10001ba6:	d1fb      	bne.n	10001ba0 <uart_init+0x2c>
10001ba8:	4b2d      	ldr	r3, [pc, #180]	@ (10001c60 <uart_init+0xec>)
10001baa:	4a31      	ldr	r2, [pc, #196]	@ (10001c70 <uart_init+0xfc>)
10001bac:	18e3      	adds	r3, r4, r3
10001bae:	4259      	negs	r1, r3
10001bb0:	414b      	adcs	r3, r1
10001bb2:	2180      	movs	r1, #128	@ 0x80
10001bb4:	005b      	lsls	r3, r3, #1
10001bb6:	0049      	lsls	r1, r1, #1
10001bb8:	2006      	movs	r0, #6
10001bba:	5299      	strh	r1, [r3, r2]
10001bbc:	f000 f992 	bl	10001ee4 <clock_get_hz>
10001bc0:	0029      	movs	r1, r5
10001bc2:	00c0      	lsls	r0, r0, #3
10001bc4:	f000 fb3a 	bl	1000223c <__wrap___aeabi_uidiv>
10001bc8:	3001      	adds	r0, #1
10001bca:	09c3      	lsrs	r3, r0, #7
10001bcc:	d11e      	bne.n	10001c0c <uart_init+0x98>
10001bce:	2740      	movs	r7, #64	@ 0x40
10001bd0:	2201      	movs	r2, #1
10001bd2:	6262      	str	r2, [r4, #36]	@ 0x24
10001bd4:	62a3      	str	r3, [r4, #40]	@ 0x28
10001bd6:	6b26      	ldr	r6, [r4, #48]	@ 0x30
10001bd8:	07f3      	lsls	r3, r6, #31
10001bda:	d422      	bmi.n	10001c22 <uart_init+0xae>
10001bdc:	6ae3      	ldr	r3, [r4, #44]	@ 0x2c
10001bde:	4b25      	ldr	r3, [pc, #148]	@ (10001c74 <uart_init+0x100>)
10001be0:	2006      	movs	r0, #6
10001be2:	18e5      	adds	r5, r4, r3
10001be4:	2300      	movs	r3, #0
10001be6:	602b      	str	r3, [r5, #0]
10001be8:	6326      	str	r6, [r4, #48]	@ 0x30
10001bea:	f000 f97b 	bl	10001ee4 <clock_get_hz>
10001bee:	0039      	movs	r1, r7
10001bf0:	0080      	lsls	r0, r0, #2
10001bf2:	f000 fb23 	bl	1000223c <__wrap___aeabi_uidiv>
10001bf6:	2370      	movs	r3, #112	@ 0x70
10001bf8:	6ae2      	ldr	r2, [r4, #44]	@ 0x2c
10001bfa:	405a      	eors	r2, r3
10001bfc:	330e      	adds	r3, #14
10001bfe:	4013      	ands	r3, r2
10001c00:	602b      	str	r3, [r5, #0]
10001c02:	4b1d      	ldr	r3, [pc, #116]	@ (10001c78 <uart_init+0x104>)
10001c04:	6323      	str	r3, [r4, #48]	@ 0x30
10001c06:	2303      	movs	r3, #3
10001c08:	64a3      	str	r3, [r4, #72]	@ 0x48
10001c0a:	bdf8      	pop	{r3, r4, r5, r6, r7, pc}
10001c0c:	4a1b      	ldr	r2, [pc, #108]	@ (10001c7c <uart_init+0x108>)
10001c0e:	4293      	cmp	r3, r2
10001c10:	d91e      	bls.n	10001c50 <uart_init+0xdc>
10001c12:	2300      	movs	r3, #0
10001c14:	4a1a      	ldr	r2, [pc, #104]	@ (10001c80 <uart_init+0x10c>)
10001c16:	4f1b      	ldr	r7, [pc, #108]	@ (10001c84 <uart_init+0x110>)
10001c18:	6262      	str	r2, [r4, #36]	@ 0x24
10001c1a:	62a3      	str	r3, [r4, #40]	@ 0x28
10001c1c:	6b26      	ldr	r6, [r4, #48]	@ 0x30
10001c1e:	07f3      	lsls	r3, r6, #31
10001c20:	d5dc      	bpl.n	10001bdc <uart_init+0x68>
10001c22:	4b19      	ldr	r3, [pc, #100]	@ (10001c88 <uart_init+0x114>)
10001c24:	4a14      	ldr	r2, [pc, #80]	@ (10001c78 <uart_init+0x104>)
10001c26:	18e3      	adds	r3, r4, r3
10001c28:	601a      	str	r2, [r3, #0]
10001c2a:	6a65      	ldr	r5, [r4, #36]	@ 0x24
10001c2c:	6aa3      	ldr	r3, [r4, #40]	@ 0x28
10001c2e:	2006      	movs	r0, #6
10001c30:	01ad      	lsls	r5, r5, #6
10001c32:	18ed      	adds	r5, r5, r3
10001c34:	f000 f956 	bl	10001ee4 <clock_get_hz>
10001c38:	4914      	ldr	r1, [pc, #80]	@ (10001c8c <uart_init+0x118>)
10001c3a:	f000 faff 	bl	1000223c <__wrap___aeabi_uidiv>
10001c3e:	02ad      	lsls	r5, r5, #10
10001c40:	0001      	movs	r1, r0
10001c42:	0028      	movs	r0, r5
10001c44:	f000 fafa 	bl	1000223c <__wrap___aeabi_uidiv>
10001c48:	2100      	movs	r1, #0
10001c4a:	f7ff ff4f 	bl	10001aec <busy_wait_us>
10001c4e:	e7c5      	b.n	10001bdc <uart_init+0x68>
10001c50:	0640      	lsls	r0, r0, #25
10001c52:	0e80      	lsrs	r0, r0, #26
10001c54:	019f      	lsls	r7, r3, #6
10001c56:	001a      	movs	r2, r3
10001c58:	183f      	adds	r7, r7, r0
10001c5a:	0003      	movs	r3, r0
10001c5c:	e7b9      	b.n	10001bd2 <uart_init+0x5e>
10001c5e:	46c0      	nop			@ (mov r8, r8)
10001c60:	bffc8000 	.word	0xbffc8000
10001c64:	4000c008 	.word	0x4000c008
10001c68:	4000e000 	.word	0x4000e000
10001c6c:	4000f000 	.word	0x4000f000
10001c70:	20000e9c 	.word	0x20000e9c
10001c74:	0000102c 	.word	0x0000102c
10001c78:	00000301 	.word	0x00000301
10001c7c:	0000fffe 	.word	0x0000fffe
10001c80:	0000ffff 	.word	0x0000ffff
10001c84:	003fffc0 	.word	0x003fffc0
10001c88:	00003030 	.word	0x00003030
10001c8c:	00000e4e 	.word	0x00000e4e

10001c90 <uart_set_fifo_enabled>:
10001c90:	b5f8      	push	{r3, r4, r5, r6, r7, lr}
10001c92:	6b06      	ldr	r6, [r0, #48]	@ 0x30
10001c94:	0004      	movs	r4, r0
10001c96:	010d      	lsls	r5, r1, #4
10001c98:	07f3      	lsls	r3, r6, #31
10001c9a:	d408      	bmi.n	10001cae <uart_set_fifo_enabled+0x1e>
10001c9c:	2110      	movs	r1, #16
10001c9e:	6ae3      	ldr	r3, [r4, #44]	@ 0x2c
10001ca0:	406b      	eors	r3, r5
10001ca2:	4019      	ands	r1, r3
10001ca4:	4b0d      	ldr	r3, [pc, #52]	@ (10001cdc <uart_set_fifo_enabled+0x4c>)
10001ca6:	18e3      	adds	r3, r4, r3
10001ca8:	6019      	str	r1, [r3, #0]
10001caa:	6326      	str	r6, [r4, #48]	@ 0x30
10001cac:	bdf8      	pop	{r3, r4, r5, r6, r7, pc}
10001cae:	4b0c      	ldr	r3, [pc, #48]	@ (10001ce0 <uart_set_fifo_enabled+0x50>)
10001cb0:	4a0c      	ldr	r2, [pc, #48]	@ (10001ce4 <uart_set_fifo_enabled+0x54>)
10001cb2:	18c3      	adds	r3, r0, r3
10001cb4:	601a      	str	r2, [r3, #0]
10001cb6:	6a47      	ldr	r7, [r0, #36]	@ 0x24
10001cb8:	6a83      	ldr	r3, [r0, #40]	@ 0x28
10001cba:	01bf      	lsls	r7, r7, #6
10001cbc:	2006      	movs	r0, #6
10001cbe:	18ff      	adds	r7, r7, r3
10001cc0:	f000 f910 	bl	10001ee4 <clock_get_hz>
10001cc4:	4908      	ldr	r1, [pc, #32]	@ (10001ce8 <uart_set_fifo_enabled+0x58>)
10001cc6:	f000 fab9 	bl	1000223c <__wrap___aeabi_uidiv>
10001cca:	02bf      	lsls	r7, r7, #10
10001ccc:	0001      	movs	r1, r0
10001cce:	0038      	movs	r0, r7
10001cd0:	f000 fab4 	bl	1000223c <__wrap___aeabi_uidiv>
10001cd4:	2100      	movs	r1, #0
10001cd6:	f7ff ff09 	bl	10001aec <busy_wait_us>
10001cda:	e7df      	b.n	10001c9c <uart_set_fifo_enabled+0xc>
10001cdc:	0000102c 	.word	0x0000102c
10001ce0:	00003030 	.word	0x00003030
10001ce4:	00000301 	.word	0x00000301
10001ce8:	00000e4e 	.word	0x00000e4e

10001cec <uart_is_readable_within_us>:
10001cec:	4a07      	ldr	r2, [pc, #28]	@ (10001d0c <uart_is_readable_within_us+0x20>)
10001cee:	b530      	push	{r4, r5, lr}
10001cf0:	2410      	movs	r4, #16
10001cf2:	6a95      	ldr	r5, [r2, #40]	@ 0x28
10001cf4:	e003      	b.n	10001cfe <uart_is_readable_within_us+0x12>
10001cf6:	6a93      	ldr	r3, [r2, #40]	@ 0x28
10001cf8:	1b5b      	subs	r3, r3, r5
10001cfa:	428b      	cmp	r3, r1
10001cfc:	d804      	bhi.n	10001d08 <uart_is_readable_within_us+0x1c>
10001cfe:	6983      	ldr	r3, [r0, #24]
10001d00:	421c      	tst	r4, r3
10001d02:	d1f8      	bne.n	10001cf6 <uart_is_readable_within_us+0xa>
10001d04:	2001      	movs	r0, #1
10001d06:	bd30      	pop	{r4, r5, pc}
10001d08:	2000      	movs	r0, #0
10001d0a:	e7fc      	b.n	10001d06 <uart_is_readable_within_us+0x1a>
10001d0c:	40054000 	.word	0x40054000

10001d10 <clock_configure_int_divider>:
10001d10:	b5f8      	push	{r3, r4, r5, r6, r7, lr}
10001d12:	46de      	mov	lr, fp
10001d14:	464e      	mov	r6, r9
10001d16:	4657      	mov	r7, sl
10001d18:	4645      	mov	r5, r8
10001d1a:	b5e0      	push	{r5, r6, r7, lr}
10001d1c:	468b      	mov	fp, r1
10001d1e:	0005      	movs	r5, r0
10001d20:	990a      	ldr	r1, [sp, #40]	@ 0x28
10001d22:	0018      	movs	r0, r3
10001d24:	0016      	movs	r6, r2
10001d26:	f000 fa89 	bl	1000223c <__wrap___aeabi_uidiv>
10001d2a:	9b0a      	ldr	r3, [sp, #40]	@ 0x28
10001d2c:	006c      	lsls	r4, r5, #1
10001d2e:	021f      	lsls	r7, r3, #8
10001d30:	4b31      	ldr	r3, [pc, #196]	@ (10001df8 <clock_configure_int_divider+0xe8>)
10001d32:	1964      	adds	r4, r4, r5
10001d34:	469c      	mov	ip, r3
10001d36:	00a4      	lsls	r4, r4, #2
10001d38:	4464      	add	r4, ip
10001d3a:	6863      	ldr	r3, [r4, #4]
10001d3c:	4681      	mov	r9, r0
10001d3e:	429f      	cmp	r7, r3
10001d40:	d900      	bls.n	10001d44 <clock_configure_int_divider+0x34>
10001d42:	6067      	str	r7, [r4, #4]
10001d44:	1f2b      	subs	r3, r5, #4
10001d46:	b2db      	uxtb	r3, r3
10001d48:	4698      	mov	r8, r3
10001d4a:	23c0      	movs	r3, #192	@ 0xc0
10001d4c:	4642      	mov	r2, r8
10001d4e:	019b      	lsls	r3, r3, #6
10001d50:	18e3      	adds	r3, r4, r3
10001d52:	2a01      	cmp	r2, #1
10001d54:	d92d      	bls.n	10001db2 <clock_configure_int_divider+0xa2>
10001d56:	2280      	movs	r2, #128	@ 0x80
10001d58:	0112      	lsls	r2, r2, #4
10001d5a:	601a      	str	r2, [r3, #0]
10001d5c:	4b27      	ldr	r3, [pc, #156]	@ (10001dfc <clock_configure_int_divider+0xec>)
10001d5e:	00ad      	lsls	r5, r5, #2
10001d60:	5959      	ldr	r1, [r3, r5]
10001d62:	469a      	mov	sl, r3
10001d64:	2900      	cmp	r1, #0
10001d66:	d11b      	bne.n	10001da0 <clock_configure_int_divider+0x90>
10001d68:	0173      	lsls	r3, r6, #5
10001d6a:	26e0      	movs	r6, #224	@ 0xe0
10001d6c:	6822      	ldr	r2, [r4, #0]
10001d6e:	4053      	eors	r3, r2
10001d70:	401e      	ands	r6, r3
10001d72:	2380      	movs	r3, #128	@ 0x80
10001d74:	4642      	mov	r2, r8
10001d76:	015b      	lsls	r3, r3, #5
10001d78:	18e3      	adds	r3, r4, r3
10001d7a:	601e      	str	r6, [r3, #0]
10001d7c:	2a01      	cmp	r2, #1
10001d7e:	d92d      	bls.n	10001ddc <clock_configure_int_divider+0xcc>
10001d80:	2380      	movs	r3, #128	@ 0x80
10001d82:	2280      	movs	r2, #128	@ 0x80
10001d84:	019b      	lsls	r3, r3, #6
10001d86:	18e3      	adds	r3, r4, r3
10001d88:	0112      	lsls	r2, r2, #4
10001d8a:	601a      	str	r2, [r3, #0]
10001d8c:	4653      	mov	r3, sl
10001d8e:	464a      	mov	r2, r9
10001d90:	6067      	str	r7, [r4, #4]
10001d92:	515a      	str	r2, [r3, r5]
10001d94:	bcf0      	pop	{r4, r5, r6, r7}
10001d96:	46bb      	mov	fp, r7
10001d98:	46b2      	mov	sl, r6
10001d9a:	46a9      	mov	r9, r5
10001d9c:	46a0      	mov	r8, r4
10001d9e:	bdf8      	pop	{r3, r4, r5, r6, r7, pc}
10001da0:	6958      	ldr	r0, [r3, #20]
10001da2:	f000 fa4b 	bl	1000223c <__wrap___aeabi_uidiv>
10001da6:	3001      	adds	r0, #1
10001da8:	0043      	lsls	r3, r0, #1
10001daa:	181b      	adds	r3, r3, r0
10001dac:	3b03      	subs	r3, #3
10001dae:	d2fd      	bcs.n	10001dac <clock_configure_int_divider+0x9c>
10001db0:	e7da      	b.n	10001d68 <clock_configure_int_divider+0x58>
10001db2:	465a      	mov	r2, fp
10001db4:	2a01      	cmp	r2, #1
10001db6:	d1ce      	bne.n	10001d56 <clock_configure_int_divider+0x46>
10001db8:	3202      	adds	r2, #2
10001dba:	601a      	str	r2, [r3, #0]
10001dbc:	3a02      	subs	r2, #2
10001dbe:	68a3      	ldr	r3, [r4, #8]
10001dc0:	421a      	tst	r2, r3
10001dc2:	d0fc      	beq.n	10001dbe <clock_configure_int_divider+0xae>
10001dc4:	0173      	lsls	r3, r6, #5
10001dc6:	26e0      	movs	r6, #224	@ 0xe0
10001dc8:	6822      	ldr	r2, [r4, #0]
10001dca:	00ad      	lsls	r5, r5, #2
10001dcc:	4053      	eors	r3, r2
10001dce:	401e      	ands	r6, r3
10001dd0:	2380      	movs	r3, #128	@ 0x80
10001dd2:	4a0a      	ldr	r2, [pc, #40]	@ (10001dfc <clock_configure_int_divider+0xec>)
10001dd4:	015b      	lsls	r3, r3, #5
10001dd6:	4692      	mov	sl, r2
10001dd8:	18e3      	adds	r3, r4, r3
10001dda:	601e      	str	r6, [r3, #0]
10001ddc:	465a      	mov	r2, fp
10001dde:	6821      	ldr	r1, [r4, #0]
10001de0:	4051      	eors	r1, r2
10001de2:	2203      	movs	r2, #3
10001de4:	400a      	ands	r2, r1
10001de6:	601a      	str	r2, [r3, #0]
10001de8:	2201      	movs	r2, #1
10001dea:	465b      	mov	r3, fp
10001dec:	409a      	lsls	r2, r3
10001dee:	68a3      	ldr	r3, [r4, #8]
10001df0:	421a      	tst	r2, r3
10001df2:	d0fc      	beq.n	10001dee <clock_configure_int_divider+0xde>
10001df4:	e7c4      	b.n	10001d80 <clock_configure_int_divider+0x70>
10001df6:	46c0      	nop			@ (mov r8, r8)
10001df8:	40008000 	.word	0x40008000
10001dfc:	20000e20 	.word	0x20000e20

10001e00 <clock_configure_undivided>:
10001e00:	b5f0      	push	{r4, r5, r6, r7, lr}
10001e02:	4646      	mov	r6, r8
10001e04:	464f      	mov	r7, r9
10001e06:	46d6      	mov	lr, sl
10001e08:	b5c0      	push	{r6, r7, lr}
10001e0a:	001f      	movs	r7, r3
10001e0c:	4b33      	ldr	r3, [pc, #204]	@ (10001edc <clock_configure_undivided+0xdc>)
10001e0e:	0044      	lsls	r4, r0, #1
10001e10:	469c      	mov	ip, r3
10001e12:	1824      	adds	r4, r4, r0
10001e14:	00a4      	lsls	r4, r4, #2
10001e16:	4464      	add	r4, ip
10001e18:	6863      	ldr	r3, [r4, #4]
10001e1a:	4688      	mov	r8, r1
10001e1c:	0016      	movs	r6, r2
10001e1e:	2bff      	cmp	r3, #255	@ 0xff
10001e20:	d802      	bhi.n	10001e28 <clock_configure_undivided+0x28>
10001e22:	2380      	movs	r3, #128	@ 0x80
10001e24:	005b      	lsls	r3, r3, #1
10001e26:	6063      	str	r3, [r4, #4]
10001e28:	1f03      	subs	r3, r0, #4
10001e2a:	b2db      	uxtb	r3, r3
10001e2c:	469a      	mov	sl, r3
10001e2e:	23c0      	movs	r3, #192	@ 0xc0
10001e30:	4652      	mov	r2, sl
10001e32:	019b      	lsls	r3, r3, #6
10001e34:	18e3      	adds	r3, r4, r3
10001e36:	2a01      	cmp	r2, #1
10001e38:	d92d      	bls.n	10001e96 <clock_configure_undivided+0x96>
10001e3a:	2280      	movs	r2, #128	@ 0x80
10001e3c:	0112      	lsls	r2, r2, #4
10001e3e:	601a      	str	r2, [r3, #0]
10001e40:	4b27      	ldr	r3, [pc, #156]	@ (10001ee0 <clock_configure_undivided+0xe0>)
10001e42:	0085      	lsls	r5, r0, #2
10001e44:	5959      	ldr	r1, [r3, r5]
10001e46:	4699      	mov	r9, r3
10001e48:	2900      	cmp	r1, #0
10001e4a:	d11b      	bne.n	10001e84 <clock_configure_undivided+0x84>
10001e4c:	0173      	lsls	r3, r6, #5
10001e4e:	26e0      	movs	r6, #224	@ 0xe0
10001e50:	6822      	ldr	r2, [r4, #0]
10001e52:	4053      	eors	r3, r2
10001e54:	401e      	ands	r6, r3
10001e56:	2380      	movs	r3, #128	@ 0x80
10001e58:	4652      	mov	r2, sl
10001e5a:	015b      	lsls	r3, r3, #5
10001e5c:	18e3      	adds	r3, r4, r3
10001e5e:	601e      	str	r6, [r3, #0]
10001e60:	2a01      	cmp	r2, #1
10001e62:	d92d      	bls.n	10001ec0 <clock_configure_undivided+0xc0>
10001e64:	2380      	movs	r3, #128	@ 0x80
10001e66:	2280      	movs	r2, #128	@ 0x80
10001e68:	019b      	lsls	r3, r3, #6
10001e6a:	18e3      	adds	r3, r4, r3
10001e6c:	0112      	lsls	r2, r2, #4
10001e6e:	601a      	str	r2, [r3, #0]
10001e70:	2380      	movs	r3, #128	@ 0x80
10001e72:	005b      	lsls	r3, r3, #1
10001e74:	6063      	str	r3, [r4, #4]
10001e76:	464b      	mov	r3, r9
10001e78:	515f      	str	r7, [r3, r5]
10001e7a:	bce0      	pop	{r5, r6, r7}
10001e7c:	46ba      	mov	sl, r7
10001e7e:	46b1      	mov	r9, r6
10001e80:	46a8      	mov	r8, r5
10001e82:	bdf0      	pop	{r4, r5, r6, r7, pc}
10001e84:	6958      	ldr	r0, [r3, #20]
10001e86:	f000 f9d9 	bl	1000223c <__wrap___aeabi_uidiv>
10001e8a:	3001      	adds	r0, #1
10001e8c:	0043      	lsls	r3, r0, #1
10001e8e:	181b      	adds	r3, r3, r0
10001e90:	3b03      	subs	r3, #3
10001e92:	d2fd      	bcs.n	10001e90 <clock_configure_undivided+0x90>
10001e94:	e7da      	b.n	10001e4c <clock_configure_undivided+0x4c>
10001e96:	4642      	mov	r2, r8
10001e98:	2a01      	cmp	r2, #1
10001e9a:	d1ce      	bne.n	10001e3a <clock_configure_undivided+0x3a>
10001e9c:	3202      	adds	r2, #2
10001e9e:	601a      	str	r2, [r3, #0]
10001ea0:	3a02      	subs	r2, #2
10001ea2:	68a3      	ldr	r3, [r4, #8]
10001ea4:	421a      	tst	r2, r3
10001ea6:	d0fc      	beq.n	10001ea2 <clock_configure_undivided+0xa2>
10001ea8:	0173      	lsls	r3, r6, #5
10001eaa:	26e0      	movs	r6, #224	@ 0xe0
10001eac:	6822      	ldr	r2, [r4, #0]
10001eae:	0085      	lsls	r5, r0, #2
10001eb0:	4053      	eors	r3, r2
10001eb2:	401e      	ands	r6, r3
10001eb4:	2380      	movs	r3, #128	@ 0x80
10001eb6:	4a0a      	ldr	r2, [pc, #40]	@ (10001ee0 <clock_configure_undivided+0xe0>)
10001eb8:	015b      	lsls	r3, r3, #5
10001eba:	4691      	mov	r9, r2
10001ebc:	18e3      	adds	r3, r4, r3
10001ebe:	601e      	str	r6, [r3, #0]
10001ec0:	4642      	mov	r2, r8
10001ec2:	6821      	ldr	r1, [r4, #0]
10001ec4:	4051      	eors	r1, r2
10001ec6:	2203      	movs	r2, #3
10001ec8:	400a      	ands	r2, r1
10001eca:	601a      	str	r2, [r3, #0]
10001ecc:	2301      	movs	r3, #1
10001ece:	4642      	mov	r2, r8
10001ed0:	4093      	lsls	r3, r2
10001ed2:	68a2      	ldr	r2, [r4, #8]
10001ed4:	4213      	tst	r3, r2
10001ed6:	d0fc      	beq.n	10001ed2 <clock_configure_undivided+0xd2>
10001ed8:	e7c4      	b.n	10001e64 <clock_configure_undivided+0x64>
10001eda:	46c0      	nop			@ (mov r8, r8)
10001edc:	40008000 	.word	0x40008000
10001ee0:	20000e20 	.word	0x20000e20

10001ee4 <clock_get_hz>:
10001ee4:	4b01      	ldr	r3, [pc, #4]	@ (10001eec <clock_get_hz+0x8>)
10001ee6:	0080      	lsls	r0, r0, #2
10001ee8:	58c0      	ldr	r0, [r0, r3]
10001eea:	4770      	bx	lr
10001eec:	20000e20 	.word	0x20000e20

10001ef0 <pll_init>:
10001ef0:	b5f8      	push	{r3, r4, r5, r6, r7, lr}
10001ef2:	0004      	movs	r4, r0
10001ef4:	4820      	ldr	r0, [pc, #128]	@ (10001f78 <pll_init+0x88>)
10001ef6:	001d      	movs	r5, r3
10001ef8:	0017      	movs	r7, r2
10001efa:	000e      	movs	r6, r1
10001efc:	f000 f99e 	bl	1000223c <__wrap___aeabi_uidiv>
10001f00:	0001      	movs	r1, r0
10001f02:	0038      	movs	r0, r7
10001f04:	f000 f99a 	bl	1000223c <__wrap___aeabi_uidiv>
10001f08:	9b06      	ldr	r3, [sp, #24]
10001f0a:	0429      	lsls	r1, r5, #16
10001f0c:	031b      	lsls	r3, r3, #12
10001f0e:	4319      	orrs	r1, r3
10001f10:	6823      	ldr	r3, [r4, #0]
10001f12:	2b00      	cmp	r3, #0
10001f14:	db1e      	blt.n	10001f54 <pll_init+0x64>
10001f16:	4b19      	ldr	r3, [pc, #100]	@ (10001f7c <pll_init+0x8c>)
10001f18:	4d19      	ldr	r5, [pc, #100]	@ (10001f80 <pll_init+0x90>)
10001f1a:	18e2      	adds	r2, r4, r3
10001f1c:	4253      	negs	r3, r2
10001f1e:	415a      	adcs	r2, r3
10001f20:	2380      	movs	r3, #128	@ 0x80
10001f22:	015b      	lsls	r3, r3, #5
10001f24:	469c      	mov	ip, r3
10001f26:	0312      	lsls	r2, r2, #12
10001f28:	4b16      	ldr	r3, [pc, #88]	@ (10001f84 <pll_init+0x94>)
10001f2a:	4462      	add	r2, ip
10001f2c:	601a      	str	r2, [r3, #0]
10001f2e:	4b16      	ldr	r3, [pc, #88]	@ (10001f88 <pll_init+0x98>)
10001f30:	601a      	str	r2, [r3, #0]
10001f32:	0017      	movs	r7, r2
10001f34:	682b      	ldr	r3, [r5, #0]
10001f36:	439f      	bics	r7, r3
10001f38:	d1fb      	bne.n	10001f32 <pll_init+0x42>
10001f3a:	4b14      	ldr	r3, [pc, #80]	@ (10001f8c <pll_init+0x9c>)
10001f3c:	6026      	str	r6, [r4, #0]
10001f3e:	18e2      	adds	r2, r4, r3
10001f40:	2321      	movs	r3, #33	@ 0x21
10001f42:	60a0      	str	r0, [r4, #8]
10001f44:	6013      	str	r3, [r2, #0]
10001f46:	6823      	ldr	r3, [r4, #0]
10001f48:	2b00      	cmp	r3, #0
10001f4a:	dafc      	bge.n	10001f46 <pll_init+0x56>
10001f4c:	2308      	movs	r3, #8
10001f4e:	60e1      	str	r1, [r4, #12]
10001f50:	6013      	str	r3, [r2, #0]
10001f52:	bdf8      	pop	{r3, r4, r5, r6, r7, pc}
10001f54:	233f      	movs	r3, #63	@ 0x3f
10001f56:	6822      	ldr	r2, [r4, #0]
10001f58:	4013      	ands	r3, r2
10001f5a:	42b3      	cmp	r3, r6
10001f5c:	d1db      	bne.n	10001f16 <pll_init+0x26>
10001f5e:	68a3      	ldr	r3, [r4, #8]
10001f60:	051b      	lsls	r3, r3, #20
10001f62:	0d1b      	lsrs	r3, r3, #20
10001f64:	4283      	cmp	r3, r0
10001f66:	d1d6      	bne.n	10001f16 <pll_init+0x26>
10001f68:	22ee      	movs	r2, #238	@ 0xee
10001f6a:	68e3      	ldr	r3, [r4, #12]
10001f6c:	02d2      	lsls	r2, r2, #11
10001f6e:	4013      	ands	r3, r2
10001f70:	428b      	cmp	r3, r1
10001f72:	d1d0      	bne.n	10001f16 <pll_init+0x26>
10001f74:	e7ed      	b.n	10001f52 <pll_init+0x62>
10001f76:	46c0      	nop			@ (mov r8, r8)
10001f78:	00b71b00 	.word	0x00b71b00
10001f7c:	bffd4000 	.word	0xbffd4000
10001f80:	4000c008 	.word	0x4000c008
10001f84:	4000e000 	.word	0x4000e000
10001f88:	4000f000 	.word	0x4000f000
10001f8c:	00003004 	.word	0x00003004

10001f90 <tick_start>:
10001f90:	2380      	movs	r3, #128	@ 0x80
10001f92:	4a02      	ldr	r2, [pc, #8]	@ (10001f9c <tick_start+0xc>)
10001f94:	009b      	lsls	r3, r3, #2
10001f96:	430b      	orrs	r3, r1
10001f98:	62d3      	str	r3, [r2, #44]	@ 0x2c
10001f9a:	4770      	bx	lr
10001f9c:	40058000 	.word	0x40058000

10001fa0 <rom_func_lookup>:
10001fa0:	2314      	movs	r3, #20
10001fa2:	b510      	push	{r4, lr}
10001fa4:	0001      	movs	r1, r0
10001fa6:	8818      	ldrh	r0, [r3, #0]
10001fa8:	3304      	adds	r3, #4
10001faa:	881b      	ldrh	r3, [r3, #0]
10001fac:	4798      	blx	r3
10001fae:	bd10      	pop	{r4, pc}

10001fb0 <rom_data_lookup>:
10001fb0:	2316      	movs	r3, #22
10001fb2:	b510      	push	{r4, lr}
10001fb4:	0001      	movs	r1, r0
10001fb6:	8818      	ldrh	r0, [r3, #0]
10001fb8:	3302      	adds	r3, #2
10001fba:	881b      	ldrh	r3, [r3, #0]
10001fbc:	4798      	blx	r3
10001fbe:	bd10      	pop	{r4, pc}

10001fc0 <rom_funcs_lookup>:
10001fc0:	b5f8      	push	{r3, r4, r5, r6, r7, lr}
10001fc2:	4647      	mov	r7, r8
10001fc4:	46ce      	mov	lr, r9
10001fc6:	b580      	push	{r7, lr}
10001fc8:	1e0f      	subs	r7, r1, #0
10001fca:	d019      	beq.n	10002000 <rom_funcs_lookup+0x40>
10001fcc:	2314      	movs	r3, #20
10001fce:	4699      	mov	r9, r3
10001fd0:	3304      	adds	r3, #4
10001fd2:	0004      	movs	r4, r0
10001fd4:	2500      	movs	r5, #0
10001fd6:	2601      	movs	r6, #1
10001fd8:	4698      	mov	r8, r3
10001fda:	464b      	mov	r3, r9
10001fdc:	8818      	ldrh	r0, [r3, #0]
10001fde:	4643      	mov	r3, r8
10001fe0:	6821      	ldr	r1, [r4, #0]
10001fe2:	881b      	ldrh	r3, [r3, #0]
10001fe4:	4798      	blx	r3
10001fe6:	c401      	stmia	r4!, {r0}
10001fe8:	1e43      	subs	r3, r0, #1
10001fea:	4198      	sbcs	r0, r3
10001fec:	3501      	adds	r5, #1
10001fee:	4240      	negs	r0, r0
10001ff0:	4006      	ands	r6, r0
10001ff2:	42af      	cmp	r7, r5
10001ff4:	d1f1      	bne.n	10001fda <rom_funcs_lookup+0x1a>
10001ff6:	0030      	movs	r0, r6
10001ff8:	bcc0      	pop	{r6, r7}
10001ffa:	46b9      	mov	r9, r7
10001ffc:	46b0      	mov	r8, r6
10001ffe:	bdf8      	pop	{r3, r4, r5, r6, r7, pc}
10002000:	2601      	movs	r6, #1
10002002:	e7f8      	b.n	10001ff6 <rom_funcs_lookup+0x36>

10002004 <xosc_init>:
10002004:	23aa      	movs	r3, #170	@ 0xaa
10002006:	4a06      	ldr	r2, [pc, #24]	@ (10002020 <xosc_init+0x1c>)
10002008:	011b      	lsls	r3, r3, #4
1000200a:	6013      	str	r3, [r2, #0]
1000200c:	238d      	movs	r3, #141	@ 0x8d
1000200e:	005b      	lsls	r3, r3, #1
10002010:	60d3      	str	r3, [r2, #12]
10002012:	4904      	ldr	r1, [pc, #16]	@ (10002024 <xosc_init+0x20>)
10002014:	4b04      	ldr	r3, [pc, #16]	@ (10002028 <xosc_init+0x24>)
10002016:	6019      	str	r1, [r3, #0]
10002018:	6853      	ldr	r3, [r2, #4]
1000201a:	2b00      	cmp	r3, #0
1000201c:	dafc      	bge.n	10002018 <xosc_init+0x14>
1000201e:	4770      	bx	lr
10002020:	40024000 	.word	0x40024000
10002024:	00fab000 	.word	0x00fab000
10002028:	40026000 	.word	0x40026000

1000202c <first_per_core_initializer>:
1000202c:	4770      	bx	lr
1000202e:	46c0      	nop			@ (mov r8, r8)

10002030 <hard_assertion_failure>:
10002030:	b510      	push	{r4, lr}
10002032:	4801      	ldr	r0, [pc, #4]	@ (10002038 <hard_assertion_failure+0x8>)
10002034:	f7ff f8ca 	bl	100011cc <panic>
10002038:	1000af38 	.word	0x1000af38

1000203c <runtime_run_initializers>:
1000203c:	b570      	push	{r4, r5, r6, lr}
1000203e:	4d07      	ldr	r5, [pc, #28]	@ (1000205c <runtime_run_initializers+0x20>)
10002040:	4e07      	ldr	r6, [pc, #28]	@ (10002060 <runtime_run_initializers+0x24>)
10002042:	42b5      	cmp	r5, r6
10002044:	d209      	bcs.n	1000205a <runtime_run_initializers+0x1e>
10002046:	2400      	movs	r4, #0
10002048:	3e01      	subs	r6, #1
1000204a:	1b76      	subs	r6, r6, r5
1000204c:	08b6      	lsrs	r6, r6, #2
1000204e:	cd08      	ldmia	r5!, {r3}
10002050:	4798      	blx	r3
10002052:	0023      	movs	r3, r4
10002054:	3401      	adds	r4, #1
10002056:	42b3      	cmp	r3, r6
10002058:	d1f9      	bne.n	1000204e <runtime_run_initializers+0x12>
1000205a:	bd70      	pop	{r4, r5, r6, pc}
1000205c:	1000a590 	.word	0x1000a590
10002060:	1000a5cc 	.word	0x1000a5cc

10002064 <runtime_init_early_resets>:
10002064:	4b05      	ldr	r3, [pc, #20]	@ (1000207c <runtime_init_early_resets+0x18>)
10002066:	4a06      	ldr	r2, [pc, #24]	@ (10002080 <runtime_init_early_resets+0x1c>)
10002068:	4906      	ldr	r1, [pc, #24]	@ (10002084 <runtime_init_early_resets+0x20>)
1000206a:	601a      	str	r2, [r3, #0]
1000206c:	4a06      	ldr	r2, [pc, #24]	@ (10002088 <runtime_init_early_resets+0x24>)
1000206e:	4b07      	ldr	r3, [pc, #28]	@ (1000208c <runtime_init_early_resets+0x28>)
10002070:	601a      	str	r2, [r3, #0]
10002072:	0010      	movs	r0, r2
10002074:	680b      	ldr	r3, [r1, #0]
10002076:	4398      	bics	r0, r3
10002078:	d1fb      	bne.n	10002072 <runtime_init_early_resets+0xe>
1000207a:	4770      	bx	lr
1000207c:	4000e000 	.word	0x4000e000
10002080:	fefbcdbf 	.word	0xfefbcdbf
10002084:	4000c008 	.word	0x4000c008
10002088:	003c7ffe 	.word	0x003c7ffe
1000208c:	4000f000 	.word	0x4000f000

10002090 <runtime_init_usb_power_down>:
10002090:	4b04      	ldr	r3, [pc, #16]	@ (100020a4 <runtime_init_usb_power_down+0x14>)
10002092:	6cdb      	ldr	r3, [r3, #76]	@ 0x4c
10002094:	2b00      	cmp	r3, #0
10002096:	d103      	bne.n	100020a0 <runtime_init_usb_power_down+0x10>
10002098:	2280      	movs	r2, #128	@ 0x80
1000209a:	4b03      	ldr	r3, [pc, #12]	@ (100020a8 <runtime_init_usb_power_down+0x18>)
1000209c:	02d2      	lsls	r2, r2, #11
1000209e:	601a      	str	r2, [r3, #0]
100020a0:	4770      	bx	lr
100020a2:	46c0      	nop			@ (mov r8, r8)
100020a4:	50110000 	.word	0x50110000
100020a8:	5011204c 	.word	0x5011204c

100020ac <runtime_init_post_clock_resets>:
100020ac:	4a04      	ldr	r2, [pc, #16]	@ (100020c0 <runtime_init_post_clock_resets+0x14>)
100020ae:	4b05      	ldr	r3, [pc, #20]	@ (100020c4 <runtime_init_post_clock_resets+0x18>)
100020b0:	601a      	str	r2, [r3, #0]
100020b2:	4a05      	ldr	r2, [pc, #20]	@ (100020c8 <runtime_init_post_clock_resets+0x1c>)
100020b4:	6813      	ldr	r3, [r2, #0]
100020b6:	01db      	lsls	r3, r3, #7
100020b8:	3380      	adds	r3, #128	@ 0x80
100020ba:	d1fb      	bne.n	100020b4 <runtime_init_post_clock_resets+0x8>
100020bc:	4770      	bx	lr
100020be:	46c0      	nop			@ (mov r8, r8)
100020c0:	01ffffff 	.word	0x01ffffff
100020c4:	4000f000 	.word	0x4000f000
100020c8:	4000c008 	.word	0x4000c008

100020cc <runtime_init_rp2040_gpio_ie_disable>:
100020cc:	2240      	movs	r2, #64	@ 0x40
100020ce:	4b03      	ldr	r3, [pc, #12]	@ (100020dc <runtime_init_rp2040_gpio_ie_disable+0x10>)
100020d0:	679a      	str	r2, [r3, #120]	@ 0x78
100020d2:	675a      	str	r2, [r3, #116]	@ 0x74
100020d4:	671a      	str	r2, [r3, #112]	@ 0x70
100020d6:	66da      	str	r2, [r3, #108]	@ 0x6c
100020d8:	4770      	bx	lr
100020da:	46c0      	nop			@ (mov r8, r8)
100020dc:	4001f000 	.word	0x4001f000

100020e0 <runtime_init_spin_locks_reset>:
100020e0:	b510      	push	{r4, lr}
100020e2:	f7ff f8b9 	bl	10001258 <spin_locks_reset>
100020e6:	bd10      	pop	{r4, pc}

100020e8 <runtime_init_install_ram_vector_table>:
100020e8:	b570      	push	{r4, r5, r6, lr}
100020ea:	4d04      	ldr	r5, [pc, #16]	@ (100020fc <runtime_init_install_ram_vector_table+0x14>)
100020ec:	4c04      	ldr	r4, [pc, #16]	@ (10002100 <runtime_init_install_ram_vector_table+0x18>)
100020ee:	68a9      	ldr	r1, [r5, #8]
100020f0:	22c0      	movs	r2, #192	@ 0xc0
100020f2:	0020      	movs	r0, r4
100020f4:	f001 f890 	bl	10003218 <__wrap___aeabi_memcpy>
100020f8:	60ac      	str	r4, [r5, #8]
100020fa:	bd70      	pop	{r4, r5, r6, pc}
100020fc:	e000ed00 	.word	0xe000ed00
10002100:	20000000 	.word	0x20000000

10002104 <runtime_init_clocks>:
10002104:	2300      	movs	r3, #0
10002106:	b510      	push	{r4, lr}
10002108:	4c29      	ldr	r4, [pc, #164]	@ (100021b0 <runtime_init_clocks+0xac>)
1000210a:	b082      	sub	sp, #8
1000210c:	67a3      	str	r3, [r4, #120]	@ 0x78
1000210e:	f7ff ff79 	bl	10002004 <xosc_init>
10002112:	2201      	movs	r2, #1
10002114:	4b27      	ldr	r3, [pc, #156]	@ (100021b4 <runtime_init_clocks+0xb0>)
10002116:	601a      	str	r2, [r3, #0]
10002118:	6c63      	ldr	r3, [r4, #68]	@ 0x44
1000211a:	2b01      	cmp	r3, #1
1000211c:	d1fc      	bne.n	10002118 <runtime_init_clocks+0x14>
1000211e:	2203      	movs	r2, #3
10002120:	4b25      	ldr	r3, [pc, #148]	@ (100021b8 <runtime_init_clocks+0xb4>)
10002122:	601a      	str	r2, [r3, #0]
10002124:	4a22      	ldr	r2, [pc, #136]	@ (100021b0 <runtime_init_clocks+0xac>)
10002126:	6b93      	ldr	r3, [r2, #56]	@ 0x38
10002128:	2b01      	cmp	r3, #1
1000212a:	d1fc      	bne.n	10002126 <runtime_init_clocks+0x22>
1000212c:	3301      	adds	r3, #1
1000212e:	9300      	str	r3, [sp, #0]
10002130:	2101      	movs	r1, #1
10002132:	4a22      	ldr	r2, [pc, #136]	@ (100021bc <runtime_init_clocks+0xb8>)
10002134:	4822      	ldr	r0, [pc, #136]	@ (100021c0 <runtime_init_clocks+0xbc>)
10002136:	3304      	adds	r3, #4
10002138:	f7ff feda 	bl	10001ef0 <pll_init>
1000213c:	2305      	movs	r3, #5
1000213e:	2101      	movs	r1, #1
10002140:	9300      	str	r3, [sp, #0]
10002142:	4a20      	ldr	r2, [pc, #128]	@ (100021c4 <runtime_init_clocks+0xc0>)
10002144:	4820      	ldr	r0, [pc, #128]	@ (100021c8 <runtime_init_clocks+0xc4>)
10002146:	f7ff fed3 	bl	10001ef0 <pll_init>
1000214a:	2200      	movs	r2, #0
1000214c:	2102      	movs	r1, #2
1000214e:	2004      	movs	r0, #4
10002150:	4b1e      	ldr	r3, [pc, #120]	@ (100021cc <runtime_init_clocks+0xc8>)
10002152:	f7ff fe55 	bl	10001e00 <clock_configure_undivided>
10002156:	2200      	movs	r2, #0
10002158:	2101      	movs	r1, #1
1000215a:	2005      	movs	r0, #5
1000215c:	4b1c      	ldr	r3, [pc, #112]	@ (100021d0 <runtime_init_clocks+0xcc>)
1000215e:	f7ff fe4f 	bl	10001e00 <clock_configure_undivided>
10002162:	2200      	movs	r2, #0
10002164:	2100      	movs	r1, #0
10002166:	2007      	movs	r0, #7
10002168:	4b1a      	ldr	r3, [pc, #104]	@ (100021d4 <runtime_init_clocks+0xd0>)
1000216a:	f7ff fe49 	bl	10001e00 <clock_configure_undivided>
1000216e:	2200      	movs	r2, #0
10002170:	2100      	movs	r1, #0
10002172:	2008      	movs	r0, #8
10002174:	4b17      	ldr	r3, [pc, #92]	@ (100021d4 <runtime_init_clocks+0xd0>)
10002176:	f7ff fe43 	bl	10001e00 <clock_configure_undivided>
1000217a:	2380      	movs	r3, #128	@ 0x80
1000217c:	00db      	lsls	r3, r3, #3
1000217e:	9300      	str	r3, [sp, #0]
10002180:	2200      	movs	r2, #0
10002182:	2100      	movs	r1, #0
10002184:	2009      	movs	r0, #9
10002186:	4b13      	ldr	r3, [pc, #76]	@ (100021d4 <runtime_init_clocks+0xd0>)
10002188:	f7ff fdc2 	bl	10001d10 <clock_configure_int_divider>
1000218c:	2200      	movs	r2, #0
1000218e:	4b10      	ldr	r3, [pc, #64]	@ (100021d0 <runtime_init_clocks+0xcc>)
10002190:	2100      	movs	r1, #0
10002192:	2006      	movs	r0, #6
10002194:	f7ff fe34 	bl	10001e00 <clock_configure_undivided>
10002198:	2004      	movs	r0, #4
1000219a:	f7ff fea3 	bl	10001ee4 <clock_get_hz>
1000219e:	490e      	ldr	r1, [pc, #56]	@ (100021d8 <runtime_init_clocks+0xd4>)
100021a0:	f000 f84c 	bl	1000223c <__wrap___aeabi_uidiv>
100021a4:	0001      	movs	r1, r0
100021a6:	2000      	movs	r0, #0
100021a8:	f7ff fef2 	bl	10001f90 <tick_start>
100021ac:	b002      	add	sp, #8
100021ae:	bd10      	pop	{r4, pc}
100021b0:	40008000 	.word	0x40008000
100021b4:	4000b03c 	.word	0x4000b03c
100021b8:	4000b030 	.word	0x4000b030
100021bc:	59682f00 	.word	0x59682f00
100021c0:	40028000 	.word	0x40028000
100021c4:	47868c00 	.word	0x47868c00
100021c8:	4002c000 	.word	0x4002c000
100021cc:	00b71b00 	.word	0x00b71b00
100021d0:	07735940 	.word	0x07735940
100021d4:	02dc6c00 	.word	0x02dc6c00
100021d8:	000f4240 	.word	0x000f4240

100021dc <__aeabi_bits_init>:
100021dc:	4801      	ldr	r0, [pc, #4]	@ (100021e4 <__aeabi_bits_init+0x8>)
100021de:	2104      	movs	r1, #4
100021e0:	4b01      	ldr	r3, [pc, #4]	@ (100021e8 <__aeabi_bits_init+0xc>)
100021e2:	4718      	bx	r3
100021e4:	200001d0 	.word	0x200001d0
100021e8:	10001fc1 	.word	0x10001fc1

100021ec <__wrap___aeabi_idiv>:
100021ec:	4a12      	ldr	r2, [pc, #72]	@ (10002238 <divmod_s32s32_savestate+0x18>)
100021ee:	6f93      	ldr	r3, [r2, #120]	@ 0x78
100021f0:	089b      	lsrs	r3, r3, #2
100021f2:	d215      	bcs.n	10002220 <divmod_s32s32_savestate>

100021f4 <divmod_s32s32_unsafe>:
100021f4:	6690      	str	r0, [r2, #104]	@ 0x68
100021f6:	66d1      	str	r1, [r2, #108]	@ 0x6c
100021f8:	2900      	cmp	r1, #0
100021fa:	d005      	beq.n	10002208 <divmod_s32s32_unsafe+0x14>
100021fc:	e7ff      	b.n	100021fe <divmod_s32s32_unsafe+0xa>
100021fe:	e7ff      	b.n	10002200 <divmod_s32s32_unsafe+0xc>
10002200:	e7ff      	b.n	10002202 <divmod_s32s32_unsafe+0xe>
10002202:	6f51      	ldr	r1, [r2, #116]	@ 0x74
10002204:	6f10      	ldr	r0, [r2, #112]	@ 0x70
10002206:	4770      	bx	lr
10002208:	b504      	push	{r2, lr}
1000220a:	2180      	movs	r1, #128	@ 0x80
1000220c:	0609      	lsls	r1, r1, #24
1000220e:	17c2      	asrs	r2, r0, #31
10002210:	4051      	eors	r1, r2
10002212:	2800      	cmp	r0, #0
10002214:	d000      	beq.n	10002218 <divmod_s32s32_unsafe+0x24>
10002216:	43c8      	mvns	r0, r1
10002218:	f008 f9aa 	bl	1000a570 <____aeabi_idiv0_veneer>
1000221c:	2100      	movs	r1, #0
1000221e:	bd04      	pop	{r2, pc}

10002220 <divmod_s32s32_savestate>:
10002220:	b5f0      	push	{r4, r5, r6, r7, lr}
10002222:	6e14      	ldr	r4, [r2, #96]	@ 0x60
10002224:	6e55      	ldr	r5, [r2, #100]	@ 0x64
10002226:	6f57      	ldr	r7, [r2, #116]	@ 0x74
10002228:	6f16      	ldr	r6, [r2, #112]	@ 0x70
1000222a:	f7ff ffe3 	bl	100021f4 <divmod_s32s32_unsafe>
1000222e:	6614      	str	r4, [r2, #96]	@ 0x60
10002230:	6655      	str	r5, [r2, #100]	@ 0x64
10002232:	6757      	str	r7, [r2, #116]	@ 0x74
10002234:	6716      	str	r6, [r2, #112]	@ 0x70
10002236:	bdf0      	pop	{r4, r5, r6, r7, pc}
10002238:	d0000000 	.word	0xd0000000

1000223c <__wrap___aeabi_uidiv>:
1000223c:	4a11      	ldr	r2, [pc, #68]	@ (10002284 <divmod_u32u32_savestate+0x18>)
1000223e:	6f93      	ldr	r3, [r2, #120]	@ 0x78
10002240:	089b      	lsrs	r3, r3, #2
10002242:	d213      	bcs.n	1000226c <divmod_u32u32_savestate>

10002244 <divmod_u32u32_unsafe>:
10002244:	6610      	str	r0, [r2, #96]	@ 0x60
10002246:	6651      	str	r1, [r2, #100]	@ 0x64
10002248:	2900      	cmp	r1, #0
1000224a:	d005      	beq.n	10002258 <divmod_u32u32_unsafe+0x14>
1000224c:	e7ff      	b.n	1000224e <divmod_u32u32_unsafe+0xa>
1000224e:	e7ff      	b.n	10002250 <divmod_u32u32_unsafe+0xc>
10002250:	e7ff      	b.n	10002252 <divmod_u32u32_unsafe+0xe>
10002252:	6f51      	ldr	r1, [r2, #116]	@ 0x74
10002254:	6f10      	ldr	r0, [r2, #112]	@ 0x70
10002256:	4770      	bx	lr
10002258:	b504      	push	{r2, lr}
1000225a:	2800      	cmp	r0, #0
1000225c:	d001      	beq.n	10002262 <divmod_u32u32_unsafe+0x1e>
1000225e:	2000      	movs	r0, #0
10002260:	43c0      	mvns	r0, r0
10002262:	f008 f985 	bl	1000a570 <____aeabi_idiv0_veneer>
10002266:	2100      	movs	r1, #0
10002268:	bd04      	pop	{r2, pc}
1000226a:	46c0      	nop			@ (mov r8, r8)

1000226c <divmod_u32u32_savestate>:
1000226c:	b5f0      	push	{r4, r5, r6, r7, lr}
1000226e:	6e14      	ldr	r4, [r2, #96]	@ 0x60
10002270:	6e55      	ldr	r5, [r2, #100]	@ 0x64
10002272:	6f57      	ldr	r7, [r2, #116]	@ 0x74
10002274:	6f16      	ldr	r6, [r2, #112]	@ 0x70
10002276:	f7ff ffe5 	bl	10002244 <divmod_u32u32_unsafe>
1000227a:	6614      	str	r4, [r2, #96]	@ 0x60
1000227c:	6655      	str	r5, [r2, #100]	@ 0x64
1000227e:	6757      	str	r7, [r2, #116]	@ 0x74
10002280:	6716      	str	r6, [r2, #112]	@ 0x70
10002282:	bdf0      	pop	{r4, r5, r6, r7, pc}
10002284:	d0000000 	.word	0xd0000000

10002288 <__wrap___aeabi_ldivmod>:
10002288:	4694      	mov	ip, r2
1000228a:	4a4a      	ldr	r2, [pc, #296]	@ (100023b4 <udiv0+0x1a>)
1000228c:	6f92      	ldr	r2, [r2, #120]	@ 0x78
1000228e:	0892      	lsrs	r2, r2, #2
10002290:	4662      	mov	r2, ip
10002292:	d201      	bcs.n	10002298 <divmod_s64s64_savestate>
10002294:	e028      	b.n	100022e8 <divmod_s64s64_unsafe>
10002296:	46c0      	nop			@ (mov r8, r8)

10002298 <divmod_s64s64_savestate>:
10002298:	b5f0      	push	{r4, r5, r6, r7, lr}
1000229a:	4e46      	ldr	r6, [pc, #280]	@ (100023b4 <udiv0+0x1a>)
1000229c:	6e34      	ldr	r4, [r6, #96]	@ 0x60
1000229e:	6e75      	ldr	r5, [r6, #100]	@ 0x64
100022a0:	6f77      	ldr	r7, [r6, #116]	@ 0x74
100022a2:	6f36      	ldr	r6, [r6, #112]	@ 0x70
100022a4:	f000 f820 	bl	100022e8 <divmod_s64s64_unsafe>
100022a8:	4694      	mov	ip, r2
100022aa:	4a42      	ldr	r2, [pc, #264]	@ (100023b4 <udiv0+0x1a>)
100022ac:	6614      	str	r4, [r2, #96]	@ 0x60
100022ae:	6655      	str	r5, [r2, #100]	@ 0x64
100022b0:	6757      	str	r7, [r2, #116]	@ 0x74
100022b2:	6716      	str	r6, [r2, #112]	@ 0x70
100022b4:	4662      	mov	r2, ip
100022b6:	bdf0      	pop	{r4, r5, r6, r7, pc}

100022b8 <__wrap___aeabi_uldivmod>:
100022b8:	4694      	mov	ip, r2
100022ba:	4a3e      	ldr	r2, [pc, #248]	@ (100023b4 <udiv0+0x1a>)
100022bc:	6f92      	ldr	r2, [r2, #120]	@ 0x78
100022be:	0892      	lsrs	r2, r2, #2
100022c0:	4662      	mov	r2, ip
100022c2:	d201      	bcs.n	100022c8 <divmod_u64u64_savestate>
100022c4:	e054      	b.n	10002370 <divmod_u64u64_unsafe>
100022c6:	46c0      	nop			@ (mov r8, r8)

100022c8 <divmod_u64u64_savestate>:
100022c8:	b5f0      	push	{r4, r5, r6, r7, lr}
100022ca:	4e3a      	ldr	r6, [pc, #232]	@ (100023b4 <udiv0+0x1a>)
100022cc:	6e34      	ldr	r4, [r6, #96]	@ 0x60
100022ce:	6e75      	ldr	r5, [r6, #100]	@ 0x64
100022d0:	6f77      	ldr	r7, [r6, #116]	@ 0x74
100022d2:	6f36      	ldr	r6, [r6, #112]	@ 0x70
100022d4:	f000 f84c 	bl	10002370 <divmod_u64u64_unsafe>
100022d8:	4694      	mov	ip, r2
100022da:	4a36      	ldr	r2, [pc, #216]	@ (100023b4 <udiv0+0x1a>)
100022dc:	6614      	str	r4, [r2, #96]	@ 0x60
100022de:	6655      	str	r5, [r2, #100]	@ 0x64
100022e0:	6757      	str	r7, [r2, #116]	@ 0x74
100022e2:	6716      	str	r6, [r2, #112]	@ 0x70
100022e4:	4662      	mov	r2, ip
100022e6:	bdf0      	pop	{r4, r5, r6, r7, pc}

100022e8 <divmod_s64s64_unsafe>:
100022e8:	2b00      	cmp	r3, #0
100022ea:	db24      	blt.n	10002336 <l42_1+0x26>
100022ec:	d011      	beq.n	10002312 <l42_1+0x2>
100022ee:	2900      	cmp	r1, #0
100022f0:	da3e      	bge.n	10002370 <divmod_u64u64_unsafe>
100022f2:	b500      	push	{lr}
100022f4:	43c9      	mvns	r1, r1
100022f6:	4240      	negs	r0, r0
100022f8:	d100      	bne.n	100022fc <l40_1>
100022fa:	3101      	adds	r1, #1

100022fc <l40_1>:
100022fc:	f000 f838 	bl	10002370 <divmod_u64u64_unsafe>
10002300:	43c9      	mvns	r1, r1
10002302:	4240      	negs	r0, r0
10002304:	d100      	bne.n	10002308 <l41_1>
10002306:	3101      	adds	r1, #1

10002308 <l41_1>:
10002308:	43db      	mvns	r3, r3
1000230a:	4252      	negs	r2, r2
1000230c:	d100      	bne.n	10002310 <l42_1>
1000230e:	3301      	adds	r3, #1

10002310 <l42_1>:
10002310:	bd00      	pop	{pc}
10002312:	2a00      	cmp	r2, #0
10002314:	d1eb      	bne.n	100022ee <divmod_s64s64_unsafe+0x6>
10002316:	2800      	cmp	r0, #0
10002318:	d101      	bne.n	1000231e <l42_1+0xe>
1000231a:	2900      	cmp	r1, #0
1000231c:	d005      	beq.n	1000232a <l42_1+0x1a>
1000231e:	2000      	movs	r0, #0
10002320:	0fc9      	lsrs	r1, r1, #31
10002322:	07c9      	lsls	r1, r1, #31
10002324:	d101      	bne.n	1000232a <l42_1+0x1a>
10002326:	43c0      	mvns	r0, r0
10002328:	0841      	lsrs	r1, r0, #1
1000232a:	b500      	push	{lr}
1000232c:	f008 f918 	bl	1000a560 <____aeabi_ldiv0_veneer>
10002330:	2200      	movs	r2, #0
10002332:	2300      	movs	r3, #0
10002334:	bd00      	pop	{pc}
10002336:	b500      	push	{lr}
10002338:	2900      	cmp	r1, #0
1000233a:	db0a      	blt.n	10002352 <l44_1+0x2>
1000233c:	43db      	mvns	r3, r3
1000233e:	4252      	negs	r2, r2
10002340:	d100      	bne.n	10002344 <l43_1>
10002342:	3301      	adds	r3, #1

10002344 <l43_1>:
10002344:	f000 f814 	bl	10002370 <divmod_u64u64_unsafe>
10002348:	43c9      	mvns	r1, r1
1000234a:	4240      	negs	r0, r0
1000234c:	d100      	bne.n	10002350 <l44_1>
1000234e:	3101      	adds	r1, #1

10002350 <l44_1>:
10002350:	bd00      	pop	{pc}
10002352:	43c9      	mvns	r1, r1
10002354:	4240      	negs	r0, r0
10002356:	d100      	bne.n	1000235a <l45_1>
10002358:	3101      	adds	r1, #1

1000235a <l45_1>:
1000235a:	43db      	mvns	r3, r3
1000235c:	4252      	negs	r2, r2
1000235e:	d100      	bne.n	10002362 <l46_1>
10002360:	3301      	adds	r3, #1

10002362 <l46_1>:
10002362:	f000 f805 	bl	10002370 <divmod_u64u64_unsafe>
10002366:	43db      	mvns	r3, r3
10002368:	4252      	negs	r2, r2
1000236a:	d100      	bne.n	1000236e <l47_1>
1000236c:	3301      	adds	r3, #1

1000236e <l47_1>:
1000236e:	bd00      	pop	{pc}

10002370 <divmod_u64u64_unsafe>:
10002370:	2900      	cmp	r1, #0
10002372:	d123      	bne.n	100023bc <y64>
10002374:	2b00      	cmp	r3, #0
10002376:	d118      	bne.n	100023aa <udiv0+0x10>
10002378:	2a00      	cmp	r2, #0
1000237a:	d00c      	beq.n	10002396 <divmod_u64u64_unsafe+0x26>
1000237c:	46bc      	mov	ip, r7
1000237e:	4f0d      	ldr	r7, [pc, #52]	@ (100023b4 <udiv0+0x1a>)
10002380:	6638      	str	r0, [r7, #96]	@ 0x60
10002382:	667a      	str	r2, [r7, #100]	@ 0x64
10002384:	2100      	movs	r1, #0
10002386:	2300      	movs	r3, #0
10002388:	e7ff      	b.n	1000238a <divmod_u64u64_unsafe+0x1a>
1000238a:	e7ff      	b.n	1000238c <divmod_u64u64_unsafe+0x1c>
1000238c:	e7ff      	b.n	1000238e <divmod_u64u64_unsafe+0x1e>
1000238e:	6f7a      	ldr	r2, [r7, #116]	@ 0x74
10002390:	6f38      	ldr	r0, [r7, #112]	@ 0x70
10002392:	4667      	mov	r7, ip
10002394:	4770      	bx	lr
10002396:	2800      	cmp	r0, #0
10002398:	d001      	beq.n	1000239e <udiv0+0x4>

1000239a <udiv0>:
1000239a:	4807      	ldr	r0, [pc, #28]	@ (100023b8 <udiv0+0x1e>)
1000239c:	0001      	movs	r1, r0
1000239e:	b500      	push	{lr}
100023a0:	f008 f8de 	bl	1000a560 <____aeabi_ldiv0_veneer>
100023a4:	2200      	movs	r2, #0
100023a6:	2300      	movs	r3, #0
100023a8:	bd00      	pop	{pc}
100023aa:	0002      	movs	r2, r0
100023ac:	000b      	movs	r3, r1
100023ae:	2000      	movs	r0, #0
100023b0:	2100      	movs	r1, #0
100023b2:	4770      	bx	lr
100023b4:	d0000000 	.word	0xd0000000
100023b8:	ffffffff 	.word	0xffffffff

100023bc <y64>:
100023bc:	2b00      	cmp	r3, #0
100023be:	d000      	beq.n	100023c2 <y64+0x6>
100023c0:	e0bf      	b.n	10002542 <y64_x48>
100023c2:	0c13      	lsrs	r3, r2, #16
100023c4:	d128      	bne.n	10002418 <y64_x32>
100023c6:	2a00      	cmp	r2, #0
100023c8:	d0e7      	beq.n	1000239a <udiv0>
100023ca:	b480      	push	{r7}
100023cc:	4f11      	ldr	r7, [pc, #68]	@ (10002414 <y64+0x58>)
100023ce:	6639      	str	r1, [r7, #96]	@ 0x60
100023d0:	667a      	str	r2, [r7, #100]	@ 0x64
100023d2:	e7ff      	b.n	100023d4 <y64+0x18>
100023d4:	e7ff      	b.n	100023d6 <y64+0x1a>
100023d6:	b430      	push	{r4, r5}
100023d8:	0c04      	lsrs	r4, r0, #16
100023da:	6f7b      	ldr	r3, [r7, #116]	@ 0x74
100023dc:	6f39      	ldr	r1, [r7, #112]	@ 0x70
100023de:	041b      	lsls	r3, r3, #16
100023e0:	4323      	orrs	r3, r4
100023e2:	663b      	str	r3, [r7, #96]	@ 0x60
100023e4:	667a      	str	r2, [r7, #100]	@ 0x64
100023e6:	e7ff      	b.n	100023e8 <y64+0x2c>
100023e8:	e7ff      	b.n	100023ea <y64+0x2e>
100023ea:	e7ff      	b.n	100023ec <y64+0x30>
100023ec:	46c0      	nop			@ (mov r8, r8)
100023ee:	b284      	uxth	r4, r0
100023f0:	6f7b      	ldr	r3, [r7, #116]	@ 0x74
100023f2:	6f3d      	ldr	r5, [r7, #112]	@ 0x70
100023f4:	041b      	lsls	r3, r3, #16
100023f6:	4323      	orrs	r3, r4
100023f8:	663b      	str	r3, [r7, #96]	@ 0x60
100023fa:	667a      	str	r2, [r7, #100]	@ 0x64
100023fc:	e7ff      	b.n	100023fe <y64+0x42>
100023fe:	e7ff      	b.n	10002400 <y64+0x44>
10002400:	46c0      	nop			@ (mov r8, r8)
10002402:	2300      	movs	r3, #0
10002404:	042c      	lsls	r4, r5, #16
10002406:	0c2d      	lsrs	r5, r5, #16
10002408:	6f7a      	ldr	r2, [r7, #116]	@ 0x74
1000240a:	6f38      	ldr	r0, [r7, #112]	@ 0x70
1000240c:	1900      	adds	r0, r0, r4
1000240e:	4169      	adcs	r1, r5
10002410:	bcb0      	pop	{r4, r5, r7}
10002412:	4770      	bx	lr
10002414:	d0000000 	.word	0xd0000000

10002418 <y64_x32>:
10002418:	b5f0      	push	{r4, r5, r6, r7, lr}
1000241a:	4694      	mov	ip, r2
1000241c:	2500      	movs	r5, #0
1000241e:	0e14      	lsrs	r4, r2, #24
10002420:	d101      	bne.n	10002426 <y64_x32+0xe>
10002422:	0212      	lsls	r2, r2, #8
10002424:	3508      	adds	r5, #8
10002426:	0f14      	lsrs	r4, r2, #28
10002428:	d101      	bne.n	1000242e <y64_x32+0x16>
1000242a:	0112      	lsls	r2, r2, #4
1000242c:	3504      	adds	r5, #4
1000242e:	0f94      	lsrs	r4, r2, #30
10002430:	d101      	bne.n	10002436 <y64_x32+0x1e>
10002432:	0092      	lsls	r2, r2, #2
10002434:	3502      	adds	r5, #2
10002436:	0fd4      	lsrs	r4, r2, #31
10002438:	d101      	bne.n	1000243e <y64_x32+0x26>
1000243a:	0052      	lsls	r2, r2, #1
1000243c:	3501      	adds	r5, #1
1000243e:	0bd4      	lsrs	r4, r2, #15
10002440:	3401      	adds	r4, #1
10002442:	4f25      	ldr	r7, [pc, #148]	@ (100024d8 <y64_x32+0xc0>)
10002444:	667c      	str	r4, [r7, #100]	@ 0x64
10002446:	4c25      	ldr	r4, [pc, #148]	@ (100024dc <y64_x32+0xc4>)
10002448:	663c      	str	r4, [r7, #96]	@ 0x60
1000244a:	0c0e      	lsrs	r6, r1, #16
1000244c:	b293      	uxth	r3, r2
1000244e:	e7ff      	b.n	10002450 <y64_x32+0x38>
10002450:	e7ff      	b.n	10002452 <y64_x32+0x3a>
10002452:	e7ff      	b.n	10002454 <y64_x32+0x3c>
10002454:	6f3c      	ldr	r4, [r7, #112]	@ 0x70
10002456:	4366      	muls	r6, r4
10002458:	0c36      	lsrs	r6, r6, #16
1000245a:	0377      	lsls	r7, r6, #13
1000245c:	46be      	mov	lr, r7
1000245e:	4373      	muls	r3, r6
10002460:	0bdf      	lsrs	r7, r3, #15
10002462:	045b      	lsls	r3, r3, #17
10002464:	1ac0      	subs	r0, r0, r3
10002466:	41b9      	sbcs	r1, r7
10002468:	0c13      	lsrs	r3, r2, #16
1000246a:	4373      	muls	r3, r6
1000246c:	18db      	adds	r3, r3, r3
1000246e:	1ac9      	subs	r1, r1, r3
10002470:	08ce      	lsrs	r6, r1, #3
10002472:	4366      	muls	r6, r4
10002474:	0c36      	lsrs	r6, r6, #16
10002476:	44b6      	add	lr, r6
10002478:	b293      	uxth	r3, r2
1000247a:	4373      	muls	r3, r6
1000247c:	0f1f      	lsrs	r7, r3, #28
1000247e:	011b      	lsls	r3, r3, #4
10002480:	1ac0      	subs	r0, r0, r3
10002482:	41b9      	sbcs	r1, r7
10002484:	0c13      	lsrs	r3, r2, #16
10002486:	4373      	muls	r3, r6
10002488:	0b1f      	lsrs	r7, r3, #12
1000248a:	051b      	lsls	r3, r3, #20
1000248c:	1ac0      	subs	r0, r0, r3
1000248e:	41b9      	sbcs	r1, r7
10002490:	0d86      	lsrs	r6, r0, #22
10002492:	028f      	lsls	r7, r1, #10
10002494:	433e      	orrs	r6, r7
10002496:	4366      	muls	r6, r4
10002498:	0c36      	lsrs	r6, r6, #16
1000249a:	2d09      	cmp	r5, #9
1000249c:	db24      	blt.n	100024e8 <last0>
1000249e:	0a52      	lsrs	r2, r2, #9
100024a0:	4372      	muls	r2, r6
100024a2:	1a80      	subs	r0, r0, r2
100024a4:	0377      	lsls	r7, r6, #13
100024a6:	0a46      	lsrs	r6, r0, #9
100024a8:	4366      	muls	r6, r4
100024aa:	0c36      	lsrs	r6, r6, #16
100024ac:	2316      	movs	r3, #22
100024ae:	1b5b      	subs	r3, r3, r5
100024b0:	40de      	lsrs	r6, r3
100024b2:	40df      	lsrs	r7, r3
100024b4:	19bf      	adds	r7, r7, r6
100024b6:	4664      	mov	r4, ip
100024b8:	4366      	muls	r6, r4
100024ba:	1b82      	subs	r2, r0, r6
100024bc:	4670      	mov	r0, lr
100024be:	3504      	adds	r5, #4
100024c0:	3306      	adds	r3, #6
100024c2:	0001      	movs	r1, r0
100024c4:	40d9      	lsrs	r1, r3
100024c6:	40a8      	lsls	r0, r5
100024c8:	19c0      	adds	r0, r0, r7
100024ca:	d300      	bcc.n	100024ce <y64_x32+0xb6>
100024cc:	3101      	adds	r1, #1
100024ce:	42a2      	cmp	r2, r4
100024d0:	d206      	bcs.n	100024e0 <y64_x32+0xc8>
100024d2:	2300      	movs	r3, #0
100024d4:	bdf0      	pop	{r4, r5, r6, r7, pc}
100024d6:	0000      	.short	0x0000
100024d8:	d0000000 	.word	0xd0000000
100024dc:	ffffffff 	.word	0xffffffff
100024e0:	1b12      	subs	r2, r2, r4
100024e2:	3001      	adds	r0, #1
100024e4:	d3f3      	bcc.n	100024ce <y64_x32+0xb6>
100024e6:	e7f1      	b.n	100024cc <y64_x32+0xb4>

100024e8 <last0>:
100024e8:	2709      	movs	r7, #9
100024ea:	1b7f      	subs	r7, r7, r5
100024ec:	40fe      	lsrs	r6, r7
100024ee:	4664      	mov	r4, ip
100024f0:	b2a2      	uxth	r2, r4
100024f2:	4372      	muls	r2, r6
100024f4:	1a80      	subs	r0, r0, r2
100024f6:	d200      	bcs.n	100024fa <last0+0x12>
100024f8:	3901      	subs	r1, #1
100024fa:	0c22      	lsrs	r2, r4, #16
100024fc:	4372      	muls	r2, r6
100024fe:	0c13      	lsrs	r3, r2, #16
10002500:	0412      	lsls	r2, r2, #16
10002502:	1a82      	subs	r2, r0, r2
10002504:	4199      	sbcs	r1, r3
10002506:	000b      	movs	r3, r1
10002508:	4670      	mov	r0, lr
1000250a:	3504      	adds	r5, #4
1000250c:	3713      	adds	r7, #19
1000250e:	0001      	movs	r1, r0
10002510:	40f9      	lsrs	r1, r7
10002512:	40a8      	lsls	r0, r5
10002514:	1980      	adds	r0, r0, r6
10002516:	d300      	bcc.n	1000251a <last0+0x32>
10002518:	3101      	adds	r1, #1
1000251a:	2b00      	cmp	r3, #0
1000251c:	d102      	bne.n	10002524 <last0+0x3c>
1000251e:	42a2      	cmp	r2, r4
10002520:	d20a      	bcs.n	10002538 <last0+0x50>
10002522:	bdf0      	pop	{r4, r5, r6, r7, pc}
10002524:	3001      	adds	r0, #1
10002526:	d300      	bcc.n	1000252a <last0+0x42>
10002528:	3101      	adds	r1, #1
1000252a:	1b12      	subs	r2, r2, r4
1000252c:	d2fa      	bcs.n	10002524 <last0+0x3c>
1000252e:	3b01      	subs	r3, #1
10002530:	d1f8      	bne.n	10002524 <last0+0x3c>
10002532:	42a2      	cmp	r2, r4
10002534:	d200      	bcs.n	10002538 <last0+0x50>
10002536:	bdf0      	pop	{r4, r5, r6, r7, pc}
10002538:	3001      	adds	r0, #1
1000253a:	d300      	bcc.n	1000253e <last0+0x56>
1000253c:	3101      	adds	r1, #1
1000253e:	1b12      	subs	r2, r2, r4
10002540:	e7f7      	b.n	10002532 <last0+0x4a>

10002542 <y64_x48>:
10002542:	b5f0      	push	{r4, r5, r6, r7, lr}
10002544:	0c1c      	lsrs	r4, r3, #16
10002546:	d000      	beq.n	1000254a <y64_x48+0x8>
10002548:	e080      	b.n	1000264c <y64_x64>
1000254a:	b40c      	push	{r2, r3}
1000254c:	2500      	movs	r5, #0
1000254e:	0a1c      	lsrs	r4, r3, #8
10002550:	d104      	bne.n	1000255c <y64_x48+0x1a>
10002552:	021b      	lsls	r3, r3, #8
10002554:	0e16      	lsrs	r6, r2, #24
10002556:	4333      	orrs	r3, r6
10002558:	0212      	lsls	r2, r2, #8
1000255a:	3508      	adds	r5, #8
1000255c:	0b1c      	lsrs	r4, r3, #12
1000255e:	d104      	bne.n	1000256a <y64_x48+0x28>
10002560:	011b      	lsls	r3, r3, #4
10002562:	0f16      	lsrs	r6, r2, #28
10002564:	4333      	orrs	r3, r6
10002566:	0112      	lsls	r2, r2, #4
10002568:	3504      	adds	r5, #4
1000256a:	0b9c      	lsrs	r4, r3, #14
1000256c:	d104      	bne.n	10002578 <y64_x48+0x36>
1000256e:	009b      	lsls	r3, r3, #2
10002570:	0f96      	lsrs	r6, r2, #30
10002572:	4333      	orrs	r3, r6
10002574:	0092      	lsls	r2, r2, #2
10002576:	3502      	adds	r5, #2
10002578:	0bdc      	lsrs	r4, r3, #15
1000257a:	d102      	bne.n	10002582 <y64_x48+0x40>
1000257c:	1892      	adds	r2, r2, r2
1000257e:	415b      	adcs	r3, r3
10002580:	3501      	adds	r5, #1
10002582:	001c      	movs	r4, r3
10002584:	1897      	adds	r7, r2, r2
10002586:	4164      	adcs	r4, r4
10002588:	3401      	adds	r4, #1
1000258a:	4f46      	ldr	r7, [pc, #280]	@ (100026a4 <y64_x64+0x58>)
1000258c:	667c      	str	r4, [r7, #100]	@ 0x64
1000258e:	4c46      	ldr	r4, [pc, #280]	@ (100026a8 <y64_x64+0x5c>)
10002590:	663c      	str	r4, [r7, #96]	@ 0x60
10002592:	0c0e      	lsrs	r6, r1, #16
10002594:	e7ff      	b.n	10002596 <y64_x48+0x54>
10002596:	e7ff      	b.n	10002598 <y64_x48+0x56>
10002598:	e7ff      	b.n	1000259a <y64_x48+0x58>
1000259a:	46c0      	nop			@ (mov r8, r8)
1000259c:	6f3c      	ldr	r4, [r7, #112]	@ 0x70
1000259e:	4366      	muls	r6, r4
100025a0:	0c36      	lsrs	r6, r6, #16
100025a2:	0377      	lsls	r7, r6, #13
100025a4:	46be      	mov	lr, r7
100025a6:	b297      	uxth	r7, r2
100025a8:	4377      	muls	r7, r6
100025aa:	1bc0      	subs	r0, r0, r7
100025ac:	d200      	bcs.n	100025b0 <y64_x48+0x6e>
100025ae:	3901      	subs	r1, #1
100025b0:	1bc0      	subs	r0, r0, r7
100025b2:	d200      	bcs.n	100025b6 <y64_x48+0x74>
100025b4:	3901      	subs	r1, #1
100025b6:	b29f      	uxth	r7, r3
100025b8:	4377      	muls	r7, r6
100025ba:	1bc9      	subs	r1, r1, r7
100025bc:	1bc9      	subs	r1, r1, r7
100025be:	0c17      	lsrs	r7, r2, #16
100025c0:	4377      	muls	r7, r6
100025c2:	047e      	lsls	r6, r7, #17
100025c4:	0bff      	lsrs	r7, r7, #15
100025c6:	1b80      	subs	r0, r0, r6
100025c8:	41b9      	sbcs	r1, r7
100025ca:	08ce      	lsrs	r6, r1, #3
100025cc:	4366      	muls	r6, r4
100025ce:	0c36      	lsrs	r6, r6, #16
100025d0:	2d0c      	cmp	r5, #12
100025d2:	db33      	blt.n	1000263c <last1>
100025d4:	44b6      	add	lr, r6
100025d6:	0b12      	lsrs	r2, r2, #12
100025d8:	051f      	lsls	r7, r3, #20
100025da:	433a      	orrs	r2, r7
100025dc:	0b1b      	lsrs	r3, r3, #12
100025de:	b297      	uxth	r7, r2
100025e0:	4377      	muls	r7, r6
100025e2:	1bc0      	subs	r0, r0, r7
100025e4:	d200      	bcs.n	100025e8 <y64_x48+0xa6>
100025e6:	3901      	subs	r1, #1
100025e8:	b29f      	uxth	r7, r3
100025ea:	4377      	muls	r7, r6
100025ec:	1bc9      	subs	r1, r1, r7
100025ee:	0c17      	lsrs	r7, r2, #16
100025f0:	4377      	muls	r7, r6
100025f2:	043e      	lsls	r6, r7, #16
100025f4:	0c3f      	lsrs	r7, r7, #16
100025f6:	1b80      	subs	r0, r0, r6
100025f8:	41b9      	sbcs	r1, r7
100025fa:	0d86      	lsrs	r6, r0, #22
100025fc:	028f      	lsls	r7, r1, #10
100025fe:	433e      	orrs	r6, r7
10002600:	4366      	muls	r6, r4
10002602:	2729      	movs	r7, #41	@ 0x29
10002604:	1b7f      	subs	r7, r7, r5
10002606:	40fe      	lsrs	r6, r7
10002608:	3d0c      	subs	r5, #12
1000260a:	4677      	mov	r7, lr
1000260c:	40af      	lsls	r7, r5
1000260e:	19bf      	adds	r7, r7, r6
10002610:	bc30      	pop	{r4, r5}
10002612:	b2a2      	uxth	r2, r4
10002614:	b2ab      	uxth	r3, r5
10002616:	4372      	muls	r2, r6
10002618:	4373      	muls	r3, r6
1000261a:	1a80      	subs	r0, r0, r2
1000261c:	4199      	sbcs	r1, r3
1000261e:	0c22      	lsrs	r2, r4, #16
10002620:	4372      	muls	r2, r6
10002622:	0c13      	lsrs	r3, r2, #16
10002624:	0412      	lsls	r2, r2, #16
10002626:	1a80      	subs	r0, r0, r2
10002628:	4199      	sbcs	r1, r3
1000262a:	0002      	movs	r2, r0
1000262c:	000b      	movs	r3, r1
1000262e:	3701      	adds	r7, #1
10002630:	1b00      	subs	r0, r0, r4
10002632:	41a9      	sbcs	r1, r5
10002634:	d2f9      	bcs.n	1000262a <y64_x48+0xe8>
10002636:	1e78      	subs	r0, r7, #1
10002638:	2100      	movs	r1, #0
1000263a:	bdf0      	pop	{r4, r5, r6, r7, pc}

1000263c <last1>:
1000263c:	270c      	movs	r7, #12
1000263e:	1b7f      	subs	r7, r7, r5
10002640:	40fe      	lsrs	r6, r7
10002642:	4677      	mov	r7, lr
10002644:	0b7f      	lsrs	r7, r7, #13
10002646:	40af      	lsls	r7, r5
10002648:	19ff      	adds	r7, r7, r7
1000264a:	e7e0      	b.n	1000260e <y64_x48+0xcc>

1000264c <y64_x64>:
1000264c:	2400      	movs	r4, #0
1000264e:	1c5d      	adds	r5, r3, #1
10002650:	d007      	beq.n	10002662 <y64_x64+0x16>
10002652:	4f14      	ldr	r7, [pc, #80]	@ (100026a4 <y64_x64+0x58>)
10002654:	667d      	str	r5, [r7, #100]	@ 0x64
10002656:	6639      	str	r1, [r7, #96]	@ 0x60
10002658:	e7ff      	b.n	1000265a <y64_x64+0xe>
1000265a:	e7ff      	b.n	1000265c <y64_x64+0x10>
1000265c:	e7ff      	b.n	1000265e <y64_x64+0x12>
1000265e:	e7ff      	b.n	10002660 <y64_x64+0x14>
10002660:	6f3c      	ldr	r4, [r7, #112]	@ 0x70
10002662:	b295      	uxth	r5, r2
10002664:	b29e      	uxth	r6, r3
10002666:	4365      	muls	r5, r4
10002668:	4366      	muls	r6, r4
1000266a:	1b40      	subs	r0, r0, r5
1000266c:	41b1      	sbcs	r1, r6
1000266e:	0c15      	lsrs	r5, r2, #16
10002670:	0c1e      	lsrs	r6, r3, #16
10002672:	4365      	muls	r5, r4
10002674:	4366      	muls	r6, r4
10002676:	0436      	lsls	r6, r6, #16
10002678:	0c2f      	lsrs	r7, r5, #16
1000267a:	433e      	orrs	r6, r7
1000267c:	042d      	lsls	r5, r5, #16
1000267e:	1b40      	subs	r0, r0, r5
10002680:	41b1      	sbcs	r1, r6
10002682:	4299      	cmp	r1, r3
10002684:	d204      	bcs.n	10002690 <y64_x64+0x44>
10002686:	0002      	movs	r2, r0
10002688:	000b      	movs	r3, r1
1000268a:	0020      	movs	r0, r4
1000268c:	2100      	movs	r1, #0
1000268e:	bdf0      	pop	{r4, r5, r6, r7, pc}
10002690:	d101      	bne.n	10002696 <y64_x64+0x4a>
10002692:	4290      	cmp	r0, r2
10002694:	d3f7      	bcc.n	10002686 <y64_x64+0x3a>
10002696:	1a80      	subs	r0, r0, r2
10002698:	4199      	sbcs	r1, r3
1000269a:	3401      	adds	r4, #1
1000269c:	4299      	cmp	r1, r3
1000269e:	d3f2      	bcc.n	10002686 <y64_x64+0x3a>
100026a0:	e7f6      	b.n	10002690 <y64_x64+0x44>
100026a2:	0000      	.short	0x0000
100026a4:	d0000000 	.word	0xd0000000
100026a8:	ffffffff 	.word	0xffffffff

100026ac <__wrap___aeabi_drsub>:
100026ac:	4048      	eors	r0, r1
100026ae:	4041      	eors	r1, r0
100026b0:	4048      	eors	r0, r1

100026b2 <__wrap___aeabi_dsub>:
100026b2:	b418      	push	{r3, r4}
100026b4:	4b1b      	ldr	r3, [pc, #108]	@ (10002724 <__wrap___aeabi_dmul+0x12>)
100026b6:	685b      	ldr	r3, [r3, #4]
100026b8:	46fc      	mov	ip, pc
100026ba:	9301      	str	r3, [sp, #4]
100026bc:	bd08      	pop	{r3, pc}
100026be:	df04      	.short	0xdf04
100026c0:	100029ef 	.word	0x100029ef

100026c4 <__wrap___aeabi_dadd>:
100026c4:	b418      	push	{r3, r4}
100026c6:	4b17      	ldr	r3, [pc, #92]	@ (10002724 <__wrap___aeabi_dmul+0x12>)
100026c8:	681b      	ldr	r3, [r3, #0]
100026ca:	46fc      	mov	ip, pc
100026cc:	9301      	str	r3, [sp, #4]
100026ce:	bd08      	pop	{r3, pc}
100026d0:	29f9df00 	.word	0x29f9df00
100026d4:	1000      	.short	0x1000

100026d6 <__wrap___aeabi_ddiv>:
100026d6:	4694      	mov	ip, r2
100026d8:	4a13      	ldr	r2, [pc, #76]	@ (10002728 <__wrap___aeabi_dmul+0x16>)
100026da:	6f92      	ldr	r2, [r2, #120]	@ 0x78
100026dc:	0892      	lsrs	r2, r2, #2
100026de:	d209      	bcs.n	100026f4 <ddiv_save_state>
100026e0:	4662      	mov	r2, ip

100026e2 <ddiv_shim_call>:
100026e2:	b418      	push	{r3, r4}
100026e4:	4b0f      	ldr	r3, [pc, #60]	@ (10002724 <__wrap___aeabi_dmul+0x12>)
100026e6:	68db      	ldr	r3, [r3, #12]
100026e8:	46fc      	mov	ip, pc
100026ea:	9301      	str	r3, [sp, #4]
100026ec:	bd08      	pop	{r3, pc}
100026ee:	df0c      	.short	0xdf0c
100026f0:	10002cb1 	.word	0x10002cb1

100026f4 <ddiv_save_state>:
100026f4:	4a0c      	ldr	r2, [pc, #48]	@ (10002728 <__wrap___aeabi_dmul+0x16>)
100026f6:	b5f0      	push	{r4, r5, r6, r7, lr}
100026f8:	6e14      	ldr	r4, [r2, #96]	@ 0x60
100026fa:	6e55      	ldr	r5, [r2, #100]	@ 0x64
100026fc:	6f57      	ldr	r7, [r2, #116]	@ 0x74
100026fe:	6f16      	ldr	r6, [r2, #112]	@ 0x70
10002700:	4662      	mov	r2, ip
10002702:	f7ff ffee 	bl	100026e2 <ddiv_shim_call>
10002706:	4a08      	ldr	r2, [pc, #32]	@ (10002728 <__wrap___aeabi_dmul+0x16>)
10002708:	6614      	str	r4, [r2, #96]	@ 0x60
1000270a:	6655      	str	r5, [r2, #100]	@ 0x64
1000270c:	6757      	str	r7, [r2, #116]	@ 0x74
1000270e:	6716      	str	r6, [r2, #112]	@ 0x70
10002710:	bdf0      	pop	{r4, r5, r6, r7, pc}

10002712 <__wrap___aeabi_dmul>:
10002712:	b418      	push	{r3, r4}
10002714:	4b03      	ldr	r3, [pc, #12]	@ (10002724 <__wrap___aeabi_dmul+0x12>)
10002716:	689b      	ldr	r3, [r3, #8]
10002718:	46fc      	mov	ip, pc
1000271a:	9301      	str	r3, [sp, #4]
1000271c:	bd08      	pop	{r3, pc}
1000271e:	df08      	.short	0xdf08
10002720:	10002b55 	.word	0x10002b55
10002724:	20000a28 	.word	0x20000a28
10002728:	d0000000 	.word	0xd0000000

1000272c <__wrap___aeabi_cdrcmple>:
1000272c:	b5ff      	push	{r0, r1, r2, r3, r4, r5, r6, r7, lr}
1000272e:	4050      	eors	r0, r2
10002730:	4042      	eors	r2, r0
10002732:	4050      	eors	r0, r2
10002734:	4059      	eors	r1, r3
10002736:	404b      	eors	r3, r1
10002738:	4059      	eors	r1, r3
1000273a:	e000      	b.n	1000273e <__aeabi_dfcmple_guts>

1000273c <__wrap___aeabi_cdcmpeq>:
1000273c:	b5ff      	push	{r0, r1, r2, r3, r4, r5, r6, r7, lr}

1000273e <__aeabi_dfcmple_guts>:
1000273e:	4f15      	ldr	r7, [pc, #84]	@ (10002794 <__aeabi_dfcmple_guts+0x56>)
10002740:	004c      	lsls	r4, r1, #1
10002742:	0d64      	lsrs	r4, r4, #21
10002744:	d003      	beq.n	1000274e <__aeabi_dfcmple_guts+0x10>
10002746:	42bc      	cmp	r4, r7
10002748:	d104      	bne.n	10002754 <__aeabi_dfcmple_guts+0x16>
1000274a:	030c      	lsls	r4, r1, #12
1000274c:	d814      	bhi.n	10002778 <__aeabi_dfcmple_guts+0x3a>
1000274e:	2000      	movs	r0, #0
10002750:	0d09      	lsrs	r1, r1, #20
10002752:	0509      	lsls	r1, r1, #20
10002754:	005c      	lsls	r4, r3, #1
10002756:	0d64      	lsrs	r4, r4, #21
10002758:	d003      	beq.n	10002762 <__aeabi_dfcmple_guts+0x24>
1000275a:	42bc      	cmp	r4, r7
1000275c:	d104      	bne.n	10002768 <__aeabi_dfcmple_guts+0x2a>
1000275e:	031c      	lsls	r4, r3, #12
10002760:	d80a      	bhi.n	10002778 <__aeabi_dfcmple_guts+0x3a>
10002762:	2200      	movs	r2, #0
10002764:	0d1b      	lsrs	r3, r3, #20
10002766:	051b      	lsls	r3, r3, #20
10002768:	2601      	movs	r6, #1
1000276a:	404b      	eors	r3, r1
1000276c:	d409      	bmi.n	10002782 <__aeabi_dfcmple_guts+0x44>
1000276e:	404b      	eors	r3, r1
10002770:	d503      	bpl.n	1000277a <__aeabi_dfcmple_guts+0x3c>
10002772:	428b      	cmp	r3, r1
10002774:	d100      	bne.n	10002778 <__aeabi_dfcmple_guts+0x3a>
10002776:	4282      	cmp	r2, r0
10002778:	bdff      	pop	{r0, r1, r2, r3, r4, r5, r6, r7, pc}
1000277a:	4299      	cmp	r1, r3
1000277c:	d1fc      	bne.n	10002778 <__aeabi_dfcmple_guts+0x3a>
1000277e:	4290      	cmp	r0, r2
10002780:	bdff      	pop	{r0, r1, r2, r3, r4, r5, r6, r7, pc}
10002782:	430b      	orrs	r3, r1
10002784:	18db      	adds	r3, r3, r3
10002786:	4303      	orrs	r3, r0
10002788:	4313      	orrs	r3, r2
1000278a:	d0f5      	beq.n	10002778 <__aeabi_dfcmple_guts+0x3a>
1000278c:	43c9      	mvns	r1, r1
1000278e:	1849      	adds	r1, r1, r1
10002790:	bdff      	pop	{r0, r1, r2, r3, r4, r5, r6, r7, pc}
10002792:	0000      	.short	0x0000
10002794:	000007ff 	.word	0x000007ff

10002798 <__wrap___aeabi_dcmpeq>:
10002798:	b500      	push	{lr}
1000279a:	f7ff ffcf 	bl	1000273c <__wrap___aeabi_cdcmpeq>
1000279e:	d001      	beq.n	100027a4 <__wrap___aeabi_dcmpeq+0xc>
100027a0:	2000      	movs	r0, #0
100027a2:	bd00      	pop	{pc}
100027a4:	2001      	movs	r0, #1
100027a6:	bd00      	pop	{pc}

100027a8 <__wrap___aeabi_dcmplt>:
100027a8:	b500      	push	{lr}
100027aa:	f7ff ffc7 	bl	1000273c <__wrap___aeabi_cdcmpeq>
100027ae:	4180      	sbcs	r0, r0
100027b0:	bd00      	pop	{pc}
100027b2:	46c0      	nop			@ (mov r8, r8)

100027b4 <__wrap___aeabi_dcmple>:
100027b4:	b500      	push	{lr}
100027b6:	f7ff ffc1 	bl	1000273c <__wrap___aeabi_cdcmpeq>
100027ba:	d901      	bls.n	100027c0 <__wrap___aeabi_dcmple+0xc>
100027bc:	2000      	movs	r0, #0
100027be:	bd00      	pop	{pc}
100027c0:	2001      	movs	r0, #1
100027c2:	bd00      	pop	{pc}

100027c4 <__wrap___aeabi_dcmpge>:
100027c4:	b500      	push	{lr}
100027c6:	f7ff ffb1 	bl	1000272c <__wrap___aeabi_cdrcmple>
100027ca:	d901      	bls.n	100027d0 <__wrap___aeabi_dcmpge+0xc>
100027cc:	2000      	movs	r0, #0
100027ce:	bd00      	pop	{pc}
100027d0:	2001      	movs	r0, #1
100027d2:	bd00      	pop	{pc}

100027d4 <__wrap___aeabi_dcmpgt>:
100027d4:	b500      	push	{lr}
100027d6:	f7ff ffa9 	bl	1000272c <__wrap___aeabi_cdrcmple>
100027da:	4180      	sbcs	r0, r0
100027dc:	bd00      	pop	{pc}

100027de <__wrap___aeabi_dcmpun>:
100027de:	2001      	movs	r0, #1
100027e0:	0540      	lsls	r0, r0, #21
100027e2:	004a      	lsls	r2, r1, #1
100027e4:	1812      	adds	r2, r2, r0
100027e6:	d804      	bhi.n	100027f2 <__wrap___aeabi_dcmpun+0x14>
100027e8:	005a      	lsls	r2, r3, #1
100027ea:	1812      	adds	r2, r2, r0
100027ec:	d801      	bhi.n	100027f2 <__wrap___aeabi_dcmpun+0x14>
100027ee:	2000      	movs	r0, #0
100027f0:	4770      	bx	lr
100027f2:	2001      	movs	r0, #1
100027f4:	4770      	bx	lr
	...

100027f8 <__wrap___aeabi_ui2d>:
100027f8:	2100      	movs	r1, #0
100027fa:	2800      	cmp	r0, #0
100027fc:	d105      	bne.n	1000280a <__wrap___aeabi_i2d+0xa>
100027fe:	4770      	bx	lr

10002800 <__wrap___aeabi_i2d>:
10002800:	17c1      	asrs	r1, r0, #31
10002802:	4048      	eors	r0, r1
10002804:	1a40      	subs	r0, r0, r1
10002806:	d0fa      	beq.n	100027fe <__wrap___aeabi_ui2d+0x6>
10002808:	07c9      	lsls	r1, r1, #31
1000280a:	b513      	push	{r0, r1, r4, lr}
1000280c:	4b06      	ldr	r3, [pc, #24]	@ (10002828 <__wrap___aeabi_i2d+0x28>)
1000280e:	681b      	ldr	r3, [r3, #0]
10002810:	4798      	blx	r3
10002812:	bc0c      	pop	{r2, r3}
10002814:	1c44      	adds	r4, r0, #1
10002816:	40a2      	lsls	r2, r4
10002818:	0510      	lsls	r0, r2, #20
1000281a:	0b12      	lsrs	r2, r2, #12
1000281c:	4903      	ldr	r1, [pc, #12]	@ (1000282c <__wrap___aeabi_i2d+0x2c>)
1000281e:	1b09      	subs	r1, r1, r4
10002820:	0509      	lsls	r1, r1, #20
10002822:	4319      	orrs	r1, r3
10002824:	4311      	orrs	r1, r2
10002826:	bd10      	pop	{r4, pc}
10002828:	20000e94 	.word	0x20000e94
1000282c:	0000041f 	.word	0x0000041f

10002830 <__wrap___aeabi_d2iz>:
10002830:	b510      	push	{r4, lr}
10002832:	004c      	lsls	r4, r1, #1
10002834:	0d62      	lsrs	r2, r4, #21
10002836:	2380      	movs	r3, #128	@ 0x80
10002838:	18d2      	adds	r2, r2, r3
1000283a:	00db      	lsls	r3, r3, #3
1000283c:	1ad2      	subs	r2, r2, r3
1000283e:	055b      	lsls	r3, r3, #21
10002840:	2a7e      	cmp	r2, #126	@ 0x7e
10002842:	dd10      	ble.n	10002866 <__wrap___aeabi_d2iz+0x36>
10002844:	3a9e      	subs	r2, #158	@ 0x9e
10002846:	da13      	bge.n	10002870 <__wrap___aeabi_d2iz+0x40>
10002848:	17cc      	asrs	r4, r1, #31
1000284a:	0309      	lsls	r1, r1, #12
1000284c:	0849      	lsrs	r1, r1, #1
1000284e:	4319      	orrs	r1, r3
10002850:	4252      	negs	r2, r2
10002852:	40d1      	lsrs	r1, r2
10002854:	0064      	lsls	r4, r4, #1
10002856:	3401      	adds	r4, #1
10002858:	3215      	adds	r2, #21
1000285a:	2a20      	cmp	r2, #32
1000285c:	da05      	bge.n	1000286a <__wrap___aeabi_d2iz+0x3a>
1000285e:	40d0      	lsrs	r0, r2
10002860:	4308      	orrs	r0, r1
10002862:	4360      	muls	r0, r4
10002864:	bd10      	pop	{r4, pc}
10002866:	2000      	movs	r0, #0
10002868:	bd10      	pop	{r4, pc}
1000286a:	4608      	mov	r0, r1
1000286c:	4360      	muls	r0, r4
1000286e:	bd10      	pop	{r4, pc}
10002870:	0fc8      	lsrs	r0, r1, #31
10002872:	18c0      	adds	r0, r0, r3
10002874:	3801      	subs	r0, #1
10002876:	bd10      	pop	{r4, pc}

10002878 <__wrap___aeabi_d2uiz>:
10002878:	b418      	push	{r3, r4}
1000287a:	4b04      	ldr	r3, [pc, #16]	@ (1000288c <__wrap___aeabi_d2uiz+0x14>)
1000287c:	6a5b      	ldr	r3, [r3, #36]	@ 0x24
1000287e:	46fc      	mov	ip, pc
10002880:	9301      	str	r3, [sp, #4]
10002882:	bd08      	pop	{r3, pc}
10002884:	2e61df24 	.word	0x2e61df24
10002888:	00001000 	.word	0x00001000
1000288c:	20000a28 	.word	0x20000a28

10002890 <__wrap___aeabi_l2d>:
10002890:	b418      	push	{r3, r4}
10002892:	4b04      	ldr	r3, [pc, #16]	@ (100028a4 <__wrap___aeabi_l2d+0x14>)
10002894:	6ddb      	ldr	r3, [r3, #92]	@ 0x5c
10002896:	46fc      	mov	ip, pc
10002898:	9301      	str	r3, [sp, #4]
1000289a:	bd08      	pop	{r3, pc}
1000289c:	2f6ddf5c 	.word	0x2f6ddf5c
100028a0:	00001000 	.word	0x00001000
100028a4:	20000a28 	.word	0x20000a28

100028a8 <__wrap___aeabi_d2lz>:
100028a8:	42c9      	cmn	r1, r1
100028aa:	d311      	bcc.n	100028d0 <double2int64>
100028ac:	b500      	push	{lr}
100028ae:	0049      	lsls	r1, r1, #1
100028b0:	0849      	lsrs	r1, r1, #1
100028b2:	2200      	movs	r2, #0
100028b4:	f000 f818 	bl	100028e8 <double2ufix64>
100028b8:	2900      	cmp	r1, #0
100028ba:	d404      	bmi.n	100028c6 <__wrap___aeabi_d2lz+0x1e>
100028bc:	2200      	movs	r2, #0
100028be:	4240      	negs	r0, r0
100028c0:	418a      	sbcs	r2, r1
100028c2:	4611      	mov	r1, r2
100028c4:	bd00      	pop	{pc}
100028c6:	2180      	movs	r1, #128	@ 0x80
100028c8:	0609      	lsls	r1, r1, #24
100028ca:	2000      	movs	r0, #0
100028cc:	bd00      	pop	{pc}
	...

100028d0 <double2int64>:
100028d0:	b418      	push	{r3, r4}
100028d2:	4b04      	ldr	r3, [pc, #16]	@ (100028e4 <double2int64+0x14>)
100028d4:	6edb      	ldr	r3, [r3, #108]	@ 0x6c
100028d6:	46fc      	mov	ip, pc
100028d8:	9301      	str	r3, [sp, #4]
100028da:	bd08      	pop	{r3, pc}
100028dc:	2e6fdf6c 	.word	0x2e6fdf6c
100028e0:	00001000 	.word	0x00001000
100028e4:	20000a28 	.word	0x20000a28

100028e8 <double2ufix64>:
100028e8:	b418      	push	{r3, r4}
100028ea:	4b04      	ldr	r3, [pc, #16]	@ (100028fc <double2ufix64+0x14>)
100028ec:	6f9b      	ldr	r3, [r3, #120]	@ 0x78
100028ee:	46fc      	mov	ip, pc
100028f0:	9301      	str	r3, [sp, #4]
100028f2:	bd08      	pop	{r3, pc}
100028f4:	2e8bdf78 	.word	0x2e8bdf78
100028f8:	00001000 	.word	0x00001000
100028fc:	20000a28 	.word	0x20000a28

10002900 <__wrap___aeabi_d2f>:
10002900:	b418      	push	{r3, r4}
10002902:	4b04      	ldr	r3, [pc, #16]	@ (10002914 <__wrap___aeabi_d2f+0x14>)
10002904:	6fdb      	ldr	r3, [r3, #124]	@ 0x7c
10002906:	46fc      	mov	ip, pc
10002908:	9301      	str	r3, [sp, #4]
1000290a:	bd08      	pop	{r3, pc}
1000290c:	2ef9df7c 	.word	0x2ef9df7c
10002910:	00001000 	.word	0x00001000
10002914:	20000a28 	.word	0x20000a28

10002918 <__aeabi_double_init>:
10002918:	2313      	movs	r3, #19
1000291a:	b570      	push	{r4, r5, r6, lr}
1000291c:	781d      	ldrb	r5, [r3, #0]
1000291e:	2d01      	cmp	r5, #1
10002920:	d019      	beq.n	10002956 <__aeabi_double_init+0x3e>
10002922:	dd14      	ble.n	1000294e <__aeabi_double_init+0x36>
10002924:	481f      	ldr	r0, [pc, #124]	@ (100029a4 <__aeabi_double_init+0x8c>)
10002926:	f7ff fb43 	bl	10001fb0 <rom_data_lookup>
1000292a:	0006      	movs	r6, r0
1000292c:	481e      	ldr	r0, [pc, #120]	@ (100029a8 <__aeabi_double_init+0x90>)
1000292e:	f7ff fb3f 	bl	10001fb0 <rom_data_lookup>
10002932:	4c1e      	ldr	r4, [pc, #120]	@ (100029ac <__aeabi_double_init+0x94>)
10002934:	2280      	movs	r2, #128	@ 0x80
10002936:	0031      	movs	r1, r6
10002938:	0020      	movs	r0, r4
1000293a:	f000 fc6d 	bl	10003218 <__wrap___aeabi_memcpy>
1000293e:	2d02      	cmp	r5, #2
10002940:	d02d      	beq.n	1000299e <__aeabi_double_init+0x86>
10002942:	481b      	ldr	r0, [pc, #108]	@ (100029b0 <__aeabi_double_init+0x98>)
10002944:	f7ff fb2c 	bl	10001fa0 <rom_func_lookup>
10002948:	4b1a      	ldr	r3, [pc, #104]	@ (100029b4 <__aeabi_double_init+0x9c>)
1000294a:	6018      	str	r0, [r3, #0]
1000294c:	bd70      	pop	{r4, r5, r6, pc}
1000294e:	4b1a      	ldr	r3, [pc, #104]	@ (100029b8 <__aeabi_double_init+0xa0>)
10002950:	4c16      	ldr	r4, [pc, #88]	@ (100029ac <__aeabi_double_init+0x94>)
10002952:	64a3      	str	r3, [r4, #72]	@ 0x48
10002954:	e7f5      	b.n	10002942 <__aeabi_double_init+0x2a>
10002956:	4b18      	ldr	r3, [pc, #96]	@ (100029b8 <__aeabi_double_init+0xa0>)
10002958:	4c14      	ldr	r4, [pc, #80]	@ (100029ac <__aeabi_double_init+0x94>)
1000295a:	6023      	str	r3, [r4, #0]
1000295c:	6063      	str	r3, [r4, #4]
1000295e:	60a3      	str	r3, [r4, #8]
10002960:	60e3      	str	r3, [r4, #12]
10002962:	6123      	str	r3, [r4, #16]
10002964:	6163      	str	r3, [r4, #20]
10002966:	61a3      	str	r3, [r4, #24]
10002968:	61e3      	str	r3, [r4, #28]
1000296a:	6223      	str	r3, [r4, #32]
1000296c:	6263      	str	r3, [r4, #36]	@ 0x24
1000296e:	62a3      	str	r3, [r4, #40]	@ 0x28
10002970:	62e3      	str	r3, [r4, #44]	@ 0x2c
10002972:	6323      	str	r3, [r4, #48]	@ 0x30
10002974:	6363      	str	r3, [r4, #52]	@ 0x34
10002976:	63a3      	str	r3, [r4, #56]	@ 0x38
10002978:	63e3      	str	r3, [r4, #60]	@ 0x3c
1000297a:	6423      	str	r3, [r4, #64]	@ 0x40
1000297c:	6463      	str	r3, [r4, #68]	@ 0x44
1000297e:	64a3      	str	r3, [r4, #72]	@ 0x48
10002980:	64e3      	str	r3, [r4, #76]	@ 0x4c
10002982:	6523      	str	r3, [r4, #80]	@ 0x50
10002984:	6563      	str	r3, [r4, #84]	@ 0x54
10002986:	65a3      	str	r3, [r4, #88]	@ 0x58
10002988:	65e3      	str	r3, [r4, #92]	@ 0x5c
1000298a:	6623      	str	r3, [r4, #96]	@ 0x60
1000298c:	6663      	str	r3, [r4, #100]	@ 0x64
1000298e:	66a3      	str	r3, [r4, #104]	@ 0x68
10002990:	66e3      	str	r3, [r4, #108]	@ 0x6c
10002992:	6723      	str	r3, [r4, #112]	@ 0x70
10002994:	6763      	str	r3, [r4, #116]	@ 0x74
10002996:	67a3      	str	r3, [r4, #120]	@ 0x78
10002998:	67e3      	str	r3, [r4, #124]	@ 0x7c
1000299a:	64a3      	str	r3, [r4, #72]	@ 0x48
1000299c:	e7d1      	b.n	10002942 <__aeabi_double_init+0x2a>
1000299e:	4b06      	ldr	r3, [pc, #24]	@ (100029b8 <__aeabi_double_init+0xa0>)
100029a0:	64a3      	str	r3, [r4, #72]	@ 0x48
100029a2:	e7ce      	b.n	10002942 <__aeabi_double_init+0x2a>
100029a4:	00004453 	.word	0x00004453
100029a8:	00004653 	.word	0x00004653
100029ac:	20000a28 	.word	0x20000a28
100029b0:	0000334c 	.word	0x0000334c
100029b4:	20000e94 	.word	0x20000e94
100029b8:	100029bd 	.word	0x100029bd

100029bc <double_table_shim_on_use_helper>:
100029bc:	b507      	push	{r0, r1, r2, lr}
100029be:	4660      	mov	r0, ip
100029c0:	8801      	ldrh	r1, [r0, #0]
100029c2:	0a0a      	lsrs	r2, r1, #8
100029c4:	3002      	adds	r0, #2
100029c6:	2adf      	cmp	r2, #223	@ 0xdf
100029c8:	d1fa      	bne.n	100029c0 <double_table_shim_on_use_helper+0x4>
100029ca:	b2c9      	uxtb	r1, r1
100029cc:	0882      	lsrs	r2, r0, #2
100029ce:	d304      	bcc.n	100029da <double_table_shim_on_use_helper+0x1e>
100029d0:	8802      	ldrh	r2, [r0, #0]
100029d2:	8840      	ldrh	r0, [r0, #2]
100029d4:	0400      	lsls	r0, r0, #16
100029d6:	4310      	orrs	r0, r2
100029d8:	e000      	b.n	100029dc <double_table_shim_on_use_helper+0x20>
100029da:	6800      	ldr	r0, [r0, #0]
100029dc:	4a01      	ldr	r2, [pc, #4]	@ (100029e4 <double_table_shim_on_use_helper+0x28>)
100029de:	5050      	str	r0, [r2, r1]
100029e0:	9003      	str	r0, [sp, #12]
100029e2:	bd07      	pop	{r0, r1, r2, pc}
100029e4:	20000a28 	.word	0x20000a28

100029e8 <drsub_shim>:
100029e8:	b40f      	push	{r0, r1, r2, r3}
100029ea:	bc03      	pop	{r0, r1}
100029ec:	bc0c      	pop	{r2, r3}

100029ee <dsub_shim>:
100029ee:	b5f0      	push	{r4, r5, r6, r7, lr}
100029f0:	2401      	movs	r4, #1
100029f2:	07e4      	lsls	r4, r4, #31
100029f4:	4063      	eors	r3, r4
100029f6:	e000      	b.n	100029fa <da_entry>

100029f8 <dadd_shim>:
100029f8:	b5f0      	push	{r4, r5, r6, r7, lr}

100029fa <da_entry>:
100029fa:	0d0c      	lsrs	r4, r1, #20
100029fc:	0fcf      	lsrs	r7, r1, #31
100029fe:	1e66      	subs	r6, r4, #1
10002a00:	0536      	lsls	r6, r6, #20
10002a02:	1b89      	subs	r1, r1, r6
10002a04:	0564      	lsls	r4, r4, #21
10002a06:	d303      	bcc.n	10002a10 <l8_1>
10002a08:	43c9      	mvns	r1, r1
10002a0a:	4240      	negs	r0, r0
10002a0c:	d300      	bcc.n	10002a10 <l8_1>
10002a0e:	3101      	adds	r1, #1

10002a10 <l8_1>:
10002a10:	0d64      	lsrs	r4, r4, #21
10002a12:	d003      	beq.n	10002a1c <l8_2>
10002a14:	1c66      	adds	r6, r4, #1
10002a16:	0af6      	lsrs	r6, r6, #11
10002a18:	d007      	beq.n	10002a2a <l8_3>
10002a1a:	1be4      	subs	r4, r4, r7

10002a1c <l8_2>:
10002a1c:	2000      	movs	r0, #0
10002a1e:	007f      	lsls	r7, r7, #1
10002a20:	1c79      	adds	r1, r7, #1
10002a22:	0789      	lsls	r1, r1, #30
10002a24:	1289      	asrs	r1, r1, #10
10002a26:	3c80      	subs	r4, #128	@ 0x80
10002a28:	0324      	lsls	r4, r4, #12

10002a2a <l8_3>:
10002a2a:	0d1d      	lsrs	r5, r3, #20
10002a2c:	0fdf      	lsrs	r7, r3, #31
10002a2e:	1e6e      	subs	r6, r5, #1
10002a30:	0536      	lsls	r6, r6, #20
10002a32:	1b9b      	subs	r3, r3, r6
10002a34:	056d      	lsls	r5, r5, #21
10002a36:	d303      	bcc.n	10002a40 <l9_1>
10002a38:	43db      	mvns	r3, r3
10002a3a:	4252      	negs	r2, r2
10002a3c:	d300      	bcc.n	10002a40 <l9_1>
10002a3e:	3301      	adds	r3, #1

10002a40 <l9_1>:
10002a40:	0d6d      	lsrs	r5, r5, #21
10002a42:	d003      	beq.n	10002a4c <l9_2>
10002a44:	1c6e      	adds	r6, r5, #1
10002a46:	0af6      	lsrs	r6, r6, #11
10002a48:	d007      	beq.n	10002a5a <l9_3>
10002a4a:	1bed      	subs	r5, r5, r7

10002a4c <l9_2>:
10002a4c:	2200      	movs	r2, #0
10002a4e:	007f      	lsls	r7, r7, #1
10002a50:	1c7b      	adds	r3, r7, #1
10002a52:	079b      	lsls	r3, r3, #30
10002a54:	129b      	asrs	r3, r3, #10
10002a56:	3d80      	subs	r5, #128	@ 0x80
10002a58:	032d      	lsls	r5, r5, #12

10002a5a <l9_3>:
10002a5a:	1b2f      	subs	r7, r5, r4
10002a5c:	1b66      	subs	r6, r4, r5
10002a5e:	d458      	bmi.n	10002b12 <da_ygtx>
10002a60:	46a4      	mov	ip, r4
10002a62:	2e20      	cmp	r6, #32
10002a64:	da46      	bge.n	10002af4 <da_xrgty>
10002a66:	3720      	adds	r7, #32
10002a68:	0014      	movs	r4, r2
10002a6a:	40bc      	lsls	r4, r7

10002a6c <da_xgty0>:
10002a6c:	001d      	movs	r5, r3
10002a6e:	40bd      	lsls	r5, r7
10002a70:	40f2      	lsrs	r2, r6
10002a72:	4133      	asrs	r3, r6
10002a74:	432a      	orrs	r2, r5

10002a76 <da_add>:
10002a76:	1880      	adds	r0, r0, r2
10002a78:	4159      	adcs	r1, r3

10002a7a <da_pack>:
10002a7a:	0fcb      	lsrs	r3, r1, #31
10002a7c:	d005      	beq.n	10002a8a <da_pack+0x10>
10002a7e:	43c9      	mvns	r1, r1
10002a80:	43c0      	mvns	r0, r0
10002a82:	2200      	movs	r2, #0
10002a84:	4264      	negs	r4, r4
10002a86:	4150      	adcs	r0, r2
10002a88:	4151      	adcs	r1, r2
10002a8a:	4662      	mov	r2, ip
10002a8c:	0d4d      	lsrs	r5, r1, #21
10002a8e:	d128      	bne.n	10002ae2 <da_0>
10002a90:	0d0d      	lsrs	r5, r1, #20
10002a92:	d107      	bne.n	10002aa4 <da_1>
10002a94:	2800      	cmp	r0, #0
10002a96:	d01f      	beq.n	10002ad8 <da_5>

10002a98 <da_2>:
10002a98:	1924      	adds	r4, r4, r4
10002a9a:	4140      	adcs	r0, r0
10002a9c:	4149      	adcs	r1, r1
10002a9e:	3a01      	subs	r2, #1
10002aa0:	0d0d      	lsrs	r5, r1, #20
10002aa2:	d0f9      	beq.n	10002a98 <da_2>

10002aa4 <da_1>:
10002aa4:	0064      	lsls	r4, r4, #1
10002aa6:	d306      	bcc.n	10002ab6 <da_3>

10002aa8 <da_4>:
10002aa8:	3001      	adds	r0, #1
10002aaa:	d300      	bcc.n	10002aae <da_4+0x6>
10002aac:	3101      	adds	r1, #1
10002aae:	2c00      	cmp	r4, #0
10002ab0:	d101      	bne.n	10002ab6 <da_3>
10002ab2:	0840      	lsrs	r0, r0, #1
10002ab4:	0040      	lsls	r0, r0, #1

10002ab6 <da_3>:
10002ab6:	3a01      	subs	r2, #1
10002ab8:	d40b      	bmi.n	10002ad2 <da_6>
10002aba:	1c94      	adds	r4, r2, #2
10002abc:	0ae4      	lsrs	r4, r4, #11
10002abe:	d104      	bne.n	10002aca <da_7>
10002ac0:	0512      	lsls	r2, r2, #20
10002ac2:	4411      	add	r1, r2
10002ac4:	07db      	lsls	r3, r3, #31
10002ac6:	4419      	add	r1, r3
10002ac8:	bdf0      	pop	{r4, r5, r6, r7, pc}

10002aca <da_7>:
10002aca:	07d9      	lsls	r1, r3, #31
10002acc:	4b20      	ldr	r3, [pc, #128]	@ (10002b50 <da_xmgty+0x4>)
10002ace:	4319      	orrs	r1, r3
10002ad0:	e000      	b.n	10002ad4 <da_6+0x2>

10002ad2 <da_6>:
10002ad2:	07d9      	lsls	r1, r3, #31
10002ad4:	2000      	movs	r0, #0
10002ad6:	bdf0      	pop	{r4, r5, r6, r7, pc}

10002ad8 <da_5>:
10002ad8:	2900      	cmp	r1, #0
10002ada:	d1dd      	bne.n	10002a98 <da_2>
10002adc:	2c00      	cmp	r4, #0
10002ade:	d1db      	bne.n	10002a98 <da_2>
10002ae0:	bdf0      	pop	{r4, r5, r6, r7, pc}

10002ae2 <da_0>:
10002ae2:	3201      	adds	r2, #1
10002ae4:	07c6      	lsls	r6, r0, #31
10002ae6:	0840      	lsrs	r0, r0, #1
10002ae8:	07cd      	lsls	r5, r1, #31
10002aea:	4328      	orrs	r0, r5
10002aec:	0849      	lsrs	r1, r1, #1
10002aee:	2e00      	cmp	r6, #0
10002af0:	d0e1      	beq.n	10002ab6 <da_3>
10002af2:	e7d9      	b.n	10002aa8 <da_4>

10002af4 <da_xrgty>:
10002af4:	2e3c      	cmp	r6, #60	@ 0x3c
10002af6:	da29      	bge.n	10002b4c <da_xmgty>
10002af8:	3e20      	subs	r6, #32
10002afa:	3740      	adds	r7, #64	@ 0x40
10002afc:	0014      	movs	r4, r2
10002afe:	40bc      	lsls	r4, r7
10002b00:	d000      	beq.n	10002b04 <da_xrgty+0x10>
10002b02:	2401      	movs	r4, #1
10002b04:	40f2      	lsrs	r2, r6
10002b06:	4314      	orrs	r4, r2
10002b08:	001a      	movs	r2, r3
10002b0a:	40bb      	lsls	r3, r7
10002b0c:	431c      	orrs	r4, r3
10002b0e:	17d3      	asrs	r3, r2, #31
10002b10:	e7ac      	b.n	10002a6c <da_xgty0>

10002b12 <da_ygtx>:
10002b12:	46ac      	mov	ip, r5
10002b14:	2f20      	cmp	r7, #32
10002b16:	da08      	bge.n	10002b2a <da_yrgtx>
10002b18:	3620      	adds	r6, #32
10002b1a:	0004      	movs	r4, r0
10002b1c:	40b4      	lsls	r4, r6

10002b1e <da_ygtx0>:
10002b1e:	000d      	movs	r5, r1
10002b20:	40b5      	lsls	r5, r6
10002b22:	40f8      	lsrs	r0, r7
10002b24:	4139      	asrs	r1, r7
10002b26:	4328      	orrs	r0, r5
10002b28:	e7a5      	b.n	10002a76 <da_add>

10002b2a <da_yrgtx>:
10002b2a:	2f3c      	cmp	r7, #60	@ 0x3c
10002b2c:	da0c      	bge.n	10002b48 <da_ymgtx>
10002b2e:	3f20      	subs	r7, #32
10002b30:	3640      	adds	r6, #64	@ 0x40
10002b32:	0004      	movs	r4, r0
10002b34:	40b4      	lsls	r4, r6
10002b36:	d000      	beq.n	10002b3a <da_yrgtx+0x10>
10002b38:	2401      	movs	r4, #1
10002b3a:	40f8      	lsrs	r0, r7
10002b3c:	4304      	orrs	r4, r0
10002b3e:	0008      	movs	r0, r1
10002b40:	40b1      	lsls	r1, r6
10002b42:	430c      	orrs	r4, r1
10002b44:	17c1      	asrs	r1, r0, #31
10002b46:	e7ea      	b.n	10002b1e <da_ygtx0>

10002b48 <da_ymgtx>:
10002b48:	0010      	movs	r0, r2
10002b4a:	0019      	movs	r1, r3

10002b4c <da_xmgty>:
10002b4c:	2400      	movs	r4, #0
10002b4e:	e794      	b.n	10002a7a <da_pack>
10002b50:	7ff00000 	.word	0x7ff00000

10002b54 <dmul_shim>:
10002b54:	b5f0      	push	{r4, r5, r6, r7, lr}
10002b56:	0d0c      	lsrs	r4, r1, #20
10002b58:	1e66      	subs	r6, r4, #1
10002b5a:	0536      	lsls	r6, r6, #20
10002b5c:	1b89      	subs	r1, r1, r6
10002b5e:	0ae6      	lsrs	r6, r4, #11
10002b60:	0564      	lsls	r4, r4, #21
10002b62:	0d64      	lsrs	r4, r4, #21
10002b64:	d002      	beq.n	10002b6c <l12_1>
10002b66:	1c65      	adds	r5, r4, #1
10002b68:	0aed      	lsrs	r5, r5, #11
10002b6a:	d004      	beq.n	10002b76 <l12_2>

10002b6c <l12_1>:
10002b6c:	2000      	movs	r0, #0
10002b6e:	2101      	movs	r1, #1
10002b70:	0509      	lsls	r1, r1, #20
10002b72:	3c80      	subs	r4, #128	@ 0x80
10002b74:	0324      	lsls	r4, r4, #12

10002b76 <l12_2>:
10002b76:	46a4      	mov	ip, r4
10002b78:	0d1c      	lsrs	r4, r3, #20
10002b7a:	1e67      	subs	r7, r4, #1
10002b7c:	053f      	lsls	r7, r7, #20
10002b7e:	1bdb      	subs	r3, r3, r7
10002b80:	0ae7      	lsrs	r7, r4, #11
10002b82:	0564      	lsls	r4, r4, #21
10002b84:	0d64      	lsrs	r4, r4, #21
10002b86:	d002      	beq.n	10002b8e <l13_1>
10002b88:	1c65      	adds	r5, r4, #1
10002b8a:	0aed      	lsrs	r5, r5, #11
10002b8c:	d004      	beq.n	10002b98 <l13_2>

10002b8e <l13_1>:
10002b8e:	2200      	movs	r2, #0
10002b90:	2301      	movs	r3, #1
10002b92:	051b      	lsls	r3, r3, #20
10002b94:	3c80      	subs	r4, #128	@ 0x80
10002b96:	0324      	lsls	r4, r4, #12

10002b98 <l13_2>:
10002b98:	4077      	eors	r7, r6
10002b9a:	4464      	add	r4, ip
10002b9c:	b497      	push	{r0, r1, r2, r4, r7}
10002b9e:	b284      	uxth	r4, r0
10002ba0:	b296      	uxth	r6, r2
10002ba2:	4374      	muls	r4, r6
10002ba4:	0c07      	lsrs	r7, r0, #16
10002ba6:	437e      	muls	r6, r7
10002ba8:	0c15      	lsrs	r5, r2, #16
10002baa:	436f      	muls	r7, r5
10002bac:	b280      	uxth	r0, r0
10002bae:	4368      	muls	r0, r5
10002bb0:	1836      	adds	r6, r6, r0
10002bb2:	d302      	bcc.n	10002bba <l14_1>
10002bb4:	2001      	movs	r0, #1
10002bb6:	0400      	lsls	r0, r0, #16
10002bb8:	183f      	adds	r7, r7, r0

10002bba <l14_1>:
10002bba:	0430      	lsls	r0, r6, #16
10002bbc:	0c35      	lsrs	r5, r6, #16
10002bbe:	1900      	adds	r0, r0, r4
10002bc0:	417d      	adcs	r5, r7
10002bc2:	4684      	mov	ip, r0
10002bc4:	b288      	uxth	r0, r1
10002bc6:	b29a      	uxth	r2, r3
10002bc8:	4350      	muls	r0, r2
10002bca:	0c0c      	lsrs	r4, r1, #16
10002bcc:	4362      	muls	r2, r4
10002bce:	0c1f      	lsrs	r7, r3, #16
10002bd0:	437c      	muls	r4, r7
10002bd2:	b28e      	uxth	r6, r1
10002bd4:	437e      	muls	r6, r7
10002bd6:	1992      	adds	r2, r2, r6
10002bd8:	d302      	bcc.n	10002be0 <l15_1>
10002bda:	2601      	movs	r6, #1
10002bdc:	0436      	lsls	r6, r6, #16
10002bde:	19a4      	adds	r4, r4, r6

10002be0 <l15_1>:
10002be0:	0416      	lsls	r6, r2, #16
10002be2:	0c17      	lsrs	r7, r2, #16
10002be4:	1836      	adds	r6, r6, r0
10002be6:	4167      	adcs	r7, r4
10002be8:	bc01      	pop	{r0}
10002bea:	b281      	uxth	r1, r0
10002bec:	b29a      	uxth	r2, r3
10002bee:	4351      	muls	r1, r2
10002bf0:	0c04      	lsrs	r4, r0, #16
10002bf2:	4362      	muls	r2, r4
10002bf4:	0c1b      	lsrs	r3, r3, #16
10002bf6:	435c      	muls	r4, r3
10002bf8:	b280      	uxth	r0, r0
10002bfa:	4358      	muls	r0, r3
10002bfc:	1812      	adds	r2, r2, r0
10002bfe:	d302      	bcc.n	10002c06 <l16_1>
10002c00:	2001      	movs	r0, #1
10002c02:	0400      	lsls	r0, r0, #16
10002c04:	1824      	adds	r4, r4, r0

10002c06 <l16_1>:
10002c06:	0410      	lsls	r0, r2, #16
10002c08:	0c13      	lsrs	r3, r2, #16
10002c0a:	1840      	adds	r0, r0, r1
10002c0c:	4163      	adcs	r3, r4
10002c0e:	182d      	adds	r5, r5, r0
10002c10:	415e      	adcs	r6, r3
10002c12:	2000      	movs	r0, #0
10002c14:	4147      	adcs	r7, r0
10002c16:	bc06      	pop	{r1, r2}
10002c18:	b288      	uxth	r0, r1
10002c1a:	b293      	uxth	r3, r2
10002c1c:	4358      	muls	r0, r3
10002c1e:	0c0c      	lsrs	r4, r1, #16
10002c20:	4363      	muls	r3, r4
10002c22:	0c12      	lsrs	r2, r2, #16
10002c24:	4354      	muls	r4, r2
10002c26:	b289      	uxth	r1, r1
10002c28:	4351      	muls	r1, r2
10002c2a:	185b      	adds	r3, r3, r1
10002c2c:	d302      	bcc.n	10002c34 <l17_1>
10002c2e:	2101      	movs	r1, #1
10002c30:	0409      	lsls	r1, r1, #16
10002c32:	1864      	adds	r4, r4, r1

10002c34 <l17_1>:
10002c34:	0419      	lsls	r1, r3, #16
10002c36:	0c1a      	lsrs	r2, r3, #16
10002c38:	1809      	adds	r1, r1, r0
10002c3a:	4162      	adcs	r2, r4
10002c3c:	186d      	adds	r5, r5, r1
10002c3e:	4156      	adcs	r6, r2
10002c40:	2000      	movs	r0, #0
10002c42:	4147      	adcs	r7, r0
10002c44:	bc18      	pop	{r3, r4}
10002c46:	02f9      	lsls	r1, r7, #11
10002c48:	0d72      	lsrs	r2, r6, #21
10002c4a:	4311      	orrs	r1, r2
10002c4c:	02f0      	lsls	r0, r6, #11
10002c4e:	0d6a      	lsrs	r2, r5, #21
10002c50:	4310      	orrs	r0, r2
10002c52:	02ed      	lsls	r5, r5, #11
10002c54:	0d0a      	lsrs	r2, r1, #20
10002c56:	d103      	bne.n	10002c60 <l17_1+0x2c>
10002c58:	196d      	adds	r5, r5, r5
10002c5a:	4140      	adcs	r0, r0
10002c5c:	4149      	adcs	r1, r1
10002c5e:	3b01      	subs	r3, #1
10002c60:	4e12      	ldr	r6, [pc, #72]	@ (10002cac <dm_1+0xa>)
10002c62:	1b9b      	subs	r3, r3, r6
10002c64:	0076      	lsls	r6, r6, #1
10002c66:	42b3      	cmp	r3, r6
10002c68:	d20e      	bcs.n	10002c88 <dm_0>
10002c6a:	006d      	lsls	r5, r5, #1
10002c6c:	d307      	bcc.n	10002c7e <l17_1+0x4a>
10002c6e:	3001      	adds	r0, #1
10002c70:	2600      	movs	r6, #0
10002c72:	4171      	adcs	r1, r6
10002c74:	4666      	mov	r6, ip
10002c76:	4335      	orrs	r5, r6
10002c78:	d101      	bne.n	10002c7e <l17_1+0x4a>
10002c7a:	0840      	lsrs	r0, r0, #1
10002c7c:	0040      	lsls	r0, r0, #1
10002c7e:	051b      	lsls	r3, r3, #20
10002c80:	18c9      	adds	r1, r1, r3

10002c82 <dm_2>:
10002c82:	07e4      	lsls	r4, r4, #31
10002c84:	4421      	add	r1, r4
10002c86:	bdf0      	pop	{r4, r5, r6, r7, pc}

10002c88 <dm_0>:
10002c88:	da0b      	bge.n	10002ca2 <dm_1>
10002c8a:	3301      	adds	r3, #1
10002c8c:	d106      	bne.n	10002c9c <dm_0+0x14>
10002c8e:	3001      	adds	r0, #1
10002c90:	d104      	bne.n	10002c9c <dm_0+0x14>
10002c92:	3101      	adds	r1, #1
10002c94:	0d4f      	lsrs	r7, r1, #21
10002c96:	d001      	beq.n	10002c9c <dm_0+0x14>
10002c98:	0849      	lsrs	r1, r1, #1
10002c9a:	e7f2      	b.n	10002c82 <dm_2>
10002c9c:	07e1      	lsls	r1, r4, #31
10002c9e:	2000      	movs	r0, #0
10002ca0:	bdf0      	pop	{r4, r5, r6, r7, pc}

10002ca2 <dm_1>:
10002ca2:	3601      	adds	r6, #1
10002ca4:	0531      	lsls	r1, r6, #20
10002ca6:	2000      	movs	r0, #0
10002ca8:	e7eb      	b.n	10002c82 <dm_2>
10002caa:	0000      	.short	0x0000
10002cac:	000003ff 	.word	0x000003ff

10002cb0 <ddiv_shim>:
10002cb0:	b5f0      	push	{r4, r5, r6, r7, lr}

10002cb2 <ddiv0>:
10002cb2:	0d1c      	lsrs	r4, r3, #20
10002cb4:	1e67      	subs	r7, r4, #1
10002cb6:	053f      	lsls	r7, r7, #20
10002cb8:	1bdb      	subs	r3, r3, r7
10002cba:	0ae7      	lsrs	r7, r4, #11
10002cbc:	0564      	lsls	r4, r4, #21
10002cbe:	0d64      	lsrs	r4, r4, #21
10002cc0:	d002      	beq.n	10002cc8 <l20_1>
10002cc2:	1c66      	adds	r6, r4, #1
10002cc4:	0af6      	lsrs	r6, r6, #11
10002cc6:	d004      	beq.n	10002cd2 <l20_2>

10002cc8 <l20_1>:
10002cc8:	2200      	movs	r2, #0
10002cca:	2301      	movs	r3, #1
10002ccc:	051b      	lsls	r3, r3, #20
10002cce:	3c80      	subs	r4, #128	@ 0x80
10002cd0:	0324      	lsls	r4, r4, #12

10002cd2 <l20_2>:
10002cd2:	25d0      	movs	r5, #208	@ 0xd0
10002cd4:	062d      	lsls	r5, r5, #24
10002cd6:	2600      	movs	r6, #0
10002cd8:	43f6      	mvns	r6, r6
10002cda:	662e      	str	r6, [r5, #96]	@ 0x60
10002cdc:	091e      	lsrs	r6, r3, #4
10002cde:	666e      	str	r6, [r5, #100]	@ 0x64
10002ce0:	0fce      	lsrs	r6, r1, #31
10002ce2:	19f6      	adds	r6, r6, r7
10002ce4:	46b4      	mov	ip, r6
10002ce6:	0049      	lsls	r1, r1, #1
10002ce8:	0d4f      	lsrs	r7, r1, #21
10002cea:	d002      	beq.n	10002cf2 <l20_2+0x20>
10002cec:	1c7e      	adds	r6, r7, #1
10002cee:	0af6      	lsrs	r6, r6, #11
10002cf0:	d003      	beq.n	10002cfa <l20_2+0x28>
10002cf2:	2000      	movs	r0, #0
10002cf4:	2100      	movs	r1, #0
10002cf6:	3f40      	subs	r7, #64	@ 0x40
10002cf8:	033f      	lsls	r7, r7, #12
10002cfa:	1b3e      	subs	r6, r7, r4
10002cfc:	00b6      	lsls	r6, r6, #2
10002cfe:	44b4      	add	ip, r6
10002d00:	3f01      	subs	r7, #1
10002d02:	057f      	lsls	r7, r7, #21
10002d04:	1bc9      	subs	r1, r1, r7
10002d06:	0849      	lsrs	r1, r1, #1
10002d08:	6f2e      	ldr	r6, [r5, #112]	@ 0x70
10002d0a:	3601      	adds	r6, #1
10002d0c:	0876      	lsrs	r6, r6, #1
10002d0e:	029c      	lsls	r4, r3, #10
10002d10:	0d95      	lsrs	r5, r2, #22
10002d12:	4325      	orrs	r5, r4
10002d14:	4375      	muls	r5, r6
10002d16:	13ed      	asrs	r5, r5, #15
10002d18:	4375      	muls	r5, r6
10002d1a:	13ad      	asrs	r5, r5, #14
10002d1c:	3501      	adds	r5, #1
10002d1e:	106d      	asrs	r5, r5, #1
10002d20:	03f6      	lsls	r6, r6, #15
10002d22:	1b76      	subs	r6, r6, r5
10002d24:	b40c      	push	{r2, r3}
10002d26:	02cc      	lsls	r4, r1, #11
10002d28:	0d45      	lsrs	r5, r0, #21
10002d2a:	432c      	orrs	r4, r5
10002d2c:	b2a2      	uxth	r2, r4
10002d2e:	b2b3      	uxth	r3, r6
10002d30:	435a      	muls	r2, r3
10002d32:	0c27      	lsrs	r7, r4, #16
10002d34:	437b      	muls	r3, r7
10002d36:	0c35      	lsrs	r5, r6, #16
10002d38:	436f      	muls	r7, r5
10002d3a:	b2a4      	uxth	r4, r4
10002d3c:	436c      	muls	r4, r5
10002d3e:	191b      	adds	r3, r3, r4
10002d40:	d302      	bcc.n	10002d48 <l21_1>
10002d42:	2401      	movs	r4, #1
10002d44:	0424      	lsls	r4, r4, #16
10002d46:	193f      	adds	r7, r7, r4

10002d48 <l21_1>:
10002d48:	041c      	lsls	r4, r3, #16
10002d4a:	0c1d      	lsrs	r5, r3, #16
10002d4c:	18a4      	adds	r4, r4, r2
10002d4e:	417d      	adcs	r5, r7
10002d50:	1924      	adds	r4, r4, r4
10002d52:	416d      	adcs	r5, r5
10002d54:	9a00      	ldr	r2, [sp, #0]
10002d56:	b291      	uxth	r1, r2
10002d58:	b2ac      	uxth	r4, r5
10002d5a:	4361      	muls	r1, r4
10002d5c:	0c17      	lsrs	r7, r2, #16
10002d5e:	437c      	muls	r4, r7
10002d60:	0c2b      	lsrs	r3, r5, #16
10002d62:	435f      	muls	r7, r3
10002d64:	b292      	uxth	r2, r2
10002d66:	435a      	muls	r2, r3
10002d68:	18a4      	adds	r4, r4, r2
10002d6a:	d302      	bcc.n	10002d72 <l22_1>
10002d6c:	2201      	movs	r2, #1
10002d6e:	0412      	lsls	r2, r2, #16
10002d70:	18bf      	adds	r7, r7, r2

10002d72 <l22_1>:
10002d72:	0422      	lsls	r2, r4, #16
10002d74:	0c23      	lsrs	r3, r4, #16
10002d76:	1852      	adds	r2, r2, r1
10002d78:	417b      	adcs	r3, r7
10002d7a:	9c01      	ldr	r4, [sp, #4]
10002d7c:	436c      	muls	r4, r5
10002d7e:	191b      	adds	r3, r3, r4
10002d80:	0e52      	lsrs	r2, r2, #25
10002d82:	01d9      	lsls	r1, r3, #7
10002d84:	430a      	orrs	r2, r1
10002d86:	0144      	lsls	r4, r0, #5
10002d88:	1aa0      	subs	r0, r4, r2
10002d8a:	b281      	uxth	r1, r0
10002d8c:	b2b2      	uxth	r2, r6
10002d8e:	4351      	muls	r1, r2
10002d90:	1403      	asrs	r3, r0, #16
10002d92:	435a      	muls	r2, r3
10002d94:	0c36      	lsrs	r6, r6, #16
10002d96:	4373      	muls	r3, r6
10002d98:	b287      	uxth	r7, r0
10002d9a:	4377      	muls	r7, r6
10002d9c:	17d6      	asrs	r6, r2, #31
10002d9e:	19d2      	adds	r2, r2, r7
10002da0:	2700      	movs	r7, #0
10002da2:	417e      	adcs	r6, r7
10002da4:	0436      	lsls	r6, r6, #16
10002da6:	199b      	adds	r3, r3, r6
10002da8:	0417      	lsls	r7, r2, #16
10002daa:	0c16      	lsrs	r6, r2, #16
10002dac:	187f      	adds	r7, r7, r1
10002dae:	415e      	adcs	r6, r3
10002db0:	1673      	asrs	r3, r6, #25
10002db2:	18ed      	adds	r5, r5, r3
10002db4:	01f3      	lsls	r3, r6, #7
10002db6:	2600      	movs	r6, #0
10002db8:	3380      	adds	r3, #128	@ 0x80
10002dba:	4175      	adcs	r5, r6
10002dbc:	0fa9      	lsrs	r1, r5, #30
10002dbe:	d106      	bne.n	10002dce <dd_0>
10002dc0:	0064      	lsls	r4, r4, #1
10002dc2:	0a69      	lsrs	r1, r5, #9
10002dc4:	05e8      	lsls	r0, r5, #23
10002dc6:	0a5b      	lsrs	r3, r3, #9
10002dc8:	4318      	orrs	r0, r3
10002dca:	d209      	bcs.n	10002de0 <dd_1>
10002dcc:	e02f      	b.n	10002e2e <dd_2>

10002dce <dd_0>:
10002dce:	2204      	movs	r2, #4
10002dd0:	4494      	add	ip, r2
10002dd2:	3380      	adds	r3, #128	@ 0x80
10002dd4:	4175      	adcs	r5, r6
10002dd6:	0aa9      	lsrs	r1, r5, #10
10002dd8:	05a8      	lsls	r0, r5, #22
10002dda:	0a9b      	lsrs	r3, r3, #10
10002ddc:	4318      	orrs	r0, r3
10002dde:	d326      	bcc.n	10002e2e <dd_2>

10002de0 <dd_1>:
10002de0:	4140      	adcs	r0, r0
10002de2:	4149      	adcs	r1, r1
10002de4:	0424      	lsls	r4, r4, #16
10002de6:	9a00      	ldr	r2, [sp, #0]
10002de8:	9b01      	ldr	r3, [sp, #4]
10002dea:	000d      	movs	r5, r1
10002dec:	4355      	muls	r5, r2
10002dee:	1b64      	subs	r4, r4, r5
10002df0:	4343      	muls	r3, r0
10002df2:	1ae4      	subs	r4, r4, r3
10002df4:	b295      	uxth	r5, r2
10002df6:	b286      	uxth	r6, r0
10002df8:	4375      	muls	r5, r6
10002dfa:	0c17      	lsrs	r7, r2, #16
10002dfc:	437e      	muls	r6, r7
10002dfe:	0c03      	lsrs	r3, r0, #16
10002e00:	435f      	muls	r7, r3
10002e02:	b292      	uxth	r2, r2
10002e04:	435a      	muls	r2, r3
10002e06:	18b6      	adds	r6, r6, r2
10002e08:	d302      	bcc.n	10002e10 <l24_1>
10002e0a:	2201      	movs	r2, #1
10002e0c:	0412      	lsls	r2, r2, #16
10002e0e:	18bf      	adds	r7, r7, r2

10002e10 <l24_1>:
10002e10:	0432      	lsls	r2, r6, #16
10002e12:	0c33      	lsrs	r3, r6, #16
10002e14:	1952      	adds	r2, r2, r5
10002e16:	417b      	adcs	r3, r7
10002e18:	4252      	negs	r2, r2
10002e1a:	419c      	sbcs	r4, r3
10002e1c:	2c00      	cmp	r4, #0
10002e1e:	d402      	bmi.n	10002e26 <l24_1+0x16>
10002e20:	2200      	movs	r2, #0
10002e22:	3001      	adds	r0, #1
10002e24:	4151      	adcs	r1, r2
10002e26:	0840      	lsrs	r0, r0, #1
10002e28:	07ca      	lsls	r2, r1, #31
10002e2a:	4310      	orrs	r0, r2
10002e2c:	0849      	lsrs	r1, r1, #1

10002e2e <dd_2>:
10002e2e:	b002      	add	sp, #8
10002e30:	4662      	mov	r2, ip
10002e32:	07d7      	lsls	r7, r2, #31
10002e34:	1092      	asrs	r2, r2, #2
10002e36:	4b08      	ldr	r3, [pc, #32]	@ (10002e58 <dd_4+0x6>)
10002e38:	18d2      	adds	r2, r2, r3
10002e3a:	4b08      	ldr	r3, [pc, #32]	@ (10002e5c <dd_4+0xa>)
10002e3c:	429a      	cmp	r2, r3
10002e3e:	d203      	bcs.n	10002e48 <dd_3>
10002e40:	0512      	lsls	r2, r2, #20
10002e42:	1889      	adds	r1, r1, r2

10002e44 <dd_5>:
10002e44:	19c9      	adds	r1, r1, r7
10002e46:	bdf0      	pop	{r4, r5, r6, r7, pc}

10002e48 <dd_3>:
10002e48:	2000      	movs	r0, #0
10002e4a:	2a00      	cmp	r2, #0
10002e4c:	dc01      	bgt.n	10002e52 <dd_4>
10002e4e:	0039      	movs	r1, r7
10002e50:	bdf0      	pop	{r4, r5, r6, r7, pc}

10002e52 <dd_4>:
10002e52:	3301      	adds	r3, #1
10002e54:	0519      	lsls	r1, r3, #20
10002e56:	e7f5      	b.n	10002e44 <dd_5>
10002e58:	000003fd 	.word	0x000003fd
10002e5c:	000007fe 	.word	0x000007fe

10002e60 <double2uint_shim>:
10002e60:	2200      	movs	r2, #0

10002e62 <double2ufix_shim>:
10002e62:	b500      	push	{lr}
10002e64:	3220      	adds	r2, #32
10002e66:	f000 f810 	bl	10002e8a <double2ufix64_shim>
10002e6a:	0008      	movs	r0, r1
10002e6c:	bd00      	pop	{pc}

10002e6e <double2int64_shim>:
10002e6e:	2200      	movs	r2, #0

10002e70 <double2fix64_shim>:
10002e70:	b500      	push	{lr}
10002e72:	f000 f80c 	bl	10002e8e <d2fix>
10002e76:	17ca      	asrs	r2, r1, #31
10002e78:	429a      	cmp	r2, r3
10002e7a:	d100      	bne.n	10002e7e <double2fix64_shim+0xe>
10002e7c:	bd00      	pop	{pc}
10002e7e:	43d8      	mvns	r0, r3
10002e80:	2101      	movs	r1, #1
10002e82:	07c9      	lsls	r1, r1, #31
10002e84:	4041      	eors	r1, r0
10002e86:	bd00      	pop	{pc}

10002e88 <double2uint64_shim>:
10002e88:	2200      	movs	r2, #0

10002e8a <double2ufix64_shim>:
10002e8a:	150b      	asrs	r3, r1, #20
10002e8c:	d40a      	bmi.n	10002ea4 <ret_dzero>

10002e8e <d2fix>:
10002e8e:	b510      	push	{r4, lr}
10002e90:	4694      	mov	ip, r2
10002e92:	f000 f8a7 	bl	10002fe4 <dunpacks>
10002e96:	1414      	asrs	r4, r2, #16
10002e98:	3401      	adds	r4, #1
10002e9a:	da00      	bge.n	10002e9e <d2fix+0x10>
10002e9c:	2100      	movs	r1, #0
10002e9e:	17cb      	asrs	r3, r1, #31
10002ea0:	4c14      	ldr	r4, [pc, #80]	@ (10002ef4 <d2fix_a+0x4a>)
10002ea2:	4720      	bx	r4

10002ea4 <ret_dzero>:
10002ea4:	2000      	movs	r0, #0
10002ea6:	2100      	movs	r1, #0
10002ea8:	4770      	bx	lr

10002eaa <d2fix_a>:
10002eaa:	4462      	add	r2, ip
10002eac:	3a34      	subs	r2, #52	@ 0x34
10002eae:	d40c      	bmi.n	10002eca <d2fix_a+0x20>
10002eb0:	2a0c      	cmp	r2, #12
10002eb2:	da07      	bge.n	10002ec4 <d2fix_a+0x1a>
10002eb4:	0004      	movs	r4, r0
10002eb6:	4091      	lsls	r1, r2
10002eb8:	4090      	lsls	r0, r2
10002eba:	4252      	negs	r2, r2
10002ebc:	3220      	adds	r2, #32
10002ebe:	40d4      	lsrs	r4, r2
10002ec0:	4321      	orrs	r1, r4
10002ec2:	bd10      	pop	{r4, pc}
10002ec4:	43d8      	mvns	r0, r3
10002ec6:	43d9      	mvns	r1, r3
10002ec8:	bd10      	pop	{r4, pc}
10002eca:	3220      	adds	r2, #32
10002ecc:	d407      	bmi.n	10002ede <d2fix_a+0x34>
10002ece:	460c      	mov	r4, r1
10002ed0:	4094      	lsls	r4, r2
10002ed2:	4252      	negs	r2, r2
10002ed4:	3220      	adds	r2, #32
10002ed6:	4111      	asrs	r1, r2
10002ed8:	40d0      	lsrs	r0, r2
10002eda:	4320      	orrs	r0, r4
10002edc:	bd10      	pop	{r4, pc}
10002ede:	0008      	movs	r0, r1
10002ee0:	17c9      	asrs	r1, r1, #31
10002ee2:	3220      	adds	r2, #32
10002ee4:	d403      	bmi.n	10002eee <d2fix_a+0x44>
10002ee6:	4252      	negs	r2, r2
10002ee8:	3220      	adds	r2, #32
10002eea:	4110      	asrs	r0, r2
10002eec:	bd10      	pop	{r4, pc}
10002eee:	0018      	movs	r0, r3
10002ef0:	0019      	movs	r1, r3
10002ef2:	bd10      	pop	{r4, pc}
10002ef4:	10002eab 	.word	0x10002eab

10002ef8 <double2float_shim>:
10002ef8:	004a      	lsls	r2, r1, #1
10002efa:	0d52      	lsrs	r2, r2, #21
10002efc:	4b14      	ldr	r3, [pc, #80]	@ (10002f50 <double2float_shim+0x58>)
10002efe:	1ad2      	subs	r2, r2, r3
10002f00:	dd13      	ble.n	10002f2a <double2float_shim+0x32>
10002f02:	2aff      	cmp	r2, #255	@ 0xff
10002f04:	da1e      	bge.n	10002f44 <double2float_shim+0x4c>
10002f06:	05d2      	lsls	r2, r2, #23
10002f08:	0fcb      	lsrs	r3, r1, #31
10002f0a:	07db      	lsls	r3, r3, #31
10002f0c:	431a      	orrs	r2, r3
10002f0e:	00c3      	lsls	r3, r0, #3
10002f10:	0f40      	lsrs	r0, r0, #29
10002f12:	0309      	lsls	r1, r1, #12
10002f14:	0a49      	lsrs	r1, r1, #9
10002f16:	4308      	orrs	r0, r1
10002f18:	4310      	orrs	r0, r2
10002f1a:	005b      	lsls	r3, r3, #1
10002f1c:	d301      	bcc.n	10002f22 <double2float_shim+0x2a>
10002f1e:	d001      	beq.n	10002f24 <double2float_shim+0x2c>
10002f20:	3001      	adds	r0, #1
10002f22:	4770      	bx	lr
10002f24:	0843      	lsrs	r3, r0, #1
10002f26:	d2fb      	bcs.n	10002f20 <double2float_shim+0x28>
10002f28:	4770      	bx	lr
10002f2a:	d002      	beq.n	10002f32 <double2float_shim+0x3a>
10002f2c:	0fc8      	lsrs	r0, r1, #31
10002f2e:	07c0      	lsls	r0, r0, #31
10002f30:	4770      	bx	lr
10002f32:	030a      	lsls	r2, r1, #12
10002f34:	1312      	asrs	r2, r2, #12
10002f36:	3201      	adds	r2, #1
10002f38:	d1f8      	bne.n	10002f2c <double2float_shim+0x34>
10002f3a:	0f42      	lsrs	r2, r0, #29
10002f3c:	2a07      	cmp	r2, #7
10002f3e:	d1f5      	bne.n	10002f2c <double2float_shim+0x34>
10002f40:	2201      	movs	r2, #1
10002f42:	e000      	b.n	10002f46 <double2float_shim+0x4e>
10002f44:	22ff      	movs	r2, #255	@ 0xff
10002f46:	0fc8      	lsrs	r0, r1, #31
10002f48:	0200      	lsls	r0, r0, #8
10002f4a:	1880      	adds	r0, r0, r2
10002f4c:	05c0      	lsls	r0, r0, #23
10002f4e:	4770      	bx	lr
10002f50:	00000380 	.word	0x00000380

10002f54 <uint2double_shim>:
10002f54:	2100      	movs	r1, #0

10002f56 <ufix2double_shim>:
10002f56:	000a      	movs	r2, r1
10002f58:	2100      	movs	r1, #0
10002f5a:	e004      	b.n	10002f66 <ufix642double_shim>

10002f5c <int2double_shim>:
10002f5c:	2100      	movs	r1, #0

10002f5e <fix2double_shim>:
10002f5e:	000a      	movs	r2, r1
10002f60:	17c1      	asrs	r1, r0, #31
10002f62:	e004      	b.n	10002f6e <fix642double_shim>

10002f64 <uint642double_shim>:
10002f64:	2200      	movs	r2, #0

10002f66 <ufix642double_shim>:
10002f66:	2300      	movs	r3, #0
10002f68:	e006      	b.n	10002f78 <uf2d>
10002f6a:	46c0      	nop			@ (mov r8, r8)

10002f6c <int642double_shim>:
10002f6c:	2200      	movs	r2, #0

10002f6e <fix642double_shim>:
10002f6e:	17cb      	asrs	r3, r1, #31
10002f70:	4058      	eors	r0, r3
10002f72:	4059      	eors	r1, r3
10002f74:	1ac0      	subs	r0, r0, r3
10002f76:	4199      	sbcs	r1, r3

10002f78 <uf2d>:
10002f78:	b530      	push	{r4, r5, lr}
10002f7a:	4c18      	ldr	r4, [pc, #96]	@ (10002fdc <uf2d+0x64>)
10002f7c:	1aa2      	subs	r2, r4, r2
10002f7e:	2900      	cmp	r1, #0
10002f80:	d103      	bne.n	10002f8a <uf2d+0x12>
10002f82:	0001      	movs	r1, r0
10002f84:	d010      	beq.n	10002fa8 <uf2d+0x30>
10002f86:	2000      	movs	r0, #0
10002f88:	3a20      	subs	r2, #32
10002f8a:	154c      	asrs	r4, r1, #21
10002f8c:	d112      	bne.n	10002fb4 <uf2d+0x3c>
10002f8e:	d204      	bcs.n	10002f9a <uf2d+0x22>
10002f90:	3a01      	subs	r2, #1
10002f92:	1800      	adds	r0, r0, r0
10002f94:	4149      	adcs	r1, r1
10002f96:	0d4c      	lsrs	r4, r1, #21
10002f98:	d3fa      	bcc.n	10002f90 <uf2d+0x18>
10002f9a:	4c11      	ldr	r4, [pc, #68]	@ (10002fe0 <uf2d+0x68>)
10002f9c:	42a2      	cmp	r2, r4
10002f9e:	d204      	bcs.n	10002faa <uf2d+0x32>
10002fa0:	0512      	lsls	r2, r2, #20
10002fa2:	1889      	adds	r1, r1, r2
10002fa4:	07db      	lsls	r3, r3, #31
10002fa6:	18c9      	adds	r1, r1, r3
10002fa8:	bd30      	pop	{r4, r5, pc}
10002faa:	43d2      	mvns	r2, r2
10002fac:	0d52      	lsrs	r2, r2, #21
10002fae:	2000      	movs	r0, #0
10002fb0:	2100      	movs	r1, #0
10002fb2:	e7f5      	b.n	10002fa0 <uf2d+0x28>
10002fb4:	d403      	bmi.n	10002fbe <uf2d+0x46>
10002fb6:	3a01      	subs	r2, #1
10002fb8:	1800      	adds	r0, r0, r0
10002fba:	4149      	adcs	r1, r1
10002fbc:	d5fb      	bpl.n	10002fb6 <uf2d+0x3e>
10002fbe:	320b      	adds	r2, #11
10002fc0:	0544      	lsls	r4, r0, #21
10002fc2:	0ac0      	lsrs	r0, r0, #11
10002fc4:	054d      	lsls	r5, r1, #21
10002fc6:	4328      	orrs	r0, r5
10002fc8:	0ac9      	lsrs	r1, r1, #11
10002fca:	0064      	lsls	r4, r4, #1
10002fcc:	d003      	beq.n	10002fd6 <uf2d+0x5e>
10002fce:	2400      	movs	r4, #0
10002fd0:	4160      	adcs	r0, r4
10002fd2:	4161      	adcs	r1, r4
10002fd4:	e7e1      	b.n	10002f9a <uf2d+0x22>
10002fd6:	d3e0      	bcc.n	10002f9a <uf2d+0x22>
10002fd8:	0844      	lsrs	r4, r0, #1
10002fda:	e7f8      	b.n	10002fce <uf2d+0x56>
10002fdc:	00000432 	.word	0x00000432
10002fe0:	000007fe 	.word	0x000007fe

10002fe4 <dunpacks>:
10002fe4:	0d0a      	lsrs	r2, r1, #20
10002fe6:	0fcc      	lsrs	r4, r1, #31
10002fe8:	1e53      	subs	r3, r2, #1
10002fea:	051b      	lsls	r3, r3, #20
10002fec:	1ac9      	subs	r1, r1, r3
10002fee:	0552      	lsls	r2, r2, #21
10002ff0:	d303      	bcc.n	10002ffa <l60_1>
10002ff2:	43c9      	mvns	r1, r1
10002ff4:	4240      	negs	r0, r0
10002ff6:	d300      	bcc.n	10002ffa <l60_1>
10002ff8:	3101      	adds	r1, #1

10002ffa <l60_1>:
10002ffa:	0d52      	lsrs	r2, r2, #21
10002ffc:	d003      	beq.n	10003006 <l60_2>
10002ffe:	1c53      	adds	r3, r2, #1
10003000:	0adb      	lsrs	r3, r3, #11
10003002:	d007      	beq.n	10003014 <l60_3>
10003004:	1b12      	subs	r2, r2, r4

10003006 <l60_2>:
10003006:	2000      	movs	r0, #0
10003008:	0064      	lsls	r4, r4, #1
1000300a:	1c61      	adds	r1, r4, #1
1000300c:	0789      	lsls	r1, r1, #30
1000300e:	1289      	asrs	r1, r1, #10
10003010:	3a80      	subs	r2, #128	@ 0x80
10003012:	0312      	lsls	r2, r2, #12

10003014 <l60_3>:
10003014:	4b01      	ldr	r3, [pc, #4]	@ (1000301c <l60_3+0x8>)
10003016:	1ad2      	subs	r2, r2, r3
10003018:	4770      	bx	lr
1000301a:	0000      	.short	0x0000
1000301c:	000003ff 	.word	0x000003ff

10003020 <__wrap___aeabi_lmul>:
10003020:	4351      	muls	r1, r2
10003022:	4343      	muls	r3, r0
10003024:	18c9      	adds	r1, r1, r3
10003026:	468c      	mov	ip, r1
10003028:	0c11      	lsrs	r1, r2, #16
1000302a:	b283      	uxth	r3, r0
1000302c:	434b      	muls	r3, r1
1000302e:	b410      	push	{r4}
10003030:	0c04      	lsrs	r4, r0, #16
10003032:	4361      	muls	r1, r4
10003034:	b292      	uxth	r2, r2
10003036:	b280      	uxth	r0, r0
10003038:	4350      	muls	r0, r2
1000303a:	4362      	muls	r2, r4
1000303c:	041c      	lsls	r4, r3, #16
1000303e:	0c1b      	lsrs	r3, r3, #16
10003040:	1900      	adds	r0, r0, r4
10003042:	bc10      	pop	{r4}
10003044:	4159      	adcs	r1, r3
10003046:	0413      	lsls	r3, r2, #16
10003048:	0c12      	lsrs	r2, r2, #16
1000304a:	18c0      	adds	r0, r0, r3
1000304c:	4151      	adcs	r1, r2
1000304e:	4461      	add	r1, ip
10003050:	4770      	bx	lr

10003052 <__wrap___aeabi_f2iz>:
10003052:	0041      	lsls	r1, r0, #1
10003054:	0e0a      	lsrs	r2, r1, #24
10003056:	2380      	movs	r3, #128	@ 0x80
10003058:	061b      	lsls	r3, r3, #24
1000305a:	2a7e      	cmp	r2, #126	@ 0x7e
1000305c:	dd0b      	ble.n	10003076 <__wrap___aeabi_f2iz+0x24>
1000305e:	3a9e      	subs	r2, #158	@ 0x9e
10003060:	da0b      	bge.n	1000307a <__wrap___aeabi_f2iz+0x28>
10003062:	17c1      	asrs	r1, r0, #31
10003064:	0240      	lsls	r0, r0, #9
10003066:	0840      	lsrs	r0, r0, #1
10003068:	4318      	orrs	r0, r3
1000306a:	4252      	negs	r2, r2
1000306c:	40d0      	lsrs	r0, r2
1000306e:	0049      	lsls	r1, r1, #1
10003070:	3101      	adds	r1, #1
10003072:	4348      	muls	r0, r1
10003074:	4770      	bx	lr
10003076:	2000      	movs	r0, #0
10003078:	4770      	bx	lr
1000307a:	0fc0      	lsrs	r0, r0, #31
1000307c:	18c0      	adds	r0, r0, r3
1000307e:	3801      	subs	r0, #1
10003080:	4770      	bx	lr
10003082:	42c0      	cmn	r0, r0
10003084:	d30c      	bcc.n	100030a0 <float2int>
10003086:	b500      	push	{lr}
10003088:	0040      	lsls	r0, r0, #1
1000308a:	0840      	lsrs	r0, r0, #1
1000308c:	2100      	movs	r1, #0
1000308e:	f000 f811 	bl	100030b4 <__wrap___aeabi_f2uiz>
10003092:	2800      	cmp	r0, #0
10003094:	d401      	bmi.n	1000309a <__wrap___aeabi_f2iz+0x48>
10003096:	4240      	negs	r0, r0
10003098:	bd00      	pop	{pc}
1000309a:	2080      	movs	r0, #128	@ 0x80
1000309c:	0600      	lsls	r0, r0, #24
1000309e:	bd00      	pop	{pc}

100030a0 <float2int>:
100030a0:	4b03      	ldr	r3, [pc, #12]	@ (100030b0 <float2int+0x10>)
100030a2:	69db      	ldr	r3, [r3, #28]
100030a4:	46fc      	mov	ip, pc
100030a6:	4718      	bx	r3
100030a8:	3165df1c 	.word	0x3165df1c
100030ac:	00001000 	.word	0x00001000
100030b0:	20000b28 	.word	0x20000b28

100030b4 <__wrap___aeabi_f2uiz>:
100030b4:	4b01      	ldr	r3, [pc, #4]	@ (100030bc <__wrap___aeabi_f2uiz+0x8>)
100030b6:	6a5b      	ldr	r3, [r3, #36]	@ 0x24
100030b8:	4718      	bx	r3
100030ba:	0000      	.short	0x0000
100030bc:	20000b28 	.word	0x20000b28

100030c0 <__wrap___aeabi_f2d>:
100030c0:	4b03      	ldr	r3, [pc, #12]	@ (100030d0 <__wrap___aeabi_f2d+0x10>)
100030c2:	6fdb      	ldr	r3, [r3, #124]	@ 0x7c
100030c4:	46fc      	mov	ip, pc
100030c6:	4718      	bx	r3
100030c8:	317ddf7c 	.word	0x317ddf7c
100030cc:	00001000 	.word	0x00001000
100030d0:	20000b28 	.word	0x20000b28

100030d4 <__aeabi_float_init>:
100030d4:	2313      	movs	r3, #19
100030d6:	b510      	push	{r4, lr}
100030d8:	4812      	ldr	r0, [pc, #72]	@ (10003124 <__aeabi_float_init+0x50>)
100030da:	781c      	ldrb	r4, [r3, #0]
100030dc:	f7fe ff68 	bl	10001fb0 <rom_data_lookup>
100030e0:	0001      	movs	r1, r0
100030e2:	2c01      	cmp	r4, #1
100030e4:	d00a      	beq.n	100030fc <__aeabi_float_init+0x28>
100030e6:	dd03      	ble.n	100030f0 <__aeabi_float_init+0x1c>
100030e8:	2280      	movs	r2, #128	@ 0x80
100030ea:	480f      	ldr	r0, [pc, #60]	@ (10003128 <__aeabi_float_init+0x54>)
100030ec:	f000 f894 	bl	10003218 <__wrap___aeabi_memcpy>
100030f0:	480e      	ldr	r0, [pc, #56]	@ (1000312c <__aeabi_float_init+0x58>)
100030f2:	f7fe ff55 	bl	10001fa0 <rom_func_lookup>
100030f6:	4b0e      	ldr	r3, [pc, #56]	@ (10003130 <__aeabi_float_init+0x5c>)
100030f8:	6018      	str	r0, [r3, #0]
100030fa:	bd10      	pop	{r4, pc}
100030fc:	4c0a      	ldr	r4, [pc, #40]	@ (10003128 <__aeabi_float_init+0x54>)
100030fe:	2254      	movs	r2, #84	@ 0x54
10003100:	0020      	movs	r0, r4
10003102:	f000 f889 	bl	10003218 <__wrap___aeabi_memcpy>
10003106:	4b0b      	ldr	r3, [pc, #44]	@ (10003134 <__aeabi_float_init+0x60>)
10003108:	6563      	str	r3, [r4, #84]	@ 0x54
1000310a:	65a3      	str	r3, [r4, #88]	@ 0x58
1000310c:	65e3      	str	r3, [r4, #92]	@ 0x5c
1000310e:	6623      	str	r3, [r4, #96]	@ 0x60
10003110:	6663      	str	r3, [r4, #100]	@ 0x64
10003112:	66a3      	str	r3, [r4, #104]	@ 0x68
10003114:	66e3      	str	r3, [r4, #108]	@ 0x6c
10003116:	6723      	str	r3, [r4, #112]	@ 0x70
10003118:	6763      	str	r3, [r4, #116]	@ 0x74
1000311a:	67a3      	str	r3, [r4, #120]	@ 0x78
1000311c:	67e3      	str	r3, [r4, #124]	@ 0x7c
1000311e:	6223      	str	r3, [r4, #32]
10003120:	61e3      	str	r3, [r4, #28]
10003122:	e7e5      	b.n	100030f0 <__aeabi_float_init+0x1c>
10003124:	00004653 	.word	0x00004653
10003128:	20000b28 	.word	0x20000b28
1000312c:	0000334c 	.word	0x0000334c
10003130:	20000e94 	.word	0x20000e94
10003134:	10003139 	.word	0x10003139

10003138 <float_table_shim_on_use_helper>:
10003138:	b507      	push	{r0, r1, r2, lr}
1000313a:	4660      	mov	r0, ip
1000313c:	8801      	ldrh	r1, [r0, #0]
1000313e:	0a0a      	lsrs	r2, r1, #8
10003140:	3002      	adds	r0, #2
10003142:	2adf      	cmp	r2, #223	@ 0xdf
10003144:	d1fa      	bne.n	1000313c <float_table_shim_on_use_helper+0x4>
10003146:	b2c9      	uxtb	r1, r1
10003148:	0882      	lsrs	r2, r0, #2
1000314a:	d304      	bcc.n	10003156 <float_table_shim_on_use_helper+0x1e>
1000314c:	8802      	ldrh	r2, [r0, #0]
1000314e:	8840      	ldrh	r0, [r0, #2]
10003150:	0400      	lsls	r0, r0, #16
10003152:	4310      	orrs	r0, r2
10003154:	e000      	b.n	10003158 <float_table_shim_on_use_helper+0x20>
10003156:	6800      	ldr	r0, [r0, #0]
10003158:	4a01      	ldr	r2, [pc, #4]	@ (10003160 <float_table_shim_on_use_helper+0x28>)
1000315a:	5050      	str	r0, [r2, r1]
1000315c:	9003      	str	r0, [sp, #12]
1000315e:	bd07      	pop	{r0, r1, r2, pc}
10003160:	20000b28 	.word	0x20000b28

10003164 <float2int_shim>:
10003164:	2100      	movs	r1, #0

10003166 <float2fix_shim>:
10003166:	15c2      	asrs	r2, r0, #23
10003168:	3280      	adds	r2, #128	@ 0x80
1000316a:	3280      	adds	r2, #128	@ 0x80
1000316c:	d001      	beq.n	10003172 <float2fix_shim+0xc>
1000316e:	4a02      	ldr	r2, [pc, #8]	@ (10003178 <float2fix_shim+0x12>)
10003170:	4710      	bx	r2
10003172:	2000      	movs	r0, #0
10003174:	4770      	bx	lr
10003176:	0000      	.short	0x0000
10003178:	00002acd 	.word	0x00002acd

1000317c <float2double_shim>:
1000317c:	0fc3      	lsrs	r3, r0, #31
1000317e:	07db      	lsls	r3, r3, #31
10003180:	0041      	lsls	r1, r0, #1
10003182:	0e0a      	lsrs	r2, r1, #24
10003184:	d007      	beq.n	10003196 <float2double_shim+0x1a>
10003186:	2aff      	cmp	r2, #255	@ 0xff
10003188:	d008      	beq.n	1000319c <float2double_shim+0x20>
1000318a:	0909      	lsrs	r1, r1, #4
1000318c:	4a05      	ldr	r2, [pc, #20]	@ (100031a4 <float2double_shim+0x28>)
1000318e:	1889      	adds	r1, r1, r2
10003190:	4319      	orrs	r1, r3
10003192:	0740      	lsls	r0, r0, #29
10003194:	4770      	bx	lr
10003196:	0019      	movs	r1, r3
10003198:	2000      	movs	r0, #0
1000319a:	4770      	bx	lr
1000319c:	4902      	ldr	r1, [pc, #8]	@ (100031a8 <float2double_shim+0x2c>)
1000319e:	18c9      	adds	r1, r1, r3
100031a0:	e7fa      	b.n	10003198 <float2double_shim+0x1c>
100031a2:	0000      	.short	0x0000
100031a4:	38000000 	.word	0x38000000
100031a8:	7ff00000 	.word	0x7ff00000

100031ac <__wrap_malloc>:
100031ac:	b510      	push	{r4, lr}
100031ae:	0004      	movs	r4, r0
100031b0:	f003 fb64 	bl	1000687c <malloc>
100031b4:	2800      	cmp	r0, #0
100031b6:	d004      	beq.n	100031c2 <__wrap_malloc+0x16>
100031b8:	4b03      	ldr	r3, [pc, #12]	@ (100031c8 <__wrap_malloc+0x1c>)
100031ba:	1904      	adds	r4, r0, r4
100031bc:	429c      	cmp	r4, r3
100031be:	d800      	bhi.n	100031c2 <__wrap_malloc+0x16>
100031c0:	bd10      	pop	{r4, pc}
100031c2:	4802      	ldr	r0, [pc, #8]	@ (100031cc <__wrap_malloc+0x20>)
100031c4:	f7fe f802 	bl	100011cc <panic>
100031c8:	20040000 	.word	0x20040000
100031cc:	1000af44 	.word	0x1000af44

100031d0 <__wrap_realloc>:
100031d0:	b510      	push	{r4, lr}
100031d2:	000c      	movs	r4, r1
100031d4:	f003 ff38 	bl	10007048 <realloc>
100031d8:	2800      	cmp	r0, #0
100031da:	d004      	beq.n	100031e6 <__wrap_realloc+0x16>
100031dc:	4b03      	ldr	r3, [pc, #12]	@ (100031ec <__wrap_realloc+0x1c>)
100031de:	1904      	adds	r4, r0, r4
100031e0:	429c      	cmp	r4, r3
100031e2:	d800      	bhi.n	100031e6 <__wrap_realloc+0x16>
100031e4:	bd10      	pop	{r4, pc}
100031e6:	4802      	ldr	r0, [pc, #8]	@ (100031f0 <__wrap_realloc+0x20>)
100031e8:	f7fd fff0 	bl	100011cc <panic>
100031ec:	20040000 	.word	0x20040000
100031f0:	1000af44 	.word	0x1000af44

100031f4 <__wrap_free>:
100031f4:	b510      	push	{r4, lr}
100031f6:	f003 fb4b 	bl	10006890 <free>
100031fa:	bd10      	pop	{r4, pc}

100031fc <__aeabi_mem_init>:
100031fc:	4801      	ldr	r0, [pc, #4]	@ (10003204 <__aeabi_mem_init+0x8>)
100031fe:	2104      	movs	r1, #4
10003200:	4b01      	ldr	r3, [pc, #4]	@ (10003208 <__aeabi_mem_init+0xc>)
10003202:	4718      	bx	r3
10003204:	200001e0 	.word	0x200001e0
10003208:	10001fc1 	.word	0x10001fc1

1000320c <__wrap_memset>:
1000320c:	4b01      	ldr	r3, [pc, #4]	@ (10003214 <__wrap_memset+0x8>)
1000320e:	681b      	ldr	r3, [r3, #0]
10003210:	4718      	bx	r3
10003212:	0000      	.short	0x0000
10003214:	200001e0 	.word	0x200001e0

10003218 <__wrap___aeabi_memcpy>:
10003218:	4b01      	ldr	r3, [pc, #4]	@ (10003220 <__wrap___aeabi_memcpy+0x8>)
1000321a:	685b      	ldr	r3, [r3, #4]
1000321c:	4718      	bx	r3
1000321e:	0000      	.short	0x0000
10003220:	200001e0 	.word	0x200001e0

10003224 <_out_buffer>:
10003224:	429a      	cmp	r2, r3
10003226:	d200      	bcs.n	1000322a <_out_buffer+0x6>
10003228:	5488      	strb	r0, [r1, r2]
1000322a:	4770      	bx	lr

1000322c <_out_null>:
1000322c:	4770      	bx	lr
1000322e:	46c0      	nop			@ (mov r8, r8)

10003230 <_out_rev>:
10003230:	b5f8      	push	{r3, r4, r5, r6, r7, lr}
10003232:	4657      	mov	r7, sl
10003234:	4645      	mov	r5, r8
10003236:	46de      	mov	lr, fp
10003238:	464e      	mov	r6, r9
1000323a:	b5e0      	push	{r5, r6, r7, lr}
1000323c:	4698      	mov	r8, r3
1000323e:	9b0a      	ldr	r3, [sp, #40]	@ 0x28
10003240:	0006      	movs	r6, r0
10003242:	469a      	mov	sl, r3
10003244:	9b0d      	ldr	r3, [sp, #52]	@ 0x34
10003246:	000f      	movs	r7, r1
10003248:	4693      	mov	fp, r2
1000324a:	0015      	movs	r5, r2
1000324c:	079b      	lsls	r3, r3, #30
1000324e:	d110      	bne.n	10003272 <_out_rev+0x42>
10003250:	9b0b      	ldr	r3, [sp, #44]	@ 0x2c
10003252:	9a0c      	ldr	r2, [sp, #48]	@ 0x30
10003254:	4293      	cmp	r3, r2
10003256:	d20c      	bcs.n	10003272 <_out_rev+0x42>
10003258:	0013      	movs	r3, r2
1000325a:	465c      	mov	r4, fp
1000325c:	9a0b      	ldr	r2, [sp, #44]	@ 0x2c
1000325e:	1a9d      	subs	r5, r3, r2
10003260:	445d      	add	r5, fp
10003262:	0022      	movs	r2, r4
10003264:	4643      	mov	r3, r8
10003266:	3401      	adds	r4, #1
10003268:	0039      	movs	r1, r7
1000326a:	2020      	movs	r0, #32
1000326c:	47b0      	blx	r6
1000326e:	42a5      	cmp	r5, r4
10003270:	d1f7      	bne.n	10003262 <_out_rev+0x32>
10003272:	9c0b      	ldr	r4, [sp, #44]	@ 0x2c
10003274:	1963      	adds	r3, r4, r5
10003276:	2c00      	cmp	r4, #0
10003278:	d009      	beq.n	1000328e <_out_rev+0x5e>
1000327a:	001d      	movs	r5, r3
1000327c:	4653      	mov	r3, sl
1000327e:	1b2a      	subs	r2, r5, r4
10003280:	3c01      	subs	r4, #1
10003282:	5d18      	ldrb	r0, [r3, r4]
10003284:	0039      	movs	r1, r7
10003286:	4643      	mov	r3, r8
10003288:	47b0      	blx	r6
1000328a:	2c00      	cmp	r4, #0
1000328c:	d1f6      	bne.n	1000327c <_out_rev+0x4c>
1000328e:	9b0d      	ldr	r3, [sp, #52]	@ 0x34
10003290:	079b      	lsls	r3, r3, #30
10003292:	d50e      	bpl.n	100032b2 <_out_rev+0x82>
10003294:	465b      	mov	r3, fp
10003296:	1aec      	subs	r4, r5, r3
10003298:	9b0c      	ldr	r3, [sp, #48]	@ 0x30
1000329a:	42a3      	cmp	r3, r4
1000329c:	d909      	bls.n	100032b2 <_out_rev+0x82>
1000329e:	4699      	mov	r9, r3
100032a0:	002a      	movs	r2, r5
100032a2:	4643      	mov	r3, r8
100032a4:	0039      	movs	r1, r7
100032a6:	2020      	movs	r0, #32
100032a8:	3401      	adds	r4, #1
100032aa:	47b0      	blx	r6
100032ac:	3501      	adds	r5, #1
100032ae:	45a1      	cmp	r9, r4
100032b0:	d8f6      	bhi.n	100032a0 <_out_rev+0x70>
100032b2:	0028      	movs	r0, r5
100032b4:	bcf0      	pop	{r4, r5, r6, r7}
100032b6:	46bb      	mov	fp, r7
100032b8:	46b2      	mov	sl, r6
100032ba:	46a9      	mov	r9, r5
100032bc:	46a0      	mov	r8, r4
100032be:	bdf8      	pop	{r3, r4, r5, r6, r7, pc}

100032c0 <_ntoa_format>:
100032c0:	b5f0      	push	{r4, r5, r6, r7, lr}
100032c2:	464f      	mov	r7, r9
100032c4:	4646      	mov	r6, r8
100032c6:	46d6      	mov	lr, sl
100032c8:	b5c0      	push	{r6, r7, lr}
100032ca:	b084      	sub	sp, #16
100032cc:	4698      	mov	r8, r3
100032ce:	ab0e      	add	r3, sp, #56	@ 0x38
100032d0:	781b      	ldrb	r3, [r3, #0]
100032d2:	4694      	mov	ip, r2
100032d4:	4699      	mov	r9, r3
100032d6:	9b12      	ldr	r3, [sp, #72]	@ 0x48
100032d8:	9c0d      	ldr	r4, [sp, #52]	@ 0x34
100032da:	9f10      	ldr	r7, [sp, #64]	@ 0x40
100032dc:	9e11      	ldr	r6, [sp, #68]	@ 0x44
100032de:	079a      	lsls	r2, r3, #30
100032e0:	d424      	bmi.n	1000332c <_ntoa_format+0x6c>
100032e2:	2e00      	cmp	r6, #0
100032e4:	d16a      	bne.n	100033bc <_ntoa_format+0xfc>
100032e6:	42bc      	cmp	r4, r7
100032e8:	d220      	bcs.n	1000332c <_ntoa_format+0x6c>
100032ea:	2201      	movs	r2, #1
100032ec:	401a      	ands	r2, r3
100032ee:	4692      	mov	sl, r2
100032f0:	2c20      	cmp	r4, #32
100032f2:	d100      	bne.n	100032f6 <_ntoa_format+0x36>
100032f4:	e0d2      	b.n	1000349c <_ntoa_format+0x1dc>
100032f6:	9a0c      	ldr	r2, [sp, #48]	@ 0x30
100032f8:	1e55      	subs	r5, r2, #1
100032fa:	2230      	movs	r2, #48	@ 0x30
100032fc:	e001      	b.n	10003302 <_ntoa_format+0x42>
100032fe:	2c20      	cmp	r4, #32
10003300:	d030      	beq.n	10003364 <_ntoa_format+0xa4>
10003302:	3401      	adds	r4, #1
10003304:	552a      	strb	r2, [r5, r4]
10003306:	42a7      	cmp	r7, r4
10003308:	d8f9      	bhi.n	100032fe <_ntoa_format+0x3e>
1000330a:	4652      	mov	r2, sl
1000330c:	2a00      	cmp	r2, #0
1000330e:	d00d      	beq.n	1000332c <_ntoa_format+0x6c>
10003310:	42b4      	cmp	r4, r6
10003312:	d20b      	bcs.n	1000332c <_ntoa_format+0x6c>
10003314:	9a0c      	ldr	r2, [sp, #48]	@ 0x30
10003316:	1e55      	subs	r5, r2, #1
10003318:	2230      	movs	r2, #48	@ 0x30
1000331a:	2c20      	cmp	r4, #32
1000331c:	d102      	bne.n	10003324 <_ntoa_format+0x64>
1000331e:	e026      	b.n	1000336e <_ntoa_format+0xae>
10003320:	2c20      	cmp	r4, #32
10003322:	d063      	beq.n	100033ec <_ntoa_format+0x12c>
10003324:	3401      	adds	r4, #1
10003326:	552a      	strb	r2, [r5, r4]
10003328:	42b4      	cmp	r4, r6
1000332a:	d1f9      	bne.n	10003320 <_ntoa_format+0x60>
1000332c:	06da      	lsls	r2, r3, #27
1000332e:	d534      	bpl.n	1000339a <_ntoa_format+0xda>
10003330:	055a      	lsls	r2, r3, #21
10003332:	d464      	bmi.n	100033fe <_ntoa_format+0x13e>
10003334:	2c00      	cmp	r4, #0
10003336:	d15e      	bne.n	100033f6 <_ntoa_format+0x136>
10003338:	9a0f      	ldr	r2, [sp, #60]	@ 0x3c
1000333a:	2a10      	cmp	r2, #16
1000333c:	d100      	bne.n	10003340 <_ntoa_format+0x80>
1000333e:	e097      	b.n	10003470 <_ntoa_format+0x1b0>
10003340:	2a02      	cmp	r2, #2
10003342:	d100      	bne.n	10003346 <_ntoa_format+0x86>
10003344:	e0a8      	b.n	10003498 <_ntoa_format+0x1d8>
10003346:	2230      	movs	r2, #48	@ 0x30
10003348:	9c0c      	ldr	r4, [sp, #48]	@ 0x30
1000334a:	7022      	strb	r2, [r4, #0]
1000334c:	2401      	movs	r4, #1
1000334e:	464a      	mov	r2, r9
10003350:	2a00      	cmp	r2, #0
10003352:	d15e      	bne.n	10003412 <_ntoa_format+0x152>
10003354:	075a      	lsls	r2, r3, #29
10003356:	d400      	bmi.n	1000335a <_ntoa_format+0x9a>
10003358:	e083      	b.n	10003462 <_ntoa_format+0x1a2>
1000335a:	222b      	movs	r2, #43	@ 0x2b
1000335c:	9d0c      	ldr	r5, [sp, #48]	@ 0x30
1000335e:	552a      	strb	r2, [r5, r4]
10003360:	3401      	adds	r4, #1
10003362:	e01c      	b.n	1000339e <_ntoa_format+0xde>
10003364:	4652      	mov	r2, sl
10003366:	2a00      	cmp	r2, #0
10003368:	d002      	beq.n	10003370 <_ntoa_format+0xb0>
1000336a:	2e20      	cmp	r6, #32
1000336c:	d93e      	bls.n	100033ec <_ntoa_format+0x12c>
1000336e:	2420      	movs	r4, #32
10003370:	06da      	lsls	r2, r3, #27
10003372:	d514      	bpl.n	1000339e <_ntoa_format+0xde>
10003374:	055a      	lsls	r2, r3, #21
10003376:	d412      	bmi.n	1000339e <_ntoa_format+0xde>
10003378:	2f20      	cmp	r7, #32
1000337a:	d100      	bne.n	1000337e <_ntoa_format+0xbe>
1000337c:	e0a1      	b.n	100034c2 <_ntoa_format+0x202>
1000337e:	2e20      	cmp	r6, #32
10003380:	d13d      	bne.n	100033fe <_ntoa_format+0x13e>
10003382:	2620      	movs	r6, #32
10003384:	221f      	movs	r2, #31
10003386:	0034      	movs	r4, r6
10003388:	9d0f      	ldr	r5, [sp, #60]	@ 0x3c
1000338a:	2d10      	cmp	r5, #16
1000338c:	d100      	bne.n	10003390 <_ntoa_format+0xd0>
1000338e:	e08b      	b.n	100034a8 <_ntoa_format+0x1e8>
10003390:	2d02      	cmp	r5, #2
10003392:	d052      	beq.n	1000343a <_ntoa_format+0x17a>
10003394:	2530      	movs	r5, #48	@ 0x30
10003396:	9f0c      	ldr	r7, [sp, #48]	@ 0x30
10003398:	54bd      	strb	r5, [r7, r2]
1000339a:	2c20      	cmp	r4, #32
1000339c:	d1d7      	bne.n	1000334e <_ntoa_format+0x8e>
1000339e:	9303      	str	r3, [sp, #12]
100033a0:	9b0c      	ldr	r3, [sp, #48]	@ 0x30
100033a2:	4662      	mov	r2, ip
100033a4:	9300      	str	r3, [sp, #0]
100033a6:	9602      	str	r6, [sp, #8]
100033a8:	4643      	mov	r3, r8
100033aa:	9401      	str	r4, [sp, #4]
100033ac:	f7ff ff40 	bl	10003230 <_out_rev>
100033b0:	b004      	add	sp, #16
100033b2:	bce0      	pop	{r5, r6, r7}
100033b4:	46ba      	mov	sl, r7
100033b6:	46b1      	mov	r9, r6
100033b8:	46a8      	mov	r8, r5
100033ba:	bdf0      	pop	{r4, r5, r6, r7, pc}
100033bc:	2201      	movs	r2, #1
100033be:	0015      	movs	r5, r2
100033c0:	401d      	ands	r5, r3
100033c2:	46aa      	mov	sl, r5
100033c4:	421a      	tst	r2, r3
100033c6:	d029      	beq.n	1000341c <_ntoa_format+0x15c>
100033c8:	464a      	mov	r2, r9
100033ca:	2a00      	cmp	r2, #0
100033cc:	d139      	bne.n	10003442 <_ntoa_format+0x182>
100033ce:	320c      	adds	r2, #12
100033d0:	421a      	tst	r2, r3
100033d2:	d136      	bne.n	10003442 <_ntoa_format+0x182>
100033d4:	42bc      	cmp	r4, r7
100033d6:	d29b      	bcs.n	10003310 <_ntoa_format+0x50>
100033d8:	2c20      	cmp	r4, #32
100033da:	d000      	beq.n	100033de <_ntoa_format+0x11e>
100033dc:	e78b      	b.n	100032f6 <_ntoa_format+0x36>
100033de:	2210      	movs	r2, #16
100033e0:	401a      	ands	r2, r3
100033e2:	2e20      	cmp	r6, #32
100033e4:	d8c3      	bhi.n	1000336e <_ntoa_format+0xae>
100033e6:	2a00      	cmp	r2, #0
100033e8:	d1a2      	bne.n	10003330 <_ntoa_format+0x70>
100033ea:	e7d8      	b.n	1000339e <_ntoa_format+0xde>
100033ec:	2420      	movs	r4, #32
100033ee:	06da      	lsls	r2, r3, #27
100033f0:	d5d5      	bpl.n	1000339e <_ntoa_format+0xde>
100033f2:	055a      	lsls	r2, r3, #21
100033f4:	d403      	bmi.n	100033fe <_ntoa_format+0x13e>
100033f6:	42a7      	cmp	r7, r4
100033f8:	d025      	beq.n	10003446 <_ntoa_format+0x186>
100033fa:	42b4      	cmp	r4, r6
100033fc:	d023      	beq.n	10003446 <_ntoa_format+0x186>
100033fe:	9a0f      	ldr	r2, [sp, #60]	@ 0x3c
10003400:	2a10      	cmp	r2, #16
10003402:	d025      	beq.n	10003450 <_ntoa_format+0x190>
10003404:	2a02      	cmp	r2, #2
10003406:	d014      	beq.n	10003432 <_ntoa_format+0x172>
10003408:	2c20      	cmp	r4, #32
1000340a:	d0c8      	beq.n	1000339e <_ntoa_format+0xde>
1000340c:	0022      	movs	r2, r4
1000340e:	3401      	adds	r4, #1
10003410:	e7c0      	b.n	10003394 <_ntoa_format+0xd4>
10003412:	222d      	movs	r2, #45	@ 0x2d
10003414:	9d0c      	ldr	r5, [sp, #48]	@ 0x30
10003416:	552a      	strb	r2, [r5, r4]
10003418:	3401      	adds	r4, #1
1000341a:	e7c0      	b.n	1000339e <_ntoa_format+0xde>
1000341c:	42bc      	cmp	r4, r7
1000341e:	d300      	bcc.n	10003422 <_ntoa_format+0x162>
10003420:	e784      	b.n	1000332c <_ntoa_format+0x6c>
10003422:	2c20      	cmp	r4, #32
10003424:	d000      	beq.n	10003428 <_ntoa_format+0x168>
10003426:	e766      	b.n	100032f6 <_ntoa_format+0x36>
10003428:	2210      	movs	r2, #16
1000342a:	401a      	ands	r2, r3
1000342c:	2a00      	cmp	r2, #0
1000342e:	d1e0      	bne.n	100033f2 <_ntoa_format+0x132>
10003430:	e7b5      	b.n	1000339e <_ntoa_format+0xde>
10003432:	2c20      	cmp	r4, #32
10003434:	d0b3      	beq.n	1000339e <_ntoa_format+0xde>
10003436:	0022      	movs	r2, r4
10003438:	3401      	adds	r4, #1
1000343a:	2562      	movs	r5, #98	@ 0x62
1000343c:	9f0c      	ldr	r7, [sp, #48]	@ 0x30
1000343e:	54bd      	strb	r5, [r7, r2]
10003440:	e7e2      	b.n	10003408 <_ntoa_format+0x148>
10003442:	3e01      	subs	r6, #1
10003444:	e7c6      	b.n	100033d4 <_ntoa_format+0x114>
10003446:	1e62      	subs	r2, r4, #1
10003448:	2c01      	cmp	r4, #1
1000344a:	d100      	bne.n	1000344e <_ntoa_format+0x18e>
1000344c:	e774      	b.n	10003338 <_ntoa_format+0x78>
1000344e:	e79b      	b.n	10003388 <_ntoa_format+0xc8>
10003450:	069a      	lsls	r2, r3, #26
10003452:	d416      	bmi.n	10003482 <_ntoa_format+0x1c2>
10003454:	2c20      	cmp	r4, #32
10003456:	d0a2      	beq.n	1000339e <_ntoa_format+0xde>
10003458:	2278      	movs	r2, #120	@ 0x78
1000345a:	9d0c      	ldr	r5, [sp, #48]	@ 0x30
1000345c:	552a      	strb	r2, [r5, r4]
1000345e:	3401      	adds	r4, #1
10003460:	e7d2      	b.n	10003408 <_ntoa_format+0x148>
10003462:	071a      	lsls	r2, r3, #28
10003464:	d59b      	bpl.n	1000339e <_ntoa_format+0xde>
10003466:	2220      	movs	r2, #32
10003468:	9d0c      	ldr	r5, [sp, #48]	@ 0x30
1000346a:	552a      	strb	r2, [r5, r4]
1000346c:	3401      	adds	r4, #1
1000346e:	e796      	b.n	1000339e <_ntoa_format+0xde>
10003470:	069a      	lsls	r2, r3, #26
10003472:	d40f      	bmi.n	10003494 <_ntoa_format+0x1d4>
10003474:	2278      	movs	r2, #120	@ 0x78
10003476:	9c0c      	ldr	r4, [sp, #48]	@ 0x30
10003478:	7022      	strb	r2, [r4, #0]
1000347a:	2230      	movs	r2, #48	@ 0x30
1000347c:	7062      	strb	r2, [r4, #1]
1000347e:	2402      	movs	r4, #2
10003480:	e765      	b.n	1000334e <_ntoa_format+0x8e>
10003482:	2c20      	cmp	r4, #32
10003484:	d100      	bne.n	10003488 <_ntoa_format+0x1c8>
10003486:	e78a      	b.n	1000339e <_ntoa_format+0xde>
10003488:	2558      	movs	r5, #88	@ 0x58
1000348a:	9a0c      	ldr	r2, [sp, #48]	@ 0x30
1000348c:	1912      	adds	r2, r2, r4
1000348e:	7015      	strb	r5, [r2, #0]
10003490:	3401      	adds	r4, #1
10003492:	e7b9      	b.n	10003408 <_ntoa_format+0x148>
10003494:	2258      	movs	r2, #88	@ 0x58
10003496:	e7ee      	b.n	10003476 <_ntoa_format+0x1b6>
10003498:	2262      	movs	r2, #98	@ 0x62
1000349a:	e7ec      	b.n	10003476 <_ntoa_format+0x1b6>
1000349c:	2210      	movs	r2, #16
1000349e:	4655      	mov	r5, sl
100034a0:	401a      	ands	r2, r3
100034a2:	2d00      	cmp	r5, #0
100034a4:	d19f      	bne.n	100033e6 <_ntoa_format+0x126>
100034a6:	e7c1      	b.n	1000342c <_ntoa_format+0x16c>
100034a8:	3c02      	subs	r4, #2
100034aa:	069d      	lsls	r5, r3, #26
100034ac:	d404      	bmi.n	100034b8 <_ntoa_format+0x1f8>
100034ae:	2578      	movs	r5, #120	@ 0x78
100034b0:	9f0c      	ldr	r7, [sp, #48]	@ 0x30
100034b2:	553d      	strb	r5, [r7, r4]
100034b4:	0014      	movs	r4, r2
100034b6:	e7a9      	b.n	1000340c <_ntoa_format+0x14c>
100034b8:	2558      	movs	r5, #88	@ 0x58
100034ba:	9f0c      	ldr	r7, [sp, #48]	@ 0x30
100034bc:	553d      	strb	r5, [r7, r4]
100034be:	0014      	movs	r4, r2
100034c0:	e7a4      	b.n	1000340c <_ntoa_format+0x14c>
100034c2:	221f      	movs	r2, #31
100034c4:	e760      	b.n	10003388 <_ntoa_format+0xc8>
100034c6:	46c0      	nop			@ (mov r8, r8)

100034c8 <_out_char>:
100034c8:	b510      	push	{r4, lr}
100034ca:	2800      	cmp	r0, #0
100034cc:	d100      	bne.n	100034d0 <_out_char+0x8>
100034ce:	bd10      	pop	{r4, pc}
100034d0:	f001 fc2c 	bl	10004d2c <__wrap_putchar>
100034d4:	e7fb      	b.n	100034ce <_out_char+0x6>
100034d6:	46c0      	nop			@ (mov r8, r8)

100034d8 <_out_fct>:
100034d8:	000b      	movs	r3, r1
100034da:	b510      	push	{r4, lr}
100034dc:	2800      	cmp	r0, #0
100034de:	d002      	beq.n	100034e6 <_out_fct+0xe>
100034e0:	6849      	ldr	r1, [r1, #4]
100034e2:	681b      	ldr	r3, [r3, #0]
100034e4:	4798      	blx	r3
100034e6:	bd10      	pop	{r4, pc}

100034e8 <_etoa>:
100034e8:	b5f0      	push	{r4, r5, r6, r7, lr}
100034ea:	4657      	mov	r7, sl
100034ec:	464e      	mov	r6, r9
100034ee:	4645      	mov	r5, r8
100034f0:	46de      	mov	lr, fp
100034f2:	b5e0      	push	{r5, r6, r7, lr}
100034f4:	b099      	sub	sp, #100	@ 0x64
100034f6:	4682      	mov	sl, r0
100034f8:	4689      	mov	r9, r1
100034fa:	4690      	mov	r8, r2
100034fc:	9308      	str	r3, [sp, #32]
100034fe:	9a22      	ldr	r2, [sp, #136]	@ 0x88
10003500:	9b23      	ldr	r3, [sp, #140]	@ 0x8c
10003502:	0010      	movs	r0, r2
10003504:	0019      	movs	r1, r3
10003506:	f7ff f96a 	bl	100027de <__wrap___aeabi_dcmpun>
1000350a:	2800      	cmp	r0, #0
1000350c:	d000      	beq.n	10003510 <_etoa+0x28>
1000350e:	e0cd      	b.n	100036ac <_etoa+0x1c4>
10003510:	9822      	ldr	r0, [sp, #136]	@ 0x88
10003512:	9923      	ldr	r1, [sp, #140]	@ 0x8c
10003514:	2201      	movs	r2, #1
10003516:	4bd9      	ldr	r3, [pc, #868]	@ (1000387c <_etoa+0x394>)
10003518:	4252      	negs	r2, r2
1000351a:	f7ff f95b 	bl	100027d4 <__wrap___aeabi_dcmpgt>
1000351e:	2800      	cmp	r0, #0
10003520:	d000      	beq.n	10003524 <_etoa+0x3c>
10003522:	e0c3      	b.n	100036ac <_etoa+0x1c4>
10003524:	9822      	ldr	r0, [sp, #136]	@ 0x88
10003526:	9923      	ldr	r1, [sp, #140]	@ 0x8c
10003528:	2201      	movs	r2, #1
1000352a:	4bd5      	ldr	r3, [pc, #852]	@ (10003880 <_etoa+0x398>)
1000352c:	4252      	negs	r2, r2
1000352e:	f7ff f93b 	bl	100027a8 <__wrap___aeabi_dcmplt>
10003532:	2800      	cmp	r0, #0
10003534:	d000      	beq.n	10003538 <_etoa+0x50>
10003536:	e0b9      	b.n	100036ac <_etoa+0x1c4>
10003538:	9822      	ldr	r0, [sp, #136]	@ 0x88
1000353a:	9923      	ldr	r1, [sp, #140]	@ 0x8c
1000353c:	2200      	movs	r2, #0
1000353e:	2300      	movs	r3, #0
10003540:	f7ff f932 	bl	100027a8 <__wrap___aeabi_dcmplt>
10003544:	2800      	cmp	r0, #0
10003546:	d000      	beq.n	1000354a <_etoa+0x62>
10003548:	e1f1      	b.n	1000392e <_etoa+0x446>
1000354a:	9e22      	ldr	r6, [sp, #136]	@ 0x88
1000354c:	9f23      	ldr	r7, [sp, #140]	@ 0x8c
1000354e:	2380      	movs	r3, #128	@ 0x80
10003550:	9a26      	ldr	r2, [sp, #152]	@ 0x98
10003552:	00db      	lsls	r3, r3, #3
10003554:	401a      	ands	r2, r3
10003556:	920d      	str	r2, [sp, #52]	@ 0x34
10003558:	9a26      	ldr	r2, [sp, #152]	@ 0x98
1000355a:	421a      	tst	r2, r3
1000355c:	d101      	bne.n	10003562 <_etoa+0x7a>
1000355e:	2306      	movs	r3, #6
10003560:	9324      	str	r3, [sp, #144]	@ 0x90
10003562:	2380      	movs	r3, #128	@ 0x80
10003564:	9a26      	ldr	r2, [sp, #152]	@ 0x98
10003566:	011b      	lsls	r3, r3, #4
10003568:	401a      	ands	r2, r3
1000356a:	003b      	movs	r3, r7
1000356c:	4693      	mov	fp, r2
1000356e:	9609      	str	r6, [sp, #36]	@ 0x24
10003570:	4333      	orrs	r3, r6
10003572:	d000      	beq.n	10003576 <_etoa+0x8e>
10003574:	e0b3      	b.n	100036de <_etoa+0x1f6>
10003576:	2a00      	cmp	r2, #0
10003578:	d000      	beq.n	1000357c <_etoa+0x94>
1000357a:	e1c2      	b.n	10003902 <_etoa+0x41a>
1000357c:	2300      	movs	r3, #0
1000357e:	2400      	movs	r4, #0
10003580:	930a      	str	r3, [sp, #40]	@ 0x28
10003582:	940b      	str	r4, [sp, #44]	@ 0x2c
10003584:	2300      	movs	r3, #0
10003586:	2504      	movs	r5, #4
10003588:	9309      	str	r3, [sp, #36]	@ 0x24
1000358a:	9b25      	ldr	r3, [sp, #148]	@ 0x94
1000358c:	2400      	movs	r4, #0
1000358e:	42ab      	cmp	r3, r5
10003590:	d900      	bls.n	10003594 <_etoa+0xac>
10003592:	1b5c      	subs	r4, r3, r5
10003594:	2302      	movs	r3, #2
10003596:	9a26      	ldr	r2, [sp, #152]	@ 0x98
10003598:	401a      	ands	r2, r3
1000359a:	920c      	str	r2, [sp, #48]	@ 0x30
1000359c:	9a26      	ldr	r2, [sp, #152]	@ 0x98
1000359e:	4213      	tst	r3, r2
100035a0:	d003      	beq.n	100035aa <_etoa+0xc2>
100035a2:	426b      	negs	r3, r5
100035a4:	416b      	adcs	r3, r5
100035a6:	425b      	negs	r3, r3
100035a8:	401c      	ands	r4, r3
100035aa:	9b09      	ldr	r3, [sp, #36]	@ 0x24
100035ac:	2b00      	cmp	r3, #0
100035ae:	d007      	beq.n	100035c0 <_etoa+0xd8>
100035b0:	9a0a      	ldr	r2, [sp, #40]	@ 0x28
100035b2:	9b0b      	ldr	r3, [sp, #44]	@ 0x2c
100035b4:	0030      	movs	r0, r6
100035b6:	0039      	movs	r1, r7
100035b8:	f7ff f88d 	bl	100026d6 <__wrap___aeabi_ddiv>
100035bc:	0006      	movs	r6, r0
100035be:	000f      	movs	r7, r1
100035c0:	9822      	ldr	r0, [sp, #136]	@ 0x88
100035c2:	9923      	ldr	r1, [sp, #140]	@ 0x8c
100035c4:	2200      	movs	r2, #0
100035c6:	2300      	movs	r3, #0
100035c8:	f7ff f8ee 	bl	100027a8 <__wrap___aeabi_dcmplt>
100035cc:	2800      	cmp	r0, #0
100035ce:	d003      	beq.n	100035d8 <_etoa+0xf0>
100035d0:	2180      	movs	r1, #128	@ 0x80
100035d2:	0609      	lsls	r1, r1, #24
100035d4:	187b      	adds	r3, r7, r1
100035d6:	001f      	movs	r7, r3
100035d8:	9a26      	ldr	r2, [sp, #152]	@ 0x98
100035da:	4baa      	ldr	r3, [pc, #680]	@ (10003884 <_etoa+0x39c>)
100035dc:	9600      	str	r6, [sp, #0]
100035de:	9701      	str	r7, [sp, #4]
100035e0:	4013      	ands	r3, r2
100035e2:	9e08      	ldr	r6, [sp, #32]
100035e4:	9304      	str	r3, [sp, #16]
100035e6:	9b24      	ldr	r3, [sp, #144]	@ 0x90
100035e8:	9403      	str	r4, [sp, #12]
100035ea:	9302      	str	r3, [sp, #8]
100035ec:	4642      	mov	r2, r8
100035ee:	0033      	movs	r3, r6
100035f0:	4649      	mov	r1, r9
100035f2:	4650      	mov	r0, sl
100035f4:	f000 f9aa 	bl	1000394c <_ftoa>
100035f8:	0004      	movs	r4, r0
100035fa:	2d00      	cmp	r5, #0
100035fc:	d067      	beq.n	100036ce <_etoa+0x1e6>
100035fe:	2020      	movs	r0, #32
10003600:	9a26      	ldr	r2, [sp, #152]	@ 0x98
10003602:	4649      	mov	r1, r9
10003604:	4002      	ands	r2, r0
10003606:	0013      	movs	r3, r2
10003608:	425a      	negs	r2, r3
1000360a:	4153      	adcs	r3, r2
1000360c:	425b      	negs	r3, r3
1000360e:	1c62      	adds	r2, r4, #1
10003610:	4018      	ands	r0, r3
10003612:	920a      	str	r2, [sp, #40]	@ 0x28
10003614:	0033      	movs	r3, r6
10003616:	0022      	movs	r2, r4
10003618:	3045      	adds	r0, #69	@ 0x45
1000361a:	47d0      	blx	sl
1000361c:	9a09      	ldr	r2, [sp, #36]	@ 0x24
1000361e:	1e6f      	subs	r7, r5, #1
10003620:	17d3      	asrs	r3, r2, #31
10003622:	18d4      	adds	r4, r2, r3
10003624:	405c      	eors	r4, r3
10003626:	0fd3      	lsrs	r3, r2, #31
10003628:	469b      	mov	fp, r3
1000362a:	2500      	movs	r5, #0
1000362c:	e001      	b.n	10003632 <_etoa+0x14a>
1000362e:	2d20      	cmp	r5, #32
10003630:	d013      	beq.n	1000365a <_etoa+0x172>
10003632:	aa08      	add	r2, sp, #32
10003634:	4694      	mov	ip, r2
10003636:	231f      	movs	r3, #31
10003638:	0020      	movs	r0, r4
1000363a:	4463      	add	r3, ip
1000363c:	210a      	movs	r1, #10
1000363e:	3501      	adds	r5, #1
10003640:	195e      	adds	r6, r3, r5
10003642:	f7fe fdfb 	bl	1000223c <__wrap___aeabi_uidiv>
10003646:	3130      	adds	r1, #48	@ 0x30
10003648:	7031      	strb	r1, [r6, #0]
1000364a:	0020      	movs	r0, r4
1000364c:	210a      	movs	r1, #10
1000364e:	f7fe fdf5 	bl	1000223c <__wrap___aeabi_uidiv>
10003652:	0026      	movs	r6, r4
10003654:	0004      	movs	r4, r0
10003656:	2e09      	cmp	r6, #9
10003658:	d8e9      	bhi.n	1000362e <_etoa+0x146>
1000365a:	2305      	movs	r3, #5
1000365c:	9306      	str	r3, [sp, #24]
1000365e:	2300      	movs	r3, #0
10003660:	9304      	str	r3, [sp, #16]
10003662:	330a      	adds	r3, #10
10003664:	9303      	str	r3, [sp, #12]
10003666:	465b      	mov	r3, fp
10003668:	9e08      	ldr	r6, [sp, #32]
1000366a:	9302      	str	r3, [sp, #8]
1000366c:	ab10      	add	r3, sp, #64	@ 0x40
1000366e:	9a0a      	ldr	r2, [sp, #40]	@ 0x28
10003670:	9300      	str	r3, [sp, #0]
10003672:	4649      	mov	r1, r9
10003674:	0033      	movs	r3, r6
10003676:	4650      	mov	r0, sl
10003678:	9705      	str	r7, [sp, #20]
1000367a:	9501      	str	r5, [sp, #4]
1000367c:	f7ff fe20 	bl	100032c0 <_ntoa_format>
10003680:	9a0c      	ldr	r2, [sp, #48]	@ 0x30
10003682:	0004      	movs	r4, r0
10003684:	2a00      	cmp	r2, #0
10003686:	d022      	beq.n	100036ce <_etoa+0x1e6>
10003688:	4642      	mov	r2, r8
1000368a:	1a85      	subs	r5, r0, r2
1000368c:	9a25      	ldr	r2, [sp, #148]	@ 0x94
1000368e:	42aa      	cmp	r2, r5
10003690:	d91d      	bls.n	100036ce <_etoa+0x1e6>
10003692:	46b0      	mov	r8, r6
10003694:	4657      	mov	r7, sl
10003696:	0016      	movs	r6, r2
10003698:	0022      	movs	r2, r4
1000369a:	4643      	mov	r3, r8
1000369c:	4649      	mov	r1, r9
1000369e:	2020      	movs	r0, #32
100036a0:	3501      	adds	r5, #1
100036a2:	47b8      	blx	r7
100036a4:	3401      	adds	r4, #1
100036a6:	42ae      	cmp	r6, r5
100036a8:	d8f6      	bhi.n	10003698 <_etoa+0x1b0>
100036aa:	e010      	b.n	100036ce <_etoa+0x1e6>
100036ac:	9b26      	ldr	r3, [sp, #152]	@ 0x98
100036ae:	4642      	mov	r2, r8
100036b0:	9304      	str	r3, [sp, #16]
100036b2:	9b25      	ldr	r3, [sp, #148]	@ 0x94
100036b4:	4649      	mov	r1, r9
100036b6:	9303      	str	r3, [sp, #12]
100036b8:	9b24      	ldr	r3, [sp, #144]	@ 0x90
100036ba:	4650      	mov	r0, sl
100036bc:	9302      	str	r3, [sp, #8]
100036be:	9b22      	ldr	r3, [sp, #136]	@ 0x88
100036c0:	9c23      	ldr	r4, [sp, #140]	@ 0x8c
100036c2:	9300      	str	r3, [sp, #0]
100036c4:	9401      	str	r4, [sp, #4]
100036c6:	9b08      	ldr	r3, [sp, #32]
100036c8:	f000 f940 	bl	1000394c <_ftoa>
100036cc:	0004      	movs	r4, r0
100036ce:	0020      	movs	r0, r4
100036d0:	b019      	add	sp, #100	@ 0x64
100036d2:	bcf0      	pop	{r4, r5, r6, r7}
100036d4:	46bb      	mov	fp, r7
100036d6:	46b2      	mov	sl, r6
100036d8:	46a9      	mov	r9, r5
100036da:	46a0      	mov	r8, r4
100036dc:	bdf0      	pop	{r4, r5, r6, r7, pc}
100036de:	4b6a      	ldr	r3, [pc, #424]	@ (10003888 <_etoa+0x3a0>)
100036e0:	0078      	lsls	r0, r7, #1
100036e2:	469c      	mov	ip, r3
100036e4:	0d40      	lsrs	r0, r0, #21
100036e6:	4460      	add	r0, ip
100036e8:	f7ff f88a 	bl	10002800 <__wrap___aeabi_i2d>
100036ec:	4a67      	ldr	r2, [pc, #412]	@ (1000388c <_etoa+0x3a4>)
100036ee:	4b68      	ldr	r3, [pc, #416]	@ (10003890 <_etoa+0x3a8>)
100036f0:	f7ff f80f 	bl	10002712 <__wrap___aeabi_dmul>
100036f4:	4a67      	ldr	r2, [pc, #412]	@ (10003894 <_etoa+0x3ac>)
100036f6:	4b68      	ldr	r3, [pc, #416]	@ (10003898 <_etoa+0x3b0>)
100036f8:	f7fe ffe4 	bl	100026c4 <__wrap___aeabi_dadd>
100036fc:	4a67      	ldr	r2, [pc, #412]	@ (1000389c <_etoa+0x3b4>)
100036fe:	033b      	lsls	r3, r7, #12
10003700:	0b1b      	lsrs	r3, r3, #12
10003702:	431a      	orrs	r2, r3
10003704:	0004      	movs	r4, r0
10003706:	000d      	movs	r5, r1
10003708:	9809      	ldr	r0, [sp, #36]	@ 0x24
1000370a:	0011      	movs	r1, r2
1000370c:	4b64      	ldr	r3, [pc, #400]	@ (100038a0 <_etoa+0x3b8>)
1000370e:	2200      	movs	r2, #0
10003710:	f7fe ffcf 	bl	100026b2 <__wrap___aeabi_dsub>
10003714:	4a63      	ldr	r2, [pc, #396]	@ (100038a4 <_etoa+0x3bc>)
10003716:	4b64      	ldr	r3, [pc, #400]	@ (100038a8 <_etoa+0x3c0>)
10003718:	f7fe fffb 	bl	10002712 <__wrap___aeabi_dmul>
1000371c:	0002      	movs	r2, r0
1000371e:	000b      	movs	r3, r1
10003720:	0020      	movs	r0, r4
10003722:	0029      	movs	r1, r5
10003724:	f7fe ffce 	bl	100026c4 <__wrap___aeabi_dadd>
10003728:	f7ff f882 	bl	10002830 <__wrap___aeabi_d2iz>
1000372c:	9009      	str	r0, [sp, #36]	@ 0x24
1000372e:	f7ff f867 	bl	10002800 <__wrap___aeabi_i2d>
10003732:	4a5e      	ldr	r2, [pc, #376]	@ (100038ac <_etoa+0x3c4>)
10003734:	4b5e      	ldr	r3, [pc, #376]	@ (100038b0 <_etoa+0x3c8>)
10003736:	0004      	movs	r4, r0
10003738:	000d      	movs	r5, r1
1000373a:	f7fe ffea 	bl	10002712 <__wrap___aeabi_dmul>
1000373e:	2200      	movs	r2, #0
10003740:	4b5c      	ldr	r3, [pc, #368]	@ (100038b4 <_etoa+0x3cc>)
10003742:	f7fe ffbf 	bl	100026c4 <__wrap___aeabi_dadd>
10003746:	f7ff f873 	bl	10002830 <__wrap___aeabi_d2iz>
1000374a:	4a5b      	ldr	r2, [pc, #364]	@ (100038b8 <_etoa+0x3d0>)
1000374c:	4b5b      	ldr	r3, [pc, #364]	@ (100038bc <_etoa+0x3d4>)
1000374e:	0029      	movs	r1, r5
10003750:	900c      	str	r0, [sp, #48]	@ 0x30
10003752:	0020      	movs	r0, r4
10003754:	f7fe ffdd 	bl	10002712 <__wrap___aeabi_dmul>
10003758:	0004      	movs	r4, r0
1000375a:	980c      	ldr	r0, [sp, #48]	@ 0x30
1000375c:	000d      	movs	r5, r1
1000375e:	f7ff f84f 	bl	10002800 <__wrap___aeabi_i2d>
10003762:	4a57      	ldr	r2, [pc, #348]	@ (100038c0 <_etoa+0x3d8>)
10003764:	4b57      	ldr	r3, [pc, #348]	@ (100038c4 <_etoa+0x3dc>)
10003766:	f7fe ffd4 	bl	10002712 <__wrap___aeabi_dmul>
1000376a:	0002      	movs	r2, r0
1000376c:	000b      	movs	r3, r1
1000376e:	0020      	movs	r0, r4
10003770:	0029      	movs	r1, r5
10003772:	f7fe ff9e 	bl	100026b2 <__wrap___aeabi_dsub>
10003776:	0004      	movs	r4, r0
10003778:	000d      	movs	r5, r1
1000377a:	0002      	movs	r2, r0
1000377c:	000b      	movs	r3, r1
1000377e:	940a      	str	r4, [sp, #40]	@ 0x28
10003780:	950b      	str	r5, [sp, #44]	@ 0x2c
10003782:	f7fe ffc6 	bl	10002712 <__wrap___aeabi_dmul>
10003786:	0004      	movs	r4, r0
10003788:	000d      	movs	r5, r1
1000378a:	980a      	ldr	r0, [sp, #40]	@ 0x28
1000378c:	990b      	ldr	r1, [sp, #44]	@ 0x2c
1000378e:	0002      	movs	r2, r0
10003790:	000b      	movs	r3, r1
10003792:	f7fe ff97 	bl	100026c4 <__wrap___aeabi_dadd>
10003796:	2200      	movs	r2, #0
10003798:	900e      	str	r0, [sp, #56]	@ 0x38
1000379a:	910f      	str	r1, [sp, #60]	@ 0x3c
1000379c:	4b4a      	ldr	r3, [pc, #296]	@ (100038c8 <_etoa+0x3e0>)
1000379e:	0020      	movs	r0, r4
100037a0:	0029      	movs	r1, r5
100037a2:	f7fe ff98 	bl	100026d6 <__wrap___aeabi_ddiv>
100037a6:	2200      	movs	r2, #0
100037a8:	4b48      	ldr	r3, [pc, #288]	@ (100038cc <_etoa+0x3e4>)
100037aa:	f7fe ff8b 	bl	100026c4 <__wrap___aeabi_dadd>
100037ae:	0002      	movs	r2, r0
100037b0:	000b      	movs	r3, r1
100037b2:	0020      	movs	r0, r4
100037b4:	0029      	movs	r1, r5
100037b6:	f7fe ff8e 	bl	100026d6 <__wrap___aeabi_ddiv>
100037ba:	2200      	movs	r2, #0
100037bc:	4b44      	ldr	r3, [pc, #272]	@ (100038d0 <_etoa+0x3e8>)
100037be:	f7fe ff81 	bl	100026c4 <__wrap___aeabi_dadd>
100037c2:	0002      	movs	r2, r0
100037c4:	000b      	movs	r3, r1
100037c6:	0020      	movs	r0, r4
100037c8:	0029      	movs	r1, r5
100037ca:	f7fe ff84 	bl	100026d6 <__wrap___aeabi_ddiv>
100037ce:	9a0a      	ldr	r2, [sp, #40]	@ 0x28
100037d0:	9b0b      	ldr	r3, [sp, #44]	@ 0x2c
100037d2:	000d      	movs	r5, r1
100037d4:	2180      	movs	r1, #128	@ 0x80
100037d6:	0004      	movs	r4, r0
100037d8:	05c9      	lsls	r1, r1, #23
100037da:	2000      	movs	r0, #0
100037dc:	f7fe ff69 	bl	100026b2 <__wrap___aeabi_dsub>
100037e0:	0002      	movs	r2, r0
100037e2:	000b      	movs	r3, r1
100037e4:	0020      	movs	r0, r4
100037e6:	0029      	movs	r1, r5
100037e8:	f7fe ff6c 	bl	100026c4 <__wrap___aeabi_dadd>
100037ec:	0002      	movs	r2, r0
100037ee:	000b      	movs	r3, r1
100037f0:	980e      	ldr	r0, [sp, #56]	@ 0x38
100037f2:	990f      	ldr	r1, [sp, #60]	@ 0x3c
100037f4:	f7fe ff6f 	bl	100026d6 <__wrap___aeabi_ddiv>
100037f8:	2200      	movs	r2, #0
100037fa:	4b28      	ldr	r3, [pc, #160]	@ (1000389c <_etoa+0x3b4>)
100037fc:	f7fe ff62 	bl	100026c4 <__wrap___aeabi_dadd>
10003800:	4b34      	ldr	r3, [pc, #208]	@ (100038d4 <_etoa+0x3ec>)
10003802:	9c0c      	ldr	r4, [sp, #48]	@ 0x30
10003804:	469c      	mov	ip, r3
10003806:	4464      	add	r4, ip
10003808:	0523      	lsls	r3, r4, #20
1000380a:	2200      	movs	r2, #0
1000380c:	f7fe ff81 	bl	10002712 <__wrap___aeabi_dmul>
10003810:	0004      	movs	r4, r0
10003812:	000d      	movs	r5, r1
10003814:	0002      	movs	r2, r0
10003816:	000b      	movs	r3, r1
10003818:	0030      	movs	r0, r6
1000381a:	0039      	movs	r1, r7
1000381c:	940a      	str	r4, [sp, #40]	@ 0x28
1000381e:	950b      	str	r5, [sp, #44]	@ 0x2c
10003820:	f7fe ffc2 	bl	100027a8 <__wrap___aeabi_dcmplt>
10003824:	2800      	cmp	r0, #0
10003826:	d15d      	bne.n	100038e4 <_etoa+0x3fc>
10003828:	0023      	movs	r3, r4
1000382a:	002a      	movs	r2, r5
1000382c:	25c6      	movs	r5, #198	@ 0xc6
1000382e:	9909      	ldr	r1, [sp, #36]	@ 0x24
10003830:	3163      	adds	r1, #99	@ 0x63
10003832:	428d      	cmp	r5, r1
10003834:	41ad      	sbcs	r5, r5
10003836:	4659      	mov	r1, fp
10003838:	426d      	negs	r5, r5
1000383a:	3504      	adds	r5, #4
1000383c:	2900      	cmp	r1, #0
1000383e:	d100      	bne.n	10003842 <_etoa+0x35a>
10003840:	e6a3      	b.n	1000358a <_etoa+0xa2>
10003842:	4313      	orrs	r3, r2
10003844:	d063      	beq.n	1000390e <_etoa+0x426>
10003846:	0030      	movs	r0, r6
10003848:	0039      	movs	r1, r7
1000384a:	4a23      	ldr	r2, [pc, #140]	@ (100038d8 <_etoa+0x3f0>)
1000384c:	4b23      	ldr	r3, [pc, #140]	@ (100038dc <_etoa+0x3f4>)
1000384e:	f7fe ffb9 	bl	100027c4 <__wrap___aeabi_dcmpge>
10003852:	2800      	cmp	r0, #0
10003854:	d007      	beq.n	10003866 <_etoa+0x37e>
10003856:	2200      	movs	r2, #0
10003858:	0030      	movs	r0, r6
1000385a:	0039      	movs	r1, r7
1000385c:	4b20      	ldr	r3, [pc, #128]	@ (100038e0 <_etoa+0x3f8>)
1000385e:	f7fe ffa3 	bl	100027a8 <__wrap___aeabi_dcmplt>
10003862:	2800      	cmp	r0, #0
10003864:	d153      	bne.n	1000390e <_etoa+0x426>
10003866:	9b24      	ldr	r3, [sp, #144]	@ 0x90
10003868:	2b00      	cmp	r3, #0
1000386a:	d100      	bne.n	1000386e <_etoa+0x386>
1000386c:	e68d      	b.n	1000358a <_etoa+0xa2>
1000386e:	9b0d      	ldr	r3, [sp, #52]	@ 0x34
10003870:	1e5a      	subs	r2, r3, #1
10003872:	4193      	sbcs	r3, r2
10003874:	9a24      	ldr	r2, [sp, #144]	@ 0x90
10003876:	1ad3      	subs	r3, r2, r3
10003878:	9324      	str	r3, [sp, #144]	@ 0x90
1000387a:	e686      	b.n	1000358a <_etoa+0xa2>
1000387c:	7fefffff 	.word	0x7fefffff
10003880:	ffefffff 	.word	0xffefffff
10003884:	fffff7ff 	.word	0xfffff7ff
10003888:	fffffc01 	.word	0xfffffc01
1000388c:	509f79fb 	.word	0x509f79fb
10003890:	3fd34413 	.word	0x3fd34413
10003894:	8b60c8b3 	.word	0x8b60c8b3
10003898:	3fc68a28 	.word	0x3fc68a28
1000389c:	3ff00000 	.word	0x3ff00000
100038a0:	3ff80000 	.word	0x3ff80000
100038a4:	636f4361 	.word	0x636f4361
100038a8:	3fd287a7 	.word	0x3fd287a7
100038ac:	0979a371 	.word	0x0979a371
100038b0:	400a934f 	.word	0x400a934f
100038b4:	3fe00000 	.word	0x3fe00000
100038b8:	bbb55516 	.word	0xbbb55516
100038bc:	40026bb1 	.word	0x40026bb1
100038c0:	fefa39ef 	.word	0xfefa39ef
100038c4:	3fe62e42 	.word	0x3fe62e42
100038c8:	402c0000 	.word	0x402c0000
100038cc:	40240000 	.word	0x40240000
100038d0:	40180000 	.word	0x40180000
100038d4:	000003ff 	.word	0x000003ff
100038d8:	eb1c432d 	.word	0xeb1c432d
100038dc:	3f1a36e2 	.word	0x3f1a36e2
100038e0:	412e8480 	.word	0x412e8480
100038e4:	9b09      	ldr	r3, [sp, #36]	@ 0x24
100038e6:	2200      	movs	r2, #0
100038e8:	3b01      	subs	r3, #1
100038ea:	9309      	str	r3, [sp, #36]	@ 0x24
100038ec:	0020      	movs	r0, r4
100038ee:	4b16      	ldr	r3, [pc, #88]	@ (10003948 <_etoa+0x460>)
100038f0:	0029      	movs	r1, r5
100038f2:	f7fe fef0 	bl	100026d6 <__wrap___aeabi_ddiv>
100038f6:	000a      	movs	r2, r1
100038f8:	0001      	movs	r1, r0
100038fa:	0003      	movs	r3, r0
100038fc:	910a      	str	r1, [sp, #40]	@ 0x28
100038fe:	920b      	str	r2, [sp, #44]	@ 0x2c
10003900:	e794      	b.n	1000382c <_etoa+0x344>
10003902:	2300      	movs	r3, #0
10003904:	2400      	movs	r4, #0
10003906:	930a      	str	r3, [sp, #40]	@ 0x28
10003908:	940b      	str	r4, [sp, #44]	@ 0x2c
1000390a:	2300      	movs	r3, #0
1000390c:	9309      	str	r3, [sp, #36]	@ 0x24
1000390e:	9a24      	ldr	r2, [sp, #144]	@ 0x90
10003910:	9b09      	ldr	r3, [sp, #36]	@ 0x24
10003912:	429a      	cmp	r2, r3
10003914:	dd14      	ble.n	10003940 <_etoa+0x458>
10003916:	1ad3      	subs	r3, r2, r3
10003918:	3b01      	subs	r3, #1
1000391a:	9324      	str	r3, [sp, #144]	@ 0x90
1000391c:	2380      	movs	r3, #128	@ 0x80
1000391e:	9a26      	ldr	r2, [sp, #152]	@ 0x98
10003920:	00db      	lsls	r3, r3, #3
10003922:	431a      	orrs	r2, r3
10003924:	2300      	movs	r3, #0
10003926:	2500      	movs	r5, #0
10003928:	9226      	str	r2, [sp, #152]	@ 0x98
1000392a:	9309      	str	r3, [sp, #36]	@ 0x24
1000392c:	e62d      	b.n	1000358a <_etoa+0xa2>
1000392e:	2280      	movs	r2, #128	@ 0x80
10003930:	0612      	lsls	r2, r2, #24
10003932:	4694      	mov	ip, r2
10003934:	9b22      	ldr	r3, [sp, #136]	@ 0x88
10003936:	001e      	movs	r6, r3
10003938:	9b23      	ldr	r3, [sp, #140]	@ 0x8c
1000393a:	4463      	add	r3, ip
1000393c:	001f      	movs	r7, r3
1000393e:	e606      	b.n	1000354e <_etoa+0x66>
10003940:	2300      	movs	r3, #0
10003942:	9324      	str	r3, [sp, #144]	@ 0x90
10003944:	e7ea      	b.n	1000391c <_etoa+0x434>
10003946:	46c0      	nop			@ (mov r8, r8)
10003948:	40240000 	.word	0x40240000

1000394c <_ftoa>:
1000394c:	b5f0      	push	{r4, r5, r6, r7, lr}
1000394e:	4645      	mov	r5, r8
10003950:	46de      	mov	lr, fp
10003952:	464e      	mov	r6, r9
10003954:	4657      	mov	r7, sl
10003956:	b5e0      	push	{r5, r6, r7, lr}
10003958:	b095      	sub	sp, #84	@ 0x54
1000395a:	468b      	mov	fp, r1
1000395c:	4690      	mov	r8, r2
1000395e:	4699      	mov	r9, r3
10003960:	9a1e      	ldr	r2, [sp, #120]	@ 0x78
10003962:	9b1f      	ldr	r3, [sp, #124]	@ 0x7c
10003964:	900a      	str	r0, [sp, #40]	@ 0x28
10003966:	0019      	movs	r1, r3
10003968:	0010      	movs	r0, r2
1000396a:	9d20      	ldr	r5, [sp, #128]	@ 0x80
1000396c:	f7fe ff37 	bl	100027de <__wrap___aeabi_dcmpun>
10003970:	2800      	cmp	r0, #0
10003972:	d000      	beq.n	10003976 <_ftoa+0x2a>
10003974:	e1b0      	b.n	10003cd8 <_ftoa+0x38c>
10003976:	981e      	ldr	r0, [sp, #120]	@ 0x78
10003978:	991f      	ldr	r1, [sp, #124]	@ 0x7c
1000397a:	2201      	movs	r2, #1
1000397c:	4bc7      	ldr	r3, [pc, #796]	@ (10003c9c <_ftoa+0x350>)
1000397e:	4252      	negs	r2, r2
10003980:	f7fe ff12 	bl	100027a8 <__wrap___aeabi_dcmplt>
10003984:	2800      	cmp	r0, #0
10003986:	d000      	beq.n	1000398a <_ftoa+0x3e>
10003988:	e137      	b.n	10003bfa <_ftoa+0x2ae>
1000398a:	981e      	ldr	r0, [sp, #120]	@ 0x78
1000398c:	991f      	ldr	r1, [sp, #124]	@ 0x7c
1000398e:	2201      	movs	r2, #1
10003990:	4bc3      	ldr	r3, [pc, #780]	@ (10003ca0 <_ftoa+0x354>)
10003992:	4252      	negs	r2, r2
10003994:	f7fe ff1e 	bl	100027d4 <__wrap___aeabi_dcmpgt>
10003998:	2800      	cmp	r0, #0
1000399a:	d000      	beq.n	1000399e <_ftoa+0x52>
1000399c:	e0a7      	b.n	10003aee <_ftoa+0x1a2>
1000399e:	981e      	ldr	r0, [sp, #120]	@ 0x78
100039a0:	991f      	ldr	r1, [sp, #124]	@ 0x7c
100039a2:	2200      	movs	r2, #0
100039a4:	4bbf      	ldr	r3, [pc, #764]	@ (10003ca4 <_ftoa+0x358>)
100039a6:	f7fe ff15 	bl	100027d4 <__wrap___aeabi_dcmpgt>
100039aa:	2800      	cmp	r0, #0
100039ac:	d000      	beq.n	100039b0 <_ftoa+0x64>
100039ae:	e088      	b.n	10003ac2 <_ftoa+0x176>
100039b0:	981e      	ldr	r0, [sp, #120]	@ 0x78
100039b2:	991f      	ldr	r1, [sp, #124]	@ 0x7c
100039b4:	2200      	movs	r2, #0
100039b6:	4bbc      	ldr	r3, [pc, #752]	@ (10003ca8 <_ftoa+0x35c>)
100039b8:	f7fe fef6 	bl	100027a8 <__wrap___aeabi_dcmplt>
100039bc:	2800      	cmp	r0, #0
100039be:	d000      	beq.n	100039c2 <_ftoa+0x76>
100039c0:	e07f      	b.n	10003ac2 <_ftoa+0x176>
100039c2:	981e      	ldr	r0, [sp, #120]	@ 0x78
100039c4:	991f      	ldr	r1, [sp, #124]	@ 0x7c
100039c6:	2200      	movs	r2, #0
100039c8:	2300      	movs	r3, #0
100039ca:	f7fe feed 	bl	100027a8 <__wrap___aeabi_dcmplt>
100039ce:	2800      	cmp	r0, #0
100039d0:	d000      	beq.n	100039d4 <_ftoa+0x88>
100039d2:	e0fa      	b.n	10003bca <_ftoa+0x27e>
100039d4:	2300      	movs	r3, #0
100039d6:	930b      	str	r3, [sp, #44]	@ 0x2c
100039d8:	2380      	movs	r3, #128	@ 0x80
100039da:	9c22      	ldr	r4, [sp, #136]	@ 0x88
100039dc:	9a22      	ldr	r2, [sp, #136]	@ 0x88
100039de:	00db      	lsls	r3, r3, #3
100039e0:	401c      	ands	r4, r3
100039e2:	421a      	tst	r2, r3
100039e4:	d100      	bne.n	100039e8 <_ftoa+0x9c>
100039e6:	e102      	b.n	10003bee <_ftoa+0x2a2>
100039e8:	2d09      	cmp	r5, #9
100039ea:	d800      	bhi.n	100039ee <_ftoa+0xa2>
100039ec:	e17e      	b.n	10003cec <_ftoa+0x3a0>
100039ee:	a906      	add	r1, sp, #24
100039f0:	468c      	mov	ip, r1
100039f2:	002c      	movs	r4, r5
100039f4:	2217      	movs	r2, #23
100039f6:	2300      	movs	r3, #0
100039f8:	2130      	movs	r1, #48	@ 0x30
100039fa:	3c09      	subs	r4, #9
100039fc:	4462      	add	r2, ip
100039fe:	3301      	adds	r3, #1
10003a00:	54d1      	strb	r1, [r2, r3]
10003a02:	1aef      	subs	r7, r5, r3
10003a04:	2b20      	cmp	r3, #32
10003a06:	d100      	bne.n	10003a0a <_ftoa+0xbe>
10003a08:	e132      	b.n	10003c70 <_ftoa+0x324>
10003a0a:	42a3      	cmp	r3, r4
10003a0c:	d1f7      	bne.n	100039fe <_ftoa+0xb2>
10003a0e:	2200      	movs	r2, #0
10003a10:	4ba4      	ldr	r3, [pc, #656]	@ (10003ca4 <_ftoa+0x358>)
10003a12:	9206      	str	r2, [sp, #24]
10003a14:	9307      	str	r3, [sp, #28]
10003a16:	981e      	ldr	r0, [sp, #120]	@ 0x78
10003a18:	991f      	ldr	r1, [sp, #124]	@ 0x7c
10003a1a:	f7fe ff09 	bl	10002830 <__wrap___aeabi_d2iz>
10003a1e:	0005      	movs	r5, r0
10003a20:	f7fe feee 	bl	10002800 <__wrap___aeabi_i2d>
10003a24:	0002      	movs	r2, r0
10003a26:	000b      	movs	r3, r1
10003a28:	981e      	ldr	r0, [sp, #120]	@ 0x78
10003a2a:	991f      	ldr	r1, [sp, #124]	@ 0x7c
10003a2c:	f7fe fe41 	bl	100026b2 <__wrap___aeabi_dsub>
10003a30:	9a06      	ldr	r2, [sp, #24]
10003a32:	9b07      	ldr	r3, [sp, #28]
10003a34:	f7fe fe6d 	bl	10002712 <__wrap___aeabi_dmul>
10003a38:	9008      	str	r0, [sp, #32]
10003a3a:	9109      	str	r1, [sp, #36]	@ 0x24
10003a3c:	f7fe ff1c 	bl	10002878 <__wrap___aeabi_d2uiz>
10003a40:	0006      	movs	r6, r0
10003a42:	f7fe fed9 	bl	100027f8 <__wrap___aeabi_ui2d>
10003a46:	0002      	movs	r2, r0
10003a48:	000b      	movs	r3, r1
10003a4a:	9808      	ldr	r0, [sp, #32]
10003a4c:	9909      	ldr	r1, [sp, #36]	@ 0x24
10003a4e:	f7fe fe30 	bl	100026b2 <__wrap___aeabi_dsub>
10003a52:	2200      	movs	r2, #0
10003a54:	4b95      	ldr	r3, [pc, #596]	@ (10003cac <_ftoa+0x360>)
10003a56:	9008      	str	r0, [sp, #32]
10003a58:	9109      	str	r1, [sp, #36]	@ 0x24
10003a5a:	f7fe febb 	bl	100027d4 <__wrap___aeabi_dcmpgt>
10003a5e:	2800      	cmp	r0, #0
10003a60:	d100      	bne.n	10003a64 <_ftoa+0x118>
10003a62:	e0d2      	b.n	10003c0a <_ftoa+0x2be>
10003a64:	3601      	adds	r6, #1
10003a66:	0030      	movs	r0, r6
10003a68:	f7fe fec6 	bl	100027f8 <__wrap___aeabi_ui2d>
10003a6c:	9a06      	ldr	r2, [sp, #24]
10003a6e:	9b07      	ldr	r3, [sp, #28]
10003a70:	f7fe fea8 	bl	100027c4 <__wrap___aeabi_dcmpge>
10003a74:	2800      	cmp	r0, #0
10003a76:	d001      	beq.n	10003a7c <_ftoa+0x130>
10003a78:	2600      	movs	r6, #0
10003a7a:	3501      	adds	r5, #1
10003a7c:	46aa      	mov	sl, r5
10003a7e:	2f00      	cmp	r7, #0
10003a80:	d000      	beq.n	10003a84 <_ftoa+0x138>
10003a82:	e098      	b.n	10003bb6 <_ftoa+0x26a>
10003a84:	0028      	movs	r0, r5
10003a86:	f7fe febb 	bl	10002800 <__wrap___aeabi_i2d>
10003a8a:	0002      	movs	r2, r0
10003a8c:	000b      	movs	r3, r1
10003a8e:	981e      	ldr	r0, [sp, #120]	@ 0x78
10003a90:	991f      	ldr	r1, [sp, #124]	@ 0x7c
10003a92:	f7fe fe0e 	bl	100026b2 <__wrap___aeabi_dsub>
10003a96:	4b85      	ldr	r3, [pc, #532]	@ (10003cac <_ftoa+0x360>)
10003a98:	2200      	movs	r2, #0
10003a9a:	0006      	movs	r6, r0
10003a9c:	000f      	movs	r7, r1
10003a9e:	f7fe fe83 	bl	100027a8 <__wrap___aeabi_dcmplt>
10003aa2:	ab0c      	add	r3, sp, #48	@ 0x30
10003aa4:	469a      	mov	sl, r3
10003aa6:	2800      	cmp	r0, #0
10003aa8:	d145      	bne.n	10003b36 <_ftoa+0x1ea>
10003aaa:	2200      	movs	r2, #0
10003aac:	0030      	movs	r0, r6
10003aae:	0039      	movs	r1, r7
10003ab0:	4b7e      	ldr	r3, [pc, #504]	@ (10003cac <_ftoa+0x360>)
10003ab2:	f7fe fe8f 	bl	100027d4 <__wrap___aeabi_dcmpgt>
10003ab6:	2800      	cmp	r0, #0
10003ab8:	d13d      	bne.n	10003b36 <_ftoa+0x1ea>
10003aba:	07eb      	lsls	r3, r5, #31
10003abc:	d53b      	bpl.n	10003b36 <_ftoa+0x1ea>
10003abe:	3501      	adds	r5, #1
10003ac0:	e039      	b.n	10003b36 <_ftoa+0x1ea>
10003ac2:	9b22      	ldr	r3, [sp, #136]	@ 0x88
10003ac4:	4642      	mov	r2, r8
10003ac6:	9304      	str	r3, [sp, #16]
10003ac8:	9b21      	ldr	r3, [sp, #132]	@ 0x84
10003aca:	4659      	mov	r1, fp
10003acc:	9303      	str	r3, [sp, #12]
10003ace:	980a      	ldr	r0, [sp, #40]	@ 0x28
10003ad0:	9b1e      	ldr	r3, [sp, #120]	@ 0x78
10003ad2:	9c1f      	ldr	r4, [sp, #124]	@ 0x7c
10003ad4:	9502      	str	r5, [sp, #8]
10003ad6:	9300      	str	r3, [sp, #0]
10003ad8:	9401      	str	r4, [sp, #4]
10003ada:	464b      	mov	r3, r9
10003adc:	f7ff fd04 	bl	100034e8 <_etoa>
10003ae0:	b015      	add	sp, #84	@ 0x54
10003ae2:	bcf0      	pop	{r4, r5, r6, r7}
10003ae4:	46bb      	mov	fp, r7
10003ae6:	46b2      	mov	sl, r6
10003ae8:	46a9      	mov	r9, r5
10003aea:	46a0      	mov	r8, r4
10003aec:	bdf0      	pop	{r4, r5, r6, r7, pc}
10003aee:	9b22      	ldr	r3, [sp, #136]	@ 0x88
10003af0:	075b      	lsls	r3, r3, #29
10003af2:	d467      	bmi.n	10003bc4 <_ftoa+0x278>
10003af4:	2203      	movs	r2, #3
10003af6:	4b6e      	ldr	r3, [pc, #440]	@ (10003cb0 <_ftoa+0x364>)
10003af8:	9922      	ldr	r1, [sp, #136]	@ 0x88
10003afa:	9201      	str	r2, [sp, #4]
10003afc:	9103      	str	r1, [sp, #12]
10003afe:	9921      	ldr	r1, [sp, #132]	@ 0x84
10003b00:	9102      	str	r1, [sp, #8]
10003b02:	9300      	str	r3, [sp, #0]
10003b04:	4642      	mov	r2, r8
10003b06:	464b      	mov	r3, r9
10003b08:	4659      	mov	r1, fp
10003b0a:	980a      	ldr	r0, [sp, #40]	@ 0x28
10003b0c:	f7ff fb90 	bl	10003230 <_out_rev>
10003b10:	e7e6      	b.n	10003ae0 <_ftoa+0x194>
10003b12:	aa06      	add	r2, sp, #24
10003b14:	4694      	mov	ip, r2
10003b16:	2317      	movs	r3, #23
10003b18:	0028      	movs	r0, r5
10003b1a:	4463      	add	r3, ip
10003b1c:	210a      	movs	r1, #10
10003b1e:	3401      	adds	r4, #1
10003b20:	191e      	adds	r6, r3, r4
10003b22:	f7fe fb63 	bl	100021ec <__wrap___aeabi_idiv>
10003b26:	3130      	adds	r1, #48	@ 0x30
10003b28:	0028      	movs	r0, r5
10003b2a:	7031      	strb	r1, [r6, #0]
10003b2c:	210a      	movs	r1, #10
10003b2e:	f7fe fb5d 	bl	100021ec <__wrap___aeabi_idiv>
10003b32:	1e05      	subs	r5, r0, #0
10003b34:	d076      	beq.n	10003c24 <_ftoa+0x2d8>
10003b36:	2c20      	cmp	r4, #32
10003b38:	d1eb      	bne.n	10003b12 <_ftoa+0x1c6>
10003b3a:	2303      	movs	r3, #3
10003b3c:	9a22      	ldr	r2, [sp, #136]	@ 0x88
10003b3e:	4013      	ands	r3, r2
10003b40:	2b01      	cmp	r3, #1
10003b42:	d11d      	bne.n	10003b80 <_ftoa+0x234>
10003b44:	9b21      	ldr	r3, [sp, #132]	@ 0x84
10003b46:	2b00      	cmp	r3, #0
10003b48:	d01a      	beq.n	10003b80 <_ftoa+0x234>
10003b4a:	9b0b      	ldr	r3, [sp, #44]	@ 0x2c
10003b4c:	2b00      	cmp	r3, #0
10003b4e:	d000      	beq.n	10003b52 <_ftoa+0x206>
10003b50:	e0bb      	b.n	10003cca <_ftoa+0x37e>
10003b52:	9a22      	ldr	r2, [sp, #136]	@ 0x88
10003b54:	330c      	adds	r3, #12
10003b56:	4213      	tst	r3, r2
10003b58:	d000      	beq.n	10003b5c <_ftoa+0x210>
10003b5a:	e0b6      	b.n	10003cca <_ftoa+0x37e>
10003b5c:	9b21      	ldr	r3, [sp, #132]	@ 0x84
10003b5e:	42a3      	cmp	r3, r4
10003b60:	d800      	bhi.n	10003b64 <_ftoa+0x218>
10003b62:	e087      	b.n	10003c74 <_ftoa+0x328>
10003b64:	ab06      	add	r3, sp, #24
10003b66:	469c      	mov	ip, r3
10003b68:	2217      	movs	r2, #23
10003b6a:	2330      	movs	r3, #48	@ 0x30
10003b6c:	4462      	add	r2, ip
10003b6e:	e004      	b.n	10003b7a <_ftoa+0x22e>
10003b70:	9921      	ldr	r1, [sp, #132]	@ 0x84
10003b72:	3401      	adds	r4, #1
10003b74:	5513      	strb	r3, [r2, r4]
10003b76:	428c      	cmp	r4, r1
10003b78:	d059      	beq.n	10003c2e <_ftoa+0x2e2>
10003b7a:	2c20      	cmp	r4, #32
10003b7c:	d1f8      	bne.n	10003b70 <_ftoa+0x224>
10003b7e:	2420      	movs	r4, #32
10003b80:	9b22      	ldr	r3, [sp, #136]	@ 0x88
10003b82:	9401      	str	r4, [sp, #4]
10003b84:	9303      	str	r3, [sp, #12]
10003b86:	9b21      	ldr	r3, [sp, #132]	@ 0x84
10003b88:	9302      	str	r3, [sp, #8]
10003b8a:	4653      	mov	r3, sl
10003b8c:	e7b9      	b.n	10003b02 <_ftoa+0x1b6>
10003b8e:	aa06      	add	r2, sp, #24
10003b90:	4694      	mov	ip, r2
10003b92:	2317      	movs	r3, #23
10003b94:	210a      	movs	r1, #10
10003b96:	4463      	add	r3, ip
10003b98:	0030      	movs	r0, r6
10003b9a:	3401      	adds	r4, #1
10003b9c:	191d      	adds	r5, r3, r4
10003b9e:	f7fe fb4d 	bl	1000223c <__wrap___aeabi_uidiv>
10003ba2:	3130      	adds	r1, #48	@ 0x30
10003ba4:	7029      	strb	r1, [r5, #0]
10003ba6:	0030      	movs	r0, r6
10003ba8:	210a      	movs	r1, #10
10003baa:	3f01      	subs	r7, #1
10003bac:	f7fe fb46 	bl	1000223c <__wrap___aeabi_uidiv>
10003bb0:	2e09      	cmp	r6, #9
10003bb2:	d946      	bls.n	10003c42 <_ftoa+0x2f6>
10003bb4:	0006      	movs	r6, r0
10003bb6:	2c20      	cmp	r4, #32
10003bb8:	d1e9      	bne.n	10003b8e <_ftoa+0x242>
10003bba:	4655      	mov	r5, sl
10003bbc:	ab0c      	add	r3, sp, #48	@ 0x30
10003bbe:	2420      	movs	r4, #32
10003bc0:	469a      	mov	sl, r3
10003bc2:	e7b8      	b.n	10003b36 <_ftoa+0x1ea>
10003bc4:	2204      	movs	r2, #4
10003bc6:	4b3b      	ldr	r3, [pc, #236]	@ (10003cb4 <_ftoa+0x368>)
10003bc8:	e796      	b.n	10003af8 <_ftoa+0x1ac>
10003bca:	9a1e      	ldr	r2, [sp, #120]	@ 0x78
10003bcc:	9b1f      	ldr	r3, [sp, #124]	@ 0x7c
10003bce:	2000      	movs	r0, #0
10003bd0:	2100      	movs	r1, #0
10003bd2:	f7fe fd6e 	bl	100026b2 <__wrap___aeabi_dsub>
10003bd6:	2301      	movs	r3, #1
10003bd8:	930b      	str	r3, [sp, #44]	@ 0x2c
10003bda:	2380      	movs	r3, #128	@ 0x80
10003bdc:	9c22      	ldr	r4, [sp, #136]	@ 0x88
10003bde:	9a22      	ldr	r2, [sp, #136]	@ 0x88
10003be0:	00db      	lsls	r3, r3, #3
10003be2:	901e      	str	r0, [sp, #120]	@ 0x78
10003be4:	911f      	str	r1, [sp, #124]	@ 0x7c
10003be6:	401c      	ands	r4, r3
10003be8:	421a      	tst	r2, r3
10003bea:	d000      	beq.n	10003bee <_ftoa+0x2a2>
10003bec:	e6fc      	b.n	100039e8 <_ftoa+0x9c>
10003bee:	2200      	movs	r2, #0
10003bf0:	4b31      	ldr	r3, [pc, #196]	@ (10003cb8 <_ftoa+0x36c>)
10003bf2:	2706      	movs	r7, #6
10003bf4:	9206      	str	r2, [sp, #24]
10003bf6:	9307      	str	r3, [sp, #28]
10003bf8:	e70d      	b.n	10003a16 <_ftoa+0xca>
10003bfa:	9b22      	ldr	r3, [sp, #136]	@ 0x88
10003bfc:	9303      	str	r3, [sp, #12]
10003bfe:	9b21      	ldr	r3, [sp, #132]	@ 0x84
10003c00:	9302      	str	r3, [sp, #8]
10003c02:	2304      	movs	r3, #4
10003c04:	9301      	str	r3, [sp, #4]
10003c06:	4b2d      	ldr	r3, [pc, #180]	@ (10003cbc <_ftoa+0x370>)
10003c08:	e77b      	b.n	10003b02 <_ftoa+0x1b6>
10003c0a:	2200      	movs	r2, #0
10003c0c:	9808      	ldr	r0, [sp, #32]
10003c0e:	9909      	ldr	r1, [sp, #36]	@ 0x24
10003c10:	4b26      	ldr	r3, [pc, #152]	@ (10003cac <_ftoa+0x360>)
10003c12:	f7fe fdc9 	bl	100027a8 <__wrap___aeabi_dcmplt>
10003c16:	2800      	cmp	r0, #0
10003c18:	d000      	beq.n	10003c1c <_ftoa+0x2d0>
10003c1a:	e72f      	b.n	10003a7c <_ftoa+0x130>
10003c1c:	2e00      	cmp	r6, #0
10003c1e:	d14f      	bne.n	10003cc0 <_ftoa+0x374>
10003c20:	3601      	adds	r6, #1
10003c22:	e72b      	b.n	10003a7c <_ftoa+0x130>
10003c24:	2303      	movs	r3, #3
10003c26:	9a22      	ldr	r2, [sp, #136]	@ 0x88
10003c28:	4013      	ands	r3, r2
10003c2a:	2b01      	cmp	r3, #1
10003c2c:	d068      	beq.n	10003d00 <_ftoa+0x3b4>
10003c2e:	2c20      	cmp	r4, #32
10003c30:	d0a6      	beq.n	10003b80 <_ftoa+0x234>
10003c32:	9b0b      	ldr	r3, [sp, #44]	@ 0x2c
10003c34:	2b00      	cmp	r3, #0
10003c36:	d01f      	beq.n	10003c78 <_ftoa+0x32c>
10003c38:	232d      	movs	r3, #45	@ 0x2d
10003c3a:	4652      	mov	r2, sl
10003c3c:	5513      	strb	r3, [r2, r4]
10003c3e:	3401      	adds	r4, #1
10003c40:	e79e      	b.n	10003b80 <_ftoa+0x234>
10003c42:	4655      	mov	r5, sl
10003c44:	2c20      	cmp	r4, #32
10003c46:	d0b9      	beq.n	10003bbc <_ftoa+0x270>
10003c48:	2230      	movs	r2, #48	@ 0x30
10003c4a:	193b      	adds	r3, r7, r4
10003c4c:	2f00      	cmp	r7, #0
10003c4e:	d04b      	beq.n	10003ce8 <_ftoa+0x39c>
10003c50:	2017      	movs	r0, #23
10003c52:	a906      	add	r1, sp, #24
10003c54:	3401      	adds	r4, #1
10003c56:	1809      	adds	r1, r1, r0
10003c58:	550a      	strb	r2, [r1, r4]
10003c5a:	2c20      	cmp	r4, #32
10003c5c:	d0ae      	beq.n	10003bbc <_ftoa+0x270>
10003c5e:	429c      	cmp	r4, r3
10003c60:	d1f6      	bne.n	10003c50 <_ftoa+0x304>
10003c62:	aa0c      	add	r2, sp, #48	@ 0x30
10003c64:	4692      	mov	sl, r2
10003c66:	222e      	movs	r2, #46	@ 0x2e
10003c68:	4651      	mov	r1, sl
10003c6a:	1c5c      	adds	r4, r3, #1
10003c6c:	54ca      	strb	r2, [r1, r3]
10003c6e:	e762      	b.n	10003b36 <_ftoa+0x1ea>
10003c70:	2420      	movs	r4, #32
10003c72:	e6cc      	b.n	10003a0e <_ftoa+0xc2>
10003c74:	2c20      	cmp	r4, #32
10003c76:	d083      	beq.n	10003b80 <_ftoa+0x234>
10003c78:	9b22      	ldr	r3, [sp, #136]	@ 0x88
10003c7a:	075b      	lsls	r3, r3, #29
10003c7c:	d408      	bmi.n	10003c90 <_ftoa+0x344>
10003c7e:	9b22      	ldr	r3, [sp, #136]	@ 0x88
10003c80:	071b      	lsls	r3, r3, #28
10003c82:	d400      	bmi.n	10003c86 <_ftoa+0x33a>
10003c84:	e77c      	b.n	10003b80 <_ftoa+0x234>
10003c86:	2320      	movs	r3, #32
10003c88:	4652      	mov	r2, sl
10003c8a:	5513      	strb	r3, [r2, r4]
10003c8c:	3401      	adds	r4, #1
10003c8e:	e777      	b.n	10003b80 <_ftoa+0x234>
10003c90:	232b      	movs	r3, #43	@ 0x2b
10003c92:	4652      	mov	r2, sl
10003c94:	5513      	strb	r3, [r2, r4]
10003c96:	3401      	adds	r4, #1
10003c98:	e772      	b.n	10003b80 <_ftoa+0x234>
10003c9a:	46c0      	nop			@ (mov r8, r8)
10003c9c:	ffefffff 	.word	0xffefffff
10003ca0:	7fefffff 	.word	0x7fefffff
10003ca4:	41cdcd65 	.word	0x41cdcd65
10003ca8:	c1cdcd65 	.word	0xc1cdcd65
10003cac:	3fe00000 	.word	0x3fe00000
10003cb0:	1000aff0 	.word	0x1000aff0
10003cb4:	1000afe8 	.word	0x1000afe8
10003cb8:	412e8480 	.word	0x412e8480
10003cbc:	1000aff8 	.word	0x1000aff8
10003cc0:	07f3      	lsls	r3, r6, #31
10003cc2:	d400      	bmi.n	10003cc6 <_ftoa+0x37a>
10003cc4:	e6da      	b.n	10003a7c <_ftoa+0x130>
10003cc6:	3601      	adds	r6, #1
10003cc8:	e6d8      	b.n	10003a7c <_ftoa+0x130>
10003cca:	9b21      	ldr	r3, [sp, #132]	@ 0x84
10003ccc:	3b01      	subs	r3, #1
10003cce:	9321      	str	r3, [sp, #132]	@ 0x84
10003cd0:	42a3      	cmp	r3, r4
10003cd2:	d900      	bls.n	10003cd6 <_ftoa+0x38a>
10003cd4:	e746      	b.n	10003b64 <_ftoa+0x218>
10003cd6:	e7aa      	b.n	10003c2e <_ftoa+0x2e2>
10003cd8:	9b22      	ldr	r3, [sp, #136]	@ 0x88
10003cda:	9303      	str	r3, [sp, #12]
10003cdc:	9b21      	ldr	r3, [sp, #132]	@ 0x84
10003cde:	9302      	str	r3, [sp, #8]
10003ce0:	2303      	movs	r3, #3
10003ce2:	9301      	str	r3, [sp, #4]
10003ce4:	4b08      	ldr	r3, [pc, #32]	@ (10003d08 <_ftoa+0x3bc>)
10003ce6:	e70c      	b.n	10003b02 <_ftoa+0x1b6>
10003ce8:	0023      	movs	r3, r4
10003cea:	e7ba      	b.n	10003c62 <_ftoa+0x316>
10003cec:	4b07      	ldr	r3, [pc, #28]	@ (10003d0c <_ftoa+0x3c0>)
10003cee:	00ea      	lsls	r2, r5, #3
10003cf0:	189b      	adds	r3, r3, r2
10003cf2:	685c      	ldr	r4, [r3, #4]
10003cf4:	681b      	ldr	r3, [r3, #0]
10003cf6:	002f      	movs	r7, r5
10003cf8:	9306      	str	r3, [sp, #24]
10003cfa:	9407      	str	r4, [sp, #28]
10003cfc:	2400      	movs	r4, #0
10003cfe:	e68a      	b.n	10003a16 <_ftoa+0xca>
10003d00:	9b21      	ldr	r3, [sp, #132]	@ 0x84
10003d02:	2b00      	cmp	r3, #0
10003d04:	d093      	beq.n	10003c2e <_ftoa+0x2e2>
10003d06:	e720      	b.n	10003b4a <_ftoa+0x1fe>
10003d08:	1000aff4 	.word	0x1000aff4
10003d0c:	1000b1a0 	.word	0x1000b1a0

10003d10 <_vsnprintf>:
10003d10:	b5f0      	push	{r4, r5, r6, r7, lr}
10003d12:	4645      	mov	r5, r8
10003d14:	46de      	mov	lr, fp
10003d16:	4657      	mov	r7, sl
10003d18:	464e      	mov	r6, r9
10003d1a:	b5e0      	push	{r5, r6, r7, lr}
10003d1c:	b0a1      	sub	sp, #132	@ 0x84
10003d1e:	001d      	movs	r5, r3
10003d20:	9b2a      	ldr	r3, [sp, #168]	@ 0xa8
10003d22:	4690      	mov	r8, r2
10003d24:	930b      	str	r3, [sp, #44]	@ 0x2c
10003d26:	4ad0      	ldr	r2, [pc, #832]	@ (10004068 <_vsnprintf+0x358>)
10003d28:	4bd0      	ldr	r3, [pc, #832]	@ (1000406c <_vsnprintf+0x35c>)
10003d2a:	4683      	mov	fp, r0
10003d2c:	468a      	mov	sl, r1
10003d2e:	601a      	str	r2, [r3, #0]
10003d30:	2900      	cmp	r1, #0
10003d32:	d100      	bne.n	10003d36 <_vsnprintf+0x26>
10003d34:	e1a4      	b.n	10004080 <_vsnprintf+0x370>
10003d36:	2300      	movs	r3, #0
10003d38:	7828      	ldrb	r0, [r5, #0]
10003d3a:	4699      	mov	r9, r3
10003d3c:	2800      	cmp	r0, #0
10003d3e:	d100      	bne.n	10003d42 <_vsnprintf+0x32>
10003d40:	e1a6      	b.n	10004090 <_vsnprintf+0x380>
10003d42:	4bcb      	ldr	r3, [pc, #812]	@ (10004070 <_vsnprintf+0x360>)
10003d44:	465e      	mov	r6, fp
10003d46:	9309      	str	r3, [sp, #36]	@ 0x24
10003d48:	4bca      	ldr	r3, [pc, #808]	@ (10004074 <_vsnprintf+0x364>)
10003d4a:	464c      	mov	r4, r9
10003d4c:	46d3      	mov	fp, sl
10003d4e:	4647      	mov	r7, r8
10003d50:	930d      	str	r3, [sp, #52]	@ 0x34
10003d52:	e00a      	b.n	10003d6a <_vsnprintf+0x5a>
10003d54:	1c63      	adds	r3, r4, #1
10003d56:	4698      	mov	r8, r3
10003d58:	0022      	movs	r2, r4
10003d5a:	003b      	movs	r3, r7
10003d5c:	4659      	mov	r1, fp
10003d5e:	47b0      	blx	r6
10003d60:	4644      	mov	r4, r8
10003d62:	7828      	ldrb	r0, [r5, #0]
10003d64:	2800      	cmp	r0, #0
10003d66:	d100      	bne.n	10003d6a <_vsnprintf+0x5a>
10003d68:	e0cd      	b.n	10003f06 <_vsnprintf+0x1f6>
10003d6a:	3501      	adds	r5, #1
10003d6c:	2825      	cmp	r0, #37	@ 0x25
10003d6e:	d1f1      	bne.n	10003d54 <_vsnprintf+0x44>
10003d70:	2308      	movs	r3, #8
10003d72:	469a      	mov	sl, r3
10003d74:	3b04      	subs	r3, #4
10003d76:	4699      	mov	r9, r3
10003d78:	3b02      	subs	r3, #2
10003d7a:	4698      	mov	r8, r3
10003d7c:	3b01      	subs	r3, #1
10003d7e:	2200      	movs	r2, #0
10003d80:	469c      	mov	ip, r3
10003d82:	940c      	str	r4, [sp, #48]	@ 0x30
10003d84:	7828      	ldrb	r0, [r5, #0]
10003d86:	1c69      	adds	r1, r5, #1
10003d88:	0003      	movs	r3, r0
10003d8a:	3b20      	subs	r3, #32
10003d8c:	b2db      	uxtb	r3, r3
10003d8e:	2b10      	cmp	r3, #16
10003d90:	d803      	bhi.n	10003d9a <_vsnprintf+0x8a>
10003d92:	9c09      	ldr	r4, [sp, #36]	@ 0x24
10003d94:	009b      	lsls	r3, r3, #2
10003d96:	58e3      	ldr	r3, [r4, r3]
10003d98:	469f      	mov	pc, r3
10003d9a:	0003      	movs	r3, r0
10003d9c:	3b30      	subs	r3, #48	@ 0x30
10003d9e:	9c0c      	ldr	r4, [sp, #48]	@ 0x30
10003da0:	920a      	str	r2, [sp, #40]	@ 0x28
10003da2:	2b09      	cmp	r3, #9
10003da4:	d97f      	bls.n	10003ea6 <_vsnprintf+0x196>
10003da6:	2300      	movs	r3, #0
10003da8:	4698      	mov	r8, r3
10003daa:	282a      	cmp	r0, #42	@ 0x2a
10003dac:	d100      	bne.n	10003db0 <_vsnprintf+0xa0>
10003dae:	e0c1      	b.n	10003f34 <_vsnprintf+0x224>
10003db0:	2300      	movs	r3, #0
10003db2:	469a      	mov	sl, r3
10003db4:	282e      	cmp	r0, #46	@ 0x2e
10003db6:	d100      	bne.n	10003dba <_vsnprintf+0xaa>
10003db8:	e090      	b.n	10003edc <_vsnprintf+0x1cc>
10003dba:	0003      	movs	r3, r0
10003dbc:	3b68      	subs	r3, #104	@ 0x68
10003dbe:	b2db      	uxtb	r3, r3
10003dc0:	2b12      	cmp	r3, #18
10003dc2:	d81e      	bhi.n	10003e02 <_vsnprintf+0xf2>
10003dc4:	4aac      	ldr	r2, [pc, #688]	@ (10004078 <_vsnprintf+0x368>)
10003dc6:	009b      	lsls	r3, r3, #2
10003dc8:	58d3      	ldr	r3, [r2, r3]
10003dca:	469f      	mov	pc, r3
10003dcc:	4663      	mov	r3, ip
10003dce:	000d      	movs	r5, r1
10003dd0:	431a      	orrs	r2, r3
10003dd2:	e7d7      	b.n	10003d84 <_vsnprintf+0x74>
10003dd4:	4643      	mov	r3, r8
10003dd6:	000d      	movs	r5, r1
10003dd8:	431a      	orrs	r2, r3
10003dda:	e7d3      	b.n	10003d84 <_vsnprintf+0x74>
10003ddc:	464b      	mov	r3, r9
10003dde:	000d      	movs	r5, r1
10003de0:	431a      	orrs	r2, r3
10003de2:	e7cf      	b.n	10003d84 <_vsnprintf+0x74>
10003de4:	2310      	movs	r3, #16
10003de6:	000d      	movs	r5, r1
10003de8:	431a      	orrs	r2, r3
10003dea:	e7cb      	b.n	10003d84 <_vsnprintf+0x74>
10003dec:	4653      	mov	r3, sl
10003dee:	000d      	movs	r5, r1
10003df0:	431a      	orrs	r2, r3
10003df2:	e7c7      	b.n	10003d84 <_vsnprintf+0x74>
10003df4:	2380      	movs	r3, #128	@ 0x80
10003df6:	005b      	lsls	r3, r3, #1
10003df8:	9a0a      	ldr	r2, [sp, #40]	@ 0x28
10003dfa:	7868      	ldrb	r0, [r5, #1]
10003dfc:	431a      	orrs	r2, r3
10003dfe:	920a      	str	r2, [sp, #40]	@ 0x28
10003e00:	3101      	adds	r1, #1
10003e02:	000d      	movs	r5, r1
10003e04:	2867      	cmp	r0, #103	@ 0x67
10003e06:	d80a      	bhi.n	10003e1e <_vsnprintf+0x10e>
10003e08:	2824      	cmp	r0, #36	@ 0x24
10003e0a:	d9a3      	bls.n	10003d54 <_vsnprintf+0x44>
10003e0c:	0003      	movs	r3, r0
10003e0e:	3b25      	subs	r3, #37	@ 0x25
10003e10:	b2db      	uxtb	r3, r3
10003e12:	2b42      	cmp	r3, #66	@ 0x42
10003e14:	d89e      	bhi.n	10003d54 <_vsnprintf+0x44>
10003e16:	9a0d      	ldr	r2, [sp, #52]	@ 0x34
10003e18:	009b      	lsls	r3, r3, #2
10003e1a:	58d3      	ldr	r3, [r2, r3]
10003e1c:	469f      	mov	pc, r3
10003e1e:	0001      	movs	r1, r0
10003e20:	3969      	subs	r1, #105	@ 0x69
10003e22:	b2c9      	uxtb	r1, r1
10003e24:	290f      	cmp	r1, #15
10003e26:	d895      	bhi.n	10003d54 <_vsnprintf+0x44>
10003e28:	2301      	movs	r3, #1
10003e2a:	408b      	lsls	r3, r1
10003e2c:	469c      	mov	ip, r3
10003e2e:	4b93      	ldr	r3, [pc, #588]	@ (1000407c <_vsnprintf+0x36c>)
10003e30:	4699      	mov	r9, r3
10003e32:	4663      	mov	r3, ip
10003e34:	464a      	mov	r2, r9
10003e36:	4013      	ands	r3, r2
10003e38:	930c      	str	r3, [sp, #48]	@ 0x30
10003e3a:	4662      	mov	r2, ip
10003e3c:	464b      	mov	r3, r9
10003e3e:	421a      	tst	r2, r3
10003e40:	d000      	beq.n	10003e44 <_vsnprintf+0x134>
10003e42:	e25e      	b.n	10004302 <_vsnprintf+0x5f2>
10003e44:	290a      	cmp	r1, #10
10003e46:	d100      	bne.n	10003e4a <_vsnprintf+0x13a>
10003e48:	e124      	b.n	10004094 <_vsnprintf+0x384>
10003e4a:	2907      	cmp	r1, #7
10003e4c:	d182      	bne.n	10003d54 <_vsnprintf+0x44>
10003e4e:	9b0b      	ldr	r3, [sp, #44]	@ 0x2c
10003e50:	cb02      	ldmia	r3!, {r1}
10003e52:	4698      	mov	r8, r3
10003e54:	2900      	cmp	r1, #0
10003e56:	d100      	bne.n	10003e5a <_vsnprintf+0x14a>
10003e58:	e19b      	b.n	10004192 <_vsnprintf+0x482>
10003e5a:	2021      	movs	r0, #33	@ 0x21
10003e5c:	9a0a      	ldr	r2, [sp, #40]	@ 0x28
10003e5e:	4302      	orrs	r2, r0
10003e60:	4691      	mov	r9, r2
10003e62:	ab10      	add	r3, sp, #64	@ 0x40
10003e64:	469c      	mov	ip, r3
10003e66:	221f      	movs	r2, #31
10003e68:	230f      	movs	r3, #15
10003e6a:	4640      	mov	r0, r8
10003e6c:	4462      	add	r2, ip
10003e6e:	950b      	str	r5, [sp, #44]	@ 0x2c
10003e70:	469c      	mov	ip, r3
10003e72:	46a0      	mov	r8, r4
10003e74:	0015      	movs	r5, r2
10003e76:	9b0c      	ldr	r3, [sp, #48]	@ 0x30
10003e78:	900a      	str	r0, [sp, #40]	@ 0x28
10003e7a:	e002      	b.n	10003e82 <_vsnprintf+0x172>
10003e7c:	2b20      	cmp	r3, #32
10003e7e:	d00c      	beq.n	10003e9a <_vsnprintf+0x18a>
10003e80:	0011      	movs	r1, r2
10003e82:	4664      	mov	r4, ip
10003e84:	400c      	ands	r4, r1
10003e86:	0020      	movs	r0, r4
10003e88:	3037      	adds	r0, #55	@ 0x37
10003e8a:	2c09      	cmp	r4, #9
10003e8c:	d800      	bhi.n	10003e90 <_vsnprintf+0x180>
10003e8e:	3807      	subs	r0, #7
10003e90:	3301      	adds	r3, #1
10003e92:	54e8      	strb	r0, [r5, r3]
10003e94:	090a      	lsrs	r2, r1, #4
10003e96:	290f      	cmp	r1, #15
10003e98:	d8f0      	bhi.n	10003e7c <_vsnprintf+0x16c>
10003e9a:	930c      	str	r3, [sp, #48]	@ 0x30
10003e9c:	9b0a      	ldr	r3, [sp, #40]	@ 0x28
10003e9e:	4644      	mov	r4, r8
10003ea0:	9d0b      	ldr	r5, [sp, #44]	@ 0x2c
10003ea2:	4698      	mov	r8, r3
10003ea4:	e185      	b.n	100041b2 <_vsnprintf+0x4a2>
10003ea6:	2300      	movs	r3, #0
10003ea8:	4698      	mov	r8, r3
10003eaa:	9b0a      	ldr	r3, [sp, #40]	@ 0x28
10003eac:	4645      	mov	r5, r8
10003eae:	469c      	mov	ip, r3
10003eb0:	e000      	b.n	10003eb4 <_vsnprintf+0x1a4>
10003eb2:	3101      	adds	r1, #1
10003eb4:	00ab      	lsls	r3, r5, #2
10003eb6:	195b      	adds	r3, r3, r5
10003eb8:	005b      	lsls	r3, r3, #1
10003eba:	181d      	adds	r5, r3, r0
10003ebc:	7808      	ldrb	r0, [r1, #0]
10003ebe:	3d30      	subs	r5, #48	@ 0x30
10003ec0:	0003      	movs	r3, r0
10003ec2:	3b30      	subs	r3, #48	@ 0x30
10003ec4:	2b09      	cmp	r3, #9
10003ec6:	d9f4      	bls.n	10003eb2 <_vsnprintf+0x1a2>
10003ec8:	4663      	mov	r3, ip
10003eca:	930a      	str	r3, [sp, #40]	@ 0x28
10003ecc:	2300      	movs	r3, #0
10003ece:	46a8      	mov	r8, r5
10003ed0:	469a      	mov	sl, r3
10003ed2:	000d      	movs	r5, r1
10003ed4:	3101      	adds	r1, #1
10003ed6:	282e      	cmp	r0, #46	@ 0x2e
10003ed8:	d000      	beq.n	10003edc <_vsnprintf+0x1cc>
10003eda:	e76e      	b.n	10003dba <_vsnprintf+0xaa>
10003edc:	2080      	movs	r0, #128	@ 0x80
10003ede:	9a0a      	ldr	r2, [sp, #40]	@ 0x28
10003ee0:	00c0      	lsls	r0, r0, #3
10003ee2:	4302      	orrs	r2, r0
10003ee4:	920a      	str	r2, [sp, #40]	@ 0x28
10003ee6:	2230      	movs	r2, #48	@ 0x30
10003ee8:	4252      	negs	r2, r2
10003eea:	4694      	mov	ip, r2
10003eec:	7868      	ldrb	r0, [r5, #1]
10003eee:	000b      	movs	r3, r1
10003ef0:	4484      	add	ip, r0
10003ef2:	4662      	mov	r2, ip
10003ef4:	2a09      	cmp	r2, #9
10003ef6:	d800      	bhi.n	10003efa <_vsnprintf+0x1ea>
10003ef8:	e12e      	b.n	10004158 <_vsnprintf+0x448>
10003efa:	282a      	cmp	r0, #42	@ 0x2a
10003efc:	d100      	bne.n	10003f00 <_vsnprintf+0x1f0>
10003efe:	e13d      	b.n	1000417c <_vsnprintf+0x46c>
10003f00:	000d      	movs	r5, r1
10003f02:	3101      	adds	r1, #1
10003f04:	e759      	b.n	10003dba <_vsnprintf+0xaa>
10003f06:	46da      	mov	sl, fp
10003f08:	46a1      	mov	r9, r4
10003f0a:	46b3      	mov	fp, r6
10003f0c:	46b8      	mov	r8, r7
10003f0e:	45c8      	cmp	r8, r9
10003f10:	d803      	bhi.n	10003f1a <_vsnprintf+0x20a>
10003f12:	2301      	movs	r3, #1
10003f14:	425b      	negs	r3, r3
10003f16:	4443      	add	r3, r8
10003f18:	4699      	mov	r9, r3
10003f1a:	4643      	mov	r3, r8
10003f1c:	464a      	mov	r2, r9
10003f1e:	4651      	mov	r1, sl
10003f20:	2000      	movs	r0, #0
10003f22:	47d8      	blx	fp
10003f24:	0020      	movs	r0, r4
10003f26:	b021      	add	sp, #132	@ 0x84
10003f28:	bcf0      	pop	{r4, r5, r6, r7}
10003f2a:	46bb      	mov	fp, r7
10003f2c:	46b2      	mov	sl, r6
10003f2e:	46a9      	mov	r9, r5
10003f30:	46a0      	mov	r8, r4
10003f32:	bdf0      	pop	{r4, r5, r6, r7, pc}
10003f34:	9b0b      	ldr	r3, [sp, #44]	@ 0x2c
10003f36:	cb04      	ldmia	r3!, {r2}
10003f38:	4690      	mov	r8, r2
10003f3a:	2a00      	cmp	r2, #0
10003f3c:	db04      	blt.n	10003f48 <_vsnprintf+0x238>
10003f3e:	7868      	ldrb	r0, [r5, #1]
10003f40:	930b      	str	r3, [sp, #44]	@ 0x2c
10003f42:	000d      	movs	r5, r1
10003f44:	3101      	adds	r1, #1
10003f46:	e733      	b.n	10003db0 <_vsnprintf+0xa0>
10003f48:	9a0a      	ldr	r2, [sp, #40]	@ 0x28
10003f4a:	3828      	subs	r0, #40	@ 0x28
10003f4c:	4302      	orrs	r2, r0
10003f4e:	920a      	str	r2, [sp, #40]	@ 0x28
10003f50:	4642      	mov	r2, r8
10003f52:	4252      	negs	r2, r2
10003f54:	7868      	ldrb	r0, [r5, #1]
10003f56:	4690      	mov	r8, r2
10003f58:	000d      	movs	r5, r1
10003f5a:	930b      	str	r3, [sp, #44]	@ 0x2c
10003f5c:	3101      	adds	r1, #1
10003f5e:	e727      	b.n	10003db0 <_vsnprintf+0xa0>
10003f60:	2867      	cmp	r0, #103	@ 0x67
10003f62:	d100      	bne.n	10003f66 <_vsnprintf+0x256>
10003f64:	e1c7      	b.n	100042f6 <_vsnprintf+0x5e6>
10003f66:	2847      	cmp	r0, #71	@ 0x47
10003f68:	d100      	bne.n	10003f6c <_vsnprintf+0x25c>
10003f6a:	e214      	b.n	10004396 <_vsnprintf+0x686>
10003f6c:	2845      	cmp	r0, #69	@ 0x45
10003f6e:	d100      	bne.n	10003f72 <_vsnprintf+0x262>
10003f70:	e216      	b.n	100043a0 <_vsnprintf+0x690>
10003f72:	9a0a      	ldr	r2, [sp, #40]	@ 0x28
10003f74:	2107      	movs	r1, #7
10003f76:	9204      	str	r2, [sp, #16]
10003f78:	4642      	mov	r2, r8
10003f7a:	9b0b      	ldr	r3, [sp, #44]	@ 0x2c
10003f7c:	9203      	str	r2, [sp, #12]
10003f7e:	3307      	adds	r3, #7
10003f80:	4652      	mov	r2, sl
10003f82:	438b      	bics	r3, r1
10003f84:	0019      	movs	r1, r3
10003f86:	9202      	str	r2, [sp, #8]
10003f88:	c90c      	ldmia	r1!, {r2, r3}
10003f8a:	0030      	movs	r0, r6
10003f8c:	9200      	str	r2, [sp, #0]
10003f8e:	9301      	str	r3, [sp, #4]
10003f90:	910b      	str	r1, [sp, #44]	@ 0x2c
10003f92:	0022      	movs	r2, r4
10003f94:	003b      	movs	r3, r7
10003f96:	4659      	mov	r1, fp
10003f98:	f7ff faa6 	bl	100034e8 <_etoa>
10003f9c:	0004      	movs	r4, r0
10003f9e:	e6e0      	b.n	10003d62 <_vsnprintf+0x52>
10003fa0:	2380      	movs	r3, #128	@ 0x80
10003fa2:	009b      	lsls	r3, r3, #2
10003fa4:	e728      	b.n	10003df8 <_vsnprintf+0xe8>
10003fa6:	7868      	ldrb	r0, [r5, #1]
10003fa8:	2868      	cmp	r0, #104	@ 0x68
10003faa:	d100      	bne.n	10003fae <_vsnprintf+0x29e>
10003fac:	e21b      	b.n	100043e6 <_vsnprintf+0x6d6>
10003fae:	2380      	movs	r3, #128	@ 0x80
10003fb0:	9a0a      	ldr	r2, [sp, #40]	@ 0x28
10003fb2:	3101      	adds	r1, #1
10003fb4:	431a      	orrs	r2, r3
10003fb6:	920a      	str	r2, [sp, #40]	@ 0x28
10003fb8:	e723      	b.n	10003e02 <_vsnprintf+0xf2>
10003fba:	7868      	ldrb	r0, [r5, #1]
10003fbc:	286c      	cmp	r0, #108	@ 0x6c
10003fbe:	d100      	bne.n	10003fc2 <_vsnprintf+0x2b2>
10003fc0:	e209      	b.n	100043d6 <_vsnprintf+0x6c6>
10003fc2:	2380      	movs	r3, #128	@ 0x80
10003fc4:	9a0a      	ldr	r2, [sp, #40]	@ 0x28
10003fc6:	005b      	lsls	r3, r3, #1
10003fc8:	431a      	orrs	r2, r3
10003fca:	920a      	str	r2, [sp, #40]	@ 0x28
10003fcc:	3101      	adds	r1, #1
10003fce:	e718      	b.n	10003e02 <_vsnprintf+0xf2>
10003fd0:	2846      	cmp	r0, #70	@ 0x46
10003fd2:	d100      	bne.n	10003fd6 <_vsnprintf+0x2c6>
10003fd4:	e18a      	b.n	100042ec <_vsnprintf+0x5dc>
10003fd6:	9a0a      	ldr	r2, [sp, #40]	@ 0x28
10003fd8:	2107      	movs	r1, #7
10003fda:	9204      	str	r2, [sp, #16]
10003fdc:	4642      	mov	r2, r8
10003fde:	9b0b      	ldr	r3, [sp, #44]	@ 0x2c
10003fe0:	9203      	str	r2, [sp, #12]
10003fe2:	3307      	adds	r3, #7
10003fe4:	4652      	mov	r2, sl
10003fe6:	438b      	bics	r3, r1
10003fe8:	0019      	movs	r1, r3
10003fea:	9202      	str	r2, [sp, #8]
10003fec:	c90c      	ldmia	r1!, {r2, r3}
10003fee:	0030      	movs	r0, r6
10003ff0:	9200      	str	r2, [sp, #0]
10003ff2:	9301      	str	r3, [sp, #4]
10003ff4:	910b      	str	r1, [sp, #44]	@ 0x2c
10003ff6:	0022      	movs	r2, r4
10003ff8:	003b      	movs	r3, r7
10003ffa:	4659      	mov	r1, fp
10003ffc:	f7ff fca6 	bl	1000394c <_ftoa>
10004000:	0004      	movs	r4, r0
10004002:	e6ae      	b.n	10003d62 <_vsnprintf+0x52>
10004004:	1c63      	adds	r3, r4, #1
10004006:	4698      	mov	r8, r3
10004008:	0022      	movs	r2, r4
1000400a:	003b      	movs	r3, r7
1000400c:	4659      	mov	r1, fp
1000400e:	2025      	movs	r0, #37	@ 0x25
10004010:	47b0      	blx	r6
10004012:	4644      	mov	r4, r8
10004014:	e6a5      	b.n	10003d62 <_vsnprintf+0x52>
10004016:	9b0b      	ldr	r3, [sp, #44]	@ 0x2c
10004018:	3304      	adds	r3, #4
1000401a:	930c      	str	r3, [sp, #48]	@ 0x30
1000401c:	1c63      	adds	r3, r4, #1
1000401e:	4699      	mov	r9, r3
10004020:	9b0a      	ldr	r3, [sp, #40]	@ 0x28
10004022:	079a      	lsls	r2, r3, #30
10004024:	d400      	bmi.n	10004028 <_vsnprintf+0x318>
10004026:	e1e7      	b.n	100043f8 <_vsnprintf+0x6e8>
10004028:	9b0b      	ldr	r3, [sp, #44]	@ 0x2c
1000402a:	0022      	movs	r2, r4
1000402c:	7818      	ldrb	r0, [r3, #0]
1000402e:	4659      	mov	r1, fp
10004030:	003b      	movs	r3, r7
10004032:	47b0      	blx	r6
10004034:	4643      	mov	r3, r8
10004036:	4444      	add	r4, r8
10004038:	2b01      	cmp	r3, #1
1000403a:	d800      	bhi.n	1000403e <_vsnprintf+0x32e>
1000403c:	e2b8      	b.n	100045b0 <_vsnprintf+0x8a0>
1000403e:	002b      	movs	r3, r5
10004040:	46b8      	mov	r8, r7
10004042:	0025      	movs	r5, r4
10004044:	465f      	mov	r7, fp
10004046:	464c      	mov	r4, r9
10004048:	4699      	mov	r9, r3
1000404a:	0022      	movs	r2, r4
1000404c:	4643      	mov	r3, r8
1000404e:	3401      	adds	r4, #1
10004050:	0039      	movs	r1, r7
10004052:	2020      	movs	r0, #32
10004054:	47b0      	blx	r6
10004056:	42ac      	cmp	r4, r5
10004058:	d1f7      	bne.n	1000404a <_vsnprintf+0x33a>
1000405a:	002c      	movs	r4, r5
1000405c:	46bb      	mov	fp, r7
1000405e:	464d      	mov	r5, r9
10004060:	4647      	mov	r7, r8
10004062:	9b0c      	ldr	r3, [sp, #48]	@ 0x30
10004064:	930b      	str	r3, [sp, #44]	@ 0x2c
10004066:	e67c      	b.n	10003d62 <_vsnprintf+0x52>
10004068:	10003d11 	.word	0x10003d11
1000406c:	20000e68 	.word	0x20000e68
10004070:	1000b000 	.word	0x1000b000
10004074:	1000b090 	.word	0x1000b090
10004078:	1000b044 	.word	0x1000b044
1000407c:	00009041 	.word	0x00009041
10004080:	4bdc      	ldr	r3, [pc, #880]	@ (100043f4 <_vsnprintf+0x6e4>)
10004082:	7828      	ldrb	r0, [r5, #0]
10004084:	469b      	mov	fp, r3
10004086:	2300      	movs	r3, #0
10004088:	4699      	mov	r9, r3
1000408a:	2800      	cmp	r0, #0
1000408c:	d000      	beq.n	10004090 <_vsnprintf+0x380>
1000408e:	e658      	b.n	10003d42 <_vsnprintf+0x32>
10004090:	2400      	movs	r4, #0
10004092:	e73c      	b.n	10003f0e <_vsnprintf+0x1fe>
10004094:	9b0b      	ldr	r3, [sp, #44]	@ 0x2c
10004096:	cb02      	ldmia	r3!, {r1}
10004098:	9312      	str	r3, [sp, #72]	@ 0x48
1000409a:	780b      	ldrb	r3, [r1, #0]
1000409c:	469c      	mov	ip, r3
1000409e:	0018      	movs	r0, r3
100040a0:	4653      	mov	r3, sl
100040a2:	2b00      	cmp	r3, #0
100040a4:	d000      	beq.n	100040a8 <_vsnprintf+0x398>
100040a6:	e09c      	b.n	100041e2 <_vsnprintf+0x4d2>
100040a8:	2800      	cmp	r0, #0
100040aa:	d012      	beq.n	100040d2 <_vsnprintf+0x3c2>
100040ac:	2302      	movs	r3, #2
100040ae:	425b      	negs	r3, r3
100040b0:	3301      	adds	r3, #1
100040b2:	4699      	mov	r9, r3
100040b4:	4489      	add	r9, r1
100040b6:	464a      	mov	r2, r9
100040b8:	000b      	movs	r3, r1
100040ba:	4689      	mov	r9, r1
100040bc:	0011      	movs	r1, r2
100040be:	e001      	b.n	100040c4 <_vsnprintf+0x3b4>
100040c0:	428b      	cmp	r3, r1
100040c2:	d003      	beq.n	100040cc <_vsnprintf+0x3bc>
100040c4:	785a      	ldrb	r2, [r3, #1]
100040c6:	3301      	adds	r3, #1
100040c8:	2a00      	cmp	r2, #0
100040ca:	d1f9      	bne.n	100040c0 <_vsnprintf+0x3b0>
100040cc:	4649      	mov	r1, r9
100040ce:	1a5b      	subs	r3, r3, r1
100040d0:	930c      	str	r3, [sp, #48]	@ 0x30
100040d2:	2380      	movs	r3, #128	@ 0x80
100040d4:	00db      	lsls	r3, r3, #3
100040d6:	4699      	mov	r9, r3
100040d8:	9a0a      	ldr	r2, [sp, #40]	@ 0x28
100040da:	4013      	ands	r3, r2
100040dc:	930b      	str	r3, [sp, #44]	@ 0x2c
100040de:	464b      	mov	r3, r9
100040e0:	421a      	tst	r2, r3
100040e2:	d004      	beq.n	100040ee <_vsnprintf+0x3de>
100040e4:	9b0c      	ldr	r3, [sp, #48]	@ 0x30
100040e6:	4553      	cmp	r3, sl
100040e8:	d901      	bls.n	100040ee <_vsnprintf+0x3de>
100040ea:	4653      	mov	r3, sl
100040ec:	930c      	str	r3, [sp, #48]	@ 0x30
100040ee:	2302      	movs	r3, #2
100040f0:	4699      	mov	r9, r3
100040f2:	9a0a      	ldr	r2, [sp, #40]	@ 0x28
100040f4:	4013      	ands	r3, r2
100040f6:	930a      	str	r3, [sp, #40]	@ 0x28
100040f8:	464b      	mov	r3, r9
100040fa:	4213      	tst	r3, r2
100040fc:	d100      	bne.n	10004100 <_vsnprintf+0x3f0>
100040fe:	e1b5      	b.n	1000446c <_vsnprintf+0x75c>
10004100:	4663      	mov	r3, ip
10004102:	2b00      	cmp	r3, #0
10004104:	d100      	bne.n	10004108 <_vsnprintf+0x3f8>
10004106:	e197      	b.n	10004438 <_vsnprintf+0x728>
10004108:	9b0b      	ldr	r3, [sp, #44]	@ 0x2c
1000410a:	2b00      	cmp	r3, #0
1000410c:	d100      	bne.n	10004110 <_vsnprintf+0x400>
1000410e:	e14c      	b.n	100043aa <_vsnprintf+0x69a>
10004110:	46d1      	mov	r9, sl
10004112:	1b0b      	subs	r3, r1, r4
10004114:	469a      	mov	sl, r3
10004116:	002b      	movs	r3, r5
10004118:	44a1      	add	r9, r4
1000411a:	464d      	mov	r5, r9
1000411c:	0022      	movs	r2, r4
1000411e:	46b9      	mov	r9, r7
10004120:	465f      	mov	r7, fp
10004122:	469b      	mov	fp, r3
10004124:	e009      	b.n	1000413a <_vsnprintf+0x42a>
10004126:	464b      	mov	r3, r9
10004128:	0039      	movs	r1, r7
1000412a:	1c54      	adds	r4, r2, #1
1000412c:	47b0      	blx	r6
1000412e:	4653      	mov	r3, sl
10004130:	5d18      	ldrb	r0, [r3, r4]
10004132:	2800      	cmp	r0, #0
10004134:	d100      	bne.n	10004138 <_vsnprintf+0x428>
10004136:	e158      	b.n	100043ea <_vsnprintf+0x6da>
10004138:	0022      	movs	r2, r4
1000413a:	4295      	cmp	r5, r2
1000413c:	d1f3      	bne.n	10004126 <_vsnprintf+0x416>
1000413e:	465b      	mov	r3, fp
10004140:	46bb      	mov	fp, r7
10004142:	464f      	mov	r7, r9
10004144:	46a9      	mov	r9, r5
10004146:	001d      	movs	r5, r3
10004148:	464c      	mov	r4, r9
1000414a:	9b0a      	ldr	r3, [sp, #40]	@ 0x28
1000414c:	2b00      	cmp	r3, #0
1000414e:	d000      	beq.n	10004152 <_vsnprintf+0x442>
10004150:	e172      	b.n	10004438 <_vsnprintf+0x728>
10004152:	9b12      	ldr	r3, [sp, #72]	@ 0x48
10004154:	930b      	str	r3, [sp, #44]	@ 0x2c
10004156:	e604      	b.n	10003d62 <_vsnprintf+0x52>
10004158:	4655      	mov	r5, sl
1000415a:	9a0a      	ldr	r2, [sp, #40]	@ 0x28
1000415c:	00a9      	lsls	r1, r5, #2
1000415e:	1949      	adds	r1, r1, r5
10004160:	0049      	lsls	r1, r1, #1
10004162:	3301      	adds	r3, #1
10004164:	180d      	adds	r5, r1, r0
10004166:	7818      	ldrb	r0, [r3, #0]
10004168:	3d30      	subs	r5, #48	@ 0x30
1000416a:	0001      	movs	r1, r0
1000416c:	3930      	subs	r1, #48	@ 0x30
1000416e:	2909      	cmp	r1, #9
10004170:	d9f4      	bls.n	1000415c <_vsnprintf+0x44c>
10004172:	46aa      	mov	sl, r5
10004174:	920a      	str	r2, [sp, #40]	@ 0x28
10004176:	001d      	movs	r5, r3
10004178:	1c59      	adds	r1, r3, #1
1000417a:	e61e      	b.n	10003dba <_vsnprintf+0xaa>
1000417c:	9b0b      	ldr	r3, [sp, #44]	@ 0x2c
1000417e:	78a8      	ldrb	r0, [r5, #2]
10004180:	cb04      	ldmia	r3!, {r2}
10004182:	3502      	adds	r5, #2
10004184:	43d1      	mvns	r1, r2
10004186:	17c9      	asrs	r1, r1, #31
10004188:	400a      	ands	r2, r1
1000418a:	4692      	mov	sl, r2
1000418c:	930b      	str	r3, [sp, #44]	@ 0x2c
1000418e:	1c69      	adds	r1, r5, #1
10004190:	e613      	b.n	10003dba <_vsnprintf+0xaa>
10004192:	9b0a      	ldr	r3, [sp, #40]	@ 0x28
10004194:	2110      	movs	r1, #16
10004196:	001a      	movs	r2, r3
10004198:	438a      	bics	r2, r1
1000419a:	0010      	movs	r0, r2
1000419c:	3111      	adds	r1, #17
1000419e:	4308      	orrs	r0, r1
100041a0:	4681      	mov	r9, r0
100041a2:	2080      	movs	r0, #128	@ 0x80
100041a4:	001a      	movs	r2, r3
100041a6:	00c0      	lsls	r0, r0, #3
100041a8:	4002      	ands	r2, r0
100041aa:	0011      	movs	r1, r2
100041ac:	4203      	tst	r3, r0
100041ae:	d100      	bne.n	100041b2 <_vsnprintf+0x4a2>
100041b0:	e657      	b.n	10003e62 <_vsnprintf+0x152>
100041b2:	464b      	mov	r3, r9
100041b4:	2208      	movs	r2, #8
100041b6:	9306      	str	r3, [sp, #24]
100041b8:	4653      	mov	r3, sl
100041ba:	9205      	str	r2, [sp, #20]
100041bc:	3208      	adds	r2, #8
100041be:	9203      	str	r2, [sp, #12]
100041c0:	2200      	movs	r2, #0
100041c2:	9304      	str	r3, [sp, #16]
100041c4:	9b0c      	ldr	r3, [sp, #48]	@ 0x30
100041c6:	9202      	str	r2, [sp, #8]
100041c8:	9301      	str	r3, [sp, #4]
100041ca:	ab18      	add	r3, sp, #96	@ 0x60
100041cc:	0022      	movs	r2, r4
100041ce:	9300      	str	r3, [sp, #0]
100041d0:	4659      	mov	r1, fp
100041d2:	003b      	movs	r3, r7
100041d4:	0030      	movs	r0, r6
100041d6:	f7ff f873 	bl	100032c0 <_ntoa_format>
100041da:	4643      	mov	r3, r8
100041dc:	0004      	movs	r4, r0
100041de:	930b      	str	r3, [sp, #44]	@ 0x2c
100041e0:	e5bf      	b.n	10003d62 <_vsnprintf+0x52>
100041e2:	2800      	cmp	r0, #0
100041e4:	d100      	bne.n	100041e8 <_vsnprintf+0x4d8>
100041e6:	e774      	b.n	100040d2 <_vsnprintf+0x3c2>
100041e8:	4653      	mov	r3, sl
100041ea:	3b01      	subs	r3, #1
100041ec:	e760      	b.n	100040b0 <_vsnprintf+0x3a0>
100041ee:	2862      	cmp	r0, #98	@ 0x62
100041f0:	d100      	bne.n	100041f4 <_vsnprintf+0x4e4>
100041f2:	e1df      	b.n	100045b4 <_vsnprintf+0x8a4>
100041f4:	2858      	cmp	r0, #88	@ 0x58
100041f6:	d100      	bne.n	100041fa <_vsnprintf+0x4ea>
100041f8:	e1ec      	b.n	100045d4 <_vsnprintf+0x8c4>
100041fa:	990a      	ldr	r1, [sp, #40]	@ 0x28
100041fc:	2380      	movs	r3, #128	@ 0x80
100041fe:	000a      	movs	r2, r1
10004200:	00db      	lsls	r3, r3, #3
10004202:	401a      	ands	r2, r3
10004204:	0010      	movs	r0, r2
10004206:	000a      	movs	r2, r1
10004208:	4219      	tst	r1, r3
1000420a:	d100      	bne.n	1000420e <_vsnprintf+0x4fe>
1000420c:	e1bd      	b.n	1000458a <_vsnprintf+0x87a>
1000420e:	2311      	movs	r3, #17
10004210:	439a      	bics	r2, r3
10004212:	920c      	str	r2, [sp, #48]	@ 0x30
10004214:	9a0c      	ldr	r2, [sp, #48]	@ 0x30
10004216:	2380      	movs	r3, #128	@ 0x80
10004218:	0011      	movs	r1, r2
1000421a:	009b      	lsls	r3, r3, #2
1000421c:	4019      	ands	r1, r3
1000421e:	468c      	mov	ip, r1
10004220:	421a      	tst	r2, r3
10004222:	d000      	beq.n	10004226 <_vsnprintf+0x516>
10004224:	e146      	b.n	100044b4 <_vsnprintf+0x7a4>
10004226:	2380      	movs	r3, #128	@ 0x80
10004228:	0011      	movs	r1, r2
1000422a:	005b      	lsls	r3, r3, #1
1000422c:	4019      	ands	r1, r3
1000422e:	4689      	mov	r9, r1
10004230:	990b      	ldr	r1, [sp, #44]	@ 0x2c
10004232:	3104      	adds	r1, #4
10004234:	910a      	str	r1, [sp, #40]	@ 0x28
10004236:	421a      	tst	r2, r3
10004238:	d000      	beq.n	1000423c <_vsnprintf+0x52c>
1000423a:	e28f      	b.n	1000475c <_vsnprintf+0xa4c>
1000423c:	0013      	movs	r3, r2
1000423e:	065b      	lsls	r3, r3, #25
10004240:	d500      	bpl.n	10004244 <_vsnprintf+0x534>
10004242:	e19e      	b.n	10004582 <_vsnprintf+0x872>
10004244:	0013      	movs	r3, r2
10004246:	061b      	lsls	r3, r3, #24
10004248:	d400      	bmi.n	1000424c <_vsnprintf+0x53c>
1000424a:	e326      	b.n	1000489a <_vsnprintf+0xb8a>
1000424c:	9b0b      	ldr	r3, [sp, #44]	@ 0x2c
1000424e:	2200      	movs	r2, #0
10004250:	5e9b      	ldrsh	r3, [r3, r2]
10004252:	17d9      	asrs	r1, r3, #31
10004254:	185a      	adds	r2, r3, r1
10004256:	404a      	eors	r2, r1
10004258:	b292      	uxth	r2, r2
1000425a:	0fd9      	lsrs	r1, r3, #31
1000425c:	910b      	str	r1, [sp, #44]	@ 0x2c
1000425e:	2b00      	cmp	r3, #0
10004260:	d100      	bne.n	10004264 <_vsnprintf+0x554>
10004262:	e277      	b.n	10004754 <_vsnprintf+0xa44>
10004264:	0010      	movs	r0, r2
10004266:	aa10      	add	r2, sp, #64	@ 0x40
10004268:	4694      	mov	ip, r2
1000426a:	4642      	mov	r2, r8
1000426c:	231f      	movs	r3, #31
1000426e:	9212      	str	r2, [sp, #72]	@ 0x48
10004270:	4652      	mov	r2, sl
10004272:	4463      	add	r3, ip
10004274:	46aa      	mov	sl, r5
10004276:	9414      	str	r4, [sp, #80]	@ 0x50
10004278:	464d      	mov	r5, r9
1000427a:	0004      	movs	r4, r0
1000427c:	46b9      	mov	r9, r7
1000427e:	46b0      	mov	r8, r6
10004280:	001f      	movs	r7, r3
10004282:	9213      	str	r2, [sp, #76]	@ 0x4c
10004284:	e001      	b.n	1000428a <_vsnprintf+0x57a>
10004286:	2d20      	cmp	r5, #32
10004288:	d00f      	beq.n	100042aa <_vsnprintf+0x59a>
1000428a:	0020      	movs	r0, r4
1000428c:	210a      	movs	r1, #10
1000428e:	f7fd ffd5 	bl	1000223c <__wrap___aeabi_uidiv>
10004292:	3501      	adds	r5, #1
10004294:	197e      	adds	r6, r7, r5
10004296:	3130      	adds	r1, #48	@ 0x30
10004298:	7031      	strb	r1, [r6, #0]
1000429a:	0020      	movs	r0, r4
1000429c:	210a      	movs	r1, #10
1000429e:	f7fd ffcd 	bl	1000223c <__wrap___aeabi_uidiv>
100042a2:	0026      	movs	r6, r4
100042a4:	0004      	movs	r4, r0
100042a6:	2e09      	cmp	r6, #9
100042a8:	d8ed      	bhi.n	10004286 <_vsnprintf+0x576>
100042aa:	9b12      	ldr	r3, [sp, #72]	@ 0x48
100042ac:	4646      	mov	r6, r8
100042ae:	4698      	mov	r8, r3
100042b0:	9b13      	ldr	r3, [sp, #76]	@ 0x4c
100042b2:	464f      	mov	r7, r9
100042b4:	46a9      	mov	r9, r5
100042b6:	4655      	mov	r5, sl
100042b8:	469a      	mov	sl, r3
100042ba:	9c14      	ldr	r4, [sp, #80]	@ 0x50
100042bc:	9b0c      	ldr	r3, [sp, #48]	@ 0x30
100042be:	9306      	str	r3, [sp, #24]
100042c0:	4643      	mov	r3, r8
100042c2:	9305      	str	r3, [sp, #20]
100042c4:	4653      	mov	r3, sl
100042c6:	9304      	str	r3, [sp, #16]
100042c8:	230a      	movs	r3, #10
100042ca:	9303      	str	r3, [sp, #12]
100042cc:	9b0b      	ldr	r3, [sp, #44]	@ 0x2c
100042ce:	9302      	str	r3, [sp, #8]
100042d0:	464b      	mov	r3, r9
100042d2:	9301      	str	r3, [sp, #4]
100042d4:	ab18      	add	r3, sp, #96	@ 0x60
100042d6:	0022      	movs	r2, r4
100042d8:	9300      	str	r3, [sp, #0]
100042da:	4659      	mov	r1, fp
100042dc:	003b      	movs	r3, r7
100042de:	0030      	movs	r0, r6
100042e0:	f7fe ffee 	bl	100032c0 <_ntoa_format>
100042e4:	9b0a      	ldr	r3, [sp, #40]	@ 0x28
100042e6:	0004      	movs	r4, r0
100042e8:	930b      	str	r3, [sp, #44]	@ 0x2c
100042ea:	e53a      	b.n	10003d62 <_vsnprintf+0x52>
100042ec:	2320      	movs	r3, #32
100042ee:	9a0a      	ldr	r2, [sp, #40]	@ 0x28
100042f0:	431a      	orrs	r2, r3
100042f2:	920a      	str	r2, [sp, #40]	@ 0x28
100042f4:	e66f      	b.n	10003fd6 <_vsnprintf+0x2c6>
100042f6:	2380      	movs	r3, #128	@ 0x80
100042f8:	9a0a      	ldr	r2, [sp, #40]	@ 0x28
100042fa:	011b      	lsls	r3, r3, #4
100042fc:	431a      	orrs	r2, r3
100042fe:	920a      	str	r2, [sp, #40]	@ 0x28
10004300:	e637      	b.n	10003f72 <_vsnprintf+0x262>
10004302:	2878      	cmp	r0, #120	@ 0x78
10004304:	d000      	beq.n	10004308 <_vsnprintf+0x5f8>
10004306:	e1af      	b.n	10004668 <_vsnprintf+0x958>
10004308:	980a      	ldr	r0, [sp, #40]	@ 0x28
1000430a:	2380      	movs	r3, #128	@ 0x80
1000430c:	0002      	movs	r2, r0
1000430e:	00db      	lsls	r3, r3, #3
10004310:	401a      	ands	r2, r3
10004312:	0011      	movs	r1, r2
10004314:	0002      	movs	r2, r0
10004316:	4218      	tst	r0, r3
10004318:	d100      	bne.n	1000431c <_vsnprintf+0x60c>
1000431a:	e2d0      	b.n	100048be <_vsnprintf+0xbae>
1000431c:	230d      	movs	r3, #13
1000431e:	439a      	bics	r2, r3
10004320:	0010      	movs	r0, r2
10004322:	3303      	adds	r3, #3
10004324:	930a      	str	r3, [sp, #40]	@ 0x28
10004326:	2380      	movs	r3, #128	@ 0x80
10004328:	0002      	movs	r2, r0
1000432a:	009b      	lsls	r3, r3, #2
1000432c:	401a      	ands	r2, r3
1000432e:	4694      	mov	ip, r2
10004330:	4218      	tst	r0, r3
10004332:	d000      	beq.n	10004336 <_vsnprintf+0x626>
10004334:	e1ac      	b.n	10004690 <_vsnprintf+0x980>
10004336:	2380      	movs	r3, #128	@ 0x80
10004338:	0002      	movs	r2, r0
1000433a:	005b      	lsls	r3, r3, #1
1000433c:	401a      	ands	r2, r3
1000433e:	4691      	mov	r9, r2
10004340:	9a0b      	ldr	r2, [sp, #44]	@ 0x2c
10004342:	3204      	adds	r2, #4
10004344:	920c      	str	r2, [sp, #48]	@ 0x30
10004346:	4218      	tst	r0, r3
10004348:	d000      	beq.n	1000434c <_vsnprintf+0x63c>
1000434a:	e24a      	b.n	100047e2 <_vsnprintf+0xad2>
1000434c:	0643      	lsls	r3, r0, #25
1000434e:	d400      	bmi.n	10004352 <_vsnprintf+0x642>
10004350:	e293      	b.n	1000487a <_vsnprintf+0xb6a>
10004352:	9b0b      	ldr	r3, [sp, #44]	@ 0x2c
10004354:	781b      	ldrb	r3, [r3, #0]
10004356:	9308      	str	r3, [sp, #32]
10004358:	2b00      	cmp	r3, #0
1000435a:	d000      	beq.n	1000435e <_vsnprintf+0x64e>
1000435c:	e14b      	b.n	100045f6 <_vsnprintf+0x8e6>
1000435e:	3310      	adds	r3, #16
10004360:	4398      	bics	r0, r3
10004362:	2900      	cmp	r1, #0
10004364:	d100      	bne.n	10004368 <_vsnprintf+0x658>
10004366:	e146      	b.n	100045f6 <_vsnprintf+0x8e6>
10004368:	2300      	movs	r3, #0
1000436a:	4699      	mov	r9, r3
1000436c:	4643      	mov	r3, r8
1000436e:	9305      	str	r3, [sp, #20]
10004370:	4653      	mov	r3, sl
10004372:	9304      	str	r3, [sp, #16]
10004374:	9b0a      	ldr	r3, [sp, #40]	@ 0x28
10004376:	9006      	str	r0, [sp, #24]
10004378:	9303      	str	r3, [sp, #12]
1000437a:	2300      	movs	r3, #0
1000437c:	9302      	str	r3, [sp, #8]
1000437e:	464b      	mov	r3, r9
10004380:	9301      	str	r3, [sp, #4]
10004382:	ab18      	add	r3, sp, #96	@ 0x60
10004384:	0022      	movs	r2, r4
10004386:	9300      	str	r3, [sp, #0]
10004388:	4659      	mov	r1, fp
1000438a:	003b      	movs	r3, r7
1000438c:	0030      	movs	r0, r6
1000438e:	f7fe ff97 	bl	100032c0 <_ntoa_format>
10004392:	0004      	movs	r4, r0
10004394:	e665      	b.n	10004062 <_vsnprintf+0x352>
10004396:	2380      	movs	r3, #128	@ 0x80
10004398:	9a0a      	ldr	r2, [sp, #40]	@ 0x28
1000439a:	011b      	lsls	r3, r3, #4
1000439c:	431a      	orrs	r2, r3
1000439e:	920a      	str	r2, [sp, #40]	@ 0x28
100043a0:	2320      	movs	r3, #32
100043a2:	9a0a      	ldr	r2, [sp, #40]	@ 0x28
100043a4:	431a      	orrs	r2, r3
100043a6:	920a      	str	r2, [sp, #40]	@ 0x28
100043a8:	e5e3      	b.n	10003f72 <_vsnprintf+0x262>
100043aa:	1b0b      	subs	r3, r1, r4
100043ac:	469a      	mov	sl, r3
100043ae:	9b0c      	ldr	r3, [sp, #48]	@ 0x30
100043b0:	4699      	mov	r9, r3
100043b2:	002b      	movs	r3, r5
100043b4:	465d      	mov	r5, fp
100043b6:	469b      	mov	fp, r3
100043b8:	0022      	movs	r2, r4
100043ba:	003b      	movs	r3, r7
100043bc:	0029      	movs	r1, r5
100043be:	47b0      	blx	r6
100043c0:	4653      	mov	r3, sl
100043c2:	3401      	adds	r4, #1
100043c4:	5d18      	ldrb	r0, [r3, r4]
100043c6:	2800      	cmp	r0, #0
100043c8:	d1f6      	bne.n	100043b8 <_vsnprintf+0x6a8>
100043ca:	464b      	mov	r3, r9
100043cc:	930c      	str	r3, [sp, #48]	@ 0x30
100043ce:	465b      	mov	r3, fp
100043d0:	46ab      	mov	fp, r5
100043d2:	001d      	movs	r5, r3
100043d4:	e6b9      	b.n	1000414a <_vsnprintf+0x43a>
100043d6:	23c0      	movs	r3, #192	@ 0xc0
100043d8:	009b      	lsls	r3, r3, #2
100043da:	9a0a      	ldr	r2, [sp, #40]	@ 0x28
100043dc:	78a8      	ldrb	r0, [r5, #2]
100043de:	431a      	orrs	r2, r3
100043e0:	920a      	str	r2, [sp, #40]	@ 0x28
100043e2:	1ce9      	adds	r1, r5, #3
100043e4:	e50d      	b.n	10003e02 <_vsnprintf+0xf2>
100043e6:	23c0      	movs	r3, #192	@ 0xc0
100043e8:	e7f7      	b.n	100043da <_vsnprintf+0x6ca>
100043ea:	465d      	mov	r5, fp
100043ec:	46bb      	mov	fp, r7
100043ee:	464f      	mov	r7, r9
100043f0:	e6ab      	b.n	1000414a <_vsnprintf+0x43a>
100043f2:	46c0      	nop			@ (mov r8, r8)
100043f4:	1000322d 	.word	0x1000322d
100043f8:	4643      	mov	r3, r8
100043fa:	2b01      	cmp	r3, #1
100043fc:	d800      	bhi.n	10004400 <_vsnprintf+0x6f0>
100043fe:	e0d1      	b.n	100045a4 <_vsnprintf+0x894>
10004400:	1e63      	subs	r3, r4, #1
10004402:	4443      	add	r3, r8
10004404:	46b9      	mov	r9, r7
10004406:	001d      	movs	r5, r3
10004408:	465f      	mov	r7, fp
1000440a:	46a2      	mov	sl, r4
1000440c:	468b      	mov	fp, r1
1000440e:	0022      	movs	r2, r4
10004410:	464b      	mov	r3, r9
10004412:	3401      	adds	r4, #1
10004414:	0039      	movs	r1, r7
10004416:	2020      	movs	r0, #32
10004418:	47b0      	blx	r6
1000441a:	42ac      	cmp	r4, r5
1000441c:	d1f7      	bne.n	1000440e <_vsnprintf+0x6fe>
1000441e:	465d      	mov	r5, fp
10004420:	46bb      	mov	fp, r7
10004422:	464f      	mov	r7, r9
10004424:	46a1      	mov	r9, r4
10004426:	4654      	mov	r4, sl
10004428:	9b0b      	ldr	r3, [sp, #44]	@ 0x2c
1000442a:	464a      	mov	r2, r9
1000442c:	7818      	ldrb	r0, [r3, #0]
1000442e:	4659      	mov	r1, fp
10004430:	003b      	movs	r3, r7
10004432:	4444      	add	r4, r8
10004434:	47b0      	blx	r6
10004436:	e614      	b.n	10004062 <_vsnprintf+0x352>
10004438:	9b0c      	ldr	r3, [sp, #48]	@ 0x30
1000443a:	46a1      	mov	r9, r4
1000443c:	4598      	cmp	r8, r3
1000443e:	d800      	bhi.n	10004442 <_vsnprintf+0x732>
10004440:	e687      	b.n	10004152 <_vsnprintf+0x442>
10004442:	4444      	add	r4, r8
10004444:	1ae4      	subs	r4, r4, r3
10004446:	002b      	movs	r3, r5
10004448:	46b8      	mov	r8, r7
1000444a:	0025      	movs	r5, r4
1000444c:	465f      	mov	r7, fp
1000444e:	464c      	mov	r4, r9
10004450:	4699      	mov	r9, r3
10004452:	0022      	movs	r2, r4
10004454:	4643      	mov	r3, r8
10004456:	3401      	adds	r4, #1
10004458:	0039      	movs	r1, r7
1000445a:	2020      	movs	r0, #32
1000445c:	47b0      	blx	r6
1000445e:	42ac      	cmp	r4, r5
10004460:	d1f7      	bne.n	10004452 <_vsnprintf+0x742>
10004462:	002c      	movs	r4, r5
10004464:	46bb      	mov	fp, r7
10004466:	464d      	mov	r5, r9
10004468:	4647      	mov	r7, r8
1000446a:	e672      	b.n	10004152 <_vsnprintf+0x442>
1000446c:	980c      	ldr	r0, [sp, #48]	@ 0x30
1000446e:	4580      	cmp	r8, r0
10004470:	d800      	bhi.n	10004474 <_vsnprintf+0x764>
10004472:	e21c      	b.n	100048ae <_vsnprintf+0xb9e>
10004474:	4643      	mov	r3, r8
10004476:	191a      	adds	r2, r3, r4
10004478:	1a13      	subs	r3, r2, r0
1000447a:	4699      	mov	r9, r3
1000447c:	002b      	movs	r3, r5
1000447e:	464d      	mov	r5, r9
10004480:	46b9      	mov	r9, r7
10004482:	465f      	mov	r7, fp
10004484:	469b      	mov	fp, r3
10004486:	910c      	str	r1, [sp, #48]	@ 0x30
10004488:	0022      	movs	r2, r4
1000448a:	464b      	mov	r3, r9
1000448c:	3401      	adds	r4, #1
1000448e:	0039      	movs	r1, r7
10004490:	2020      	movs	r0, #32
10004492:	47b0      	blx	r6
10004494:	42ac      	cmp	r4, r5
10004496:	d1f7      	bne.n	10004488 <_vsnprintf+0x778>
10004498:	4643      	mov	r3, r8
1000449a:	990c      	ldr	r1, [sp, #48]	@ 0x30
1000449c:	3301      	adds	r3, #1
1000449e:	930c      	str	r3, [sp, #48]	@ 0x30
100044a0:	780b      	ldrb	r3, [r1, #0]
100044a2:	465d      	mov	r5, fp
100044a4:	469c      	mov	ip, r3
100044a6:	46bb      	mov	fp, r7
100044a8:	464f      	mov	r7, r9
100044aa:	4660      	mov	r0, ip
100044ac:	2800      	cmp	r0, #0
100044ae:	d000      	beq.n	100044b2 <_vsnprintf+0x7a2>
100044b0:	e62a      	b.n	10004108 <_vsnprintf+0x3f8>
100044b2:	e64e      	b.n	10004152 <_vsnprintf+0x442>
100044b4:	2207      	movs	r2, #7
100044b6:	9b0b      	ldr	r3, [sp, #44]	@ 0x2c
100044b8:	3307      	adds	r3, #7
100044ba:	4393      	bics	r3, r2
100044bc:	3201      	adds	r2, #1
100044be:	4694      	mov	ip, r2
100044c0:	449c      	add	ip, r3
100044c2:	4662      	mov	r2, ip
100044c4:	920b      	str	r2, [sp, #44]	@ 0x2c
100044c6:	cb0c      	ldmia	r3, {r2, r3}
100044c8:	0fd9      	lsrs	r1, r3, #31
100044ca:	910a      	str	r1, [sp, #40]	@ 0x28
100044cc:	0011      	movs	r1, r2
100044ce:	4319      	orrs	r1, r3
100044d0:	d05f      	beq.n	10004592 <_vsnprintf+0x882>
100044d2:	17d9      	asrs	r1, r3, #31
100044d4:	9111      	str	r1, [sp, #68]	@ 0x44
100044d6:	9110      	str	r1, [sp, #64]	@ 0x40
100044d8:	4051      	eors	r1, r2
100044da:	910e      	str	r1, [sp, #56]	@ 0x38
100044dc:	9911      	ldr	r1, [sp, #68]	@ 0x44
100044de:	4059      	eors	r1, r3
100044e0:	910f      	str	r1, [sp, #60]	@ 0x3c
100044e2:	980e      	ldr	r0, [sp, #56]	@ 0x38
100044e4:	990f      	ldr	r1, [sp, #60]	@ 0x3c
100044e6:	9a10      	ldr	r2, [sp, #64]	@ 0x40
100044e8:	9b11      	ldr	r3, [sp, #68]	@ 0x44
100044ea:	1a80      	subs	r0, r0, r2
100044ec:	4199      	sbcs	r1, r3
100044ee:	900e      	str	r0, [sp, #56]	@ 0x38
100044f0:	910f      	str	r1, [sp, #60]	@ 0x3c
100044f2:	aa10      	add	r2, sp, #64	@ 0x40
100044f4:	2300      	movs	r3, #0
100044f6:	4694      	mov	ip, r2
100044f8:	4642      	mov	r2, r8
100044fa:	4699      	mov	r9, r3
100044fc:	9212      	str	r2, [sp, #72]	@ 0x48
100044fe:	4652      	mov	r2, sl
10004500:	331f      	adds	r3, #31
10004502:	4463      	add	r3, ip
10004504:	46b0      	mov	r8, r6
10004506:	46aa      	mov	sl, r5
10004508:	464e      	mov	r6, r9
1000450a:	9414      	str	r4, [sp, #80]	@ 0x50
1000450c:	46b9      	mov	r9, r7
1000450e:	9c0e      	ldr	r4, [sp, #56]	@ 0x38
10004510:	9d0f      	ldr	r5, [sp, #60]	@ 0x3c
10004512:	001f      	movs	r7, r3
10004514:	9213      	str	r2, [sp, #76]	@ 0x4c
10004516:	e001      	b.n	1000451c <_vsnprintf+0x80c>
10004518:	2e20      	cmp	r6, #32
1000451a:	d010      	beq.n	1000453e <_vsnprintf+0x82e>
1000451c:	0020      	movs	r0, r4
1000451e:	0029      	movs	r1, r5
10004520:	220a      	movs	r2, #10
10004522:	2300      	movs	r3, #0
10004524:	f7fd fec8 	bl	100022b8 <__wrap___aeabi_uldivmod>
10004528:	3601      	adds	r6, #1
1000452a:	3230      	adds	r2, #48	@ 0x30
1000452c:	002b      	movs	r3, r5
1000452e:	55ba      	strb	r2, [r7, r6]
10004530:	000d      	movs	r5, r1
10004532:	0022      	movs	r2, r4
10004534:	0004      	movs	r4, r0
10004536:	2b00      	cmp	r3, #0
10004538:	d1ee      	bne.n	10004518 <_vsnprintf+0x808>
1000453a:	2a09      	cmp	r2, #9
1000453c:	d8ec      	bhi.n	10004518 <_vsnprintf+0x808>
1000453e:	9b12      	ldr	r3, [sp, #72]	@ 0x48
10004540:	464f      	mov	r7, r9
10004542:	46b1      	mov	r9, r6
10004544:	4646      	mov	r6, r8
10004546:	4698      	mov	r8, r3
10004548:	9b13      	ldr	r3, [sp, #76]	@ 0x4c
1000454a:	940e      	str	r4, [sp, #56]	@ 0x38
1000454c:	950f      	str	r5, [sp, #60]	@ 0x3c
1000454e:	4655      	mov	r5, sl
10004550:	469a      	mov	sl, r3
10004552:	9c14      	ldr	r4, [sp, #80]	@ 0x50
10004554:	9b0c      	ldr	r3, [sp, #48]	@ 0x30
10004556:	9306      	str	r3, [sp, #24]
10004558:	4643      	mov	r3, r8
1000455a:	9305      	str	r3, [sp, #20]
1000455c:	4653      	mov	r3, sl
1000455e:	9304      	str	r3, [sp, #16]
10004560:	230a      	movs	r3, #10
10004562:	9303      	str	r3, [sp, #12]
10004564:	9b0a      	ldr	r3, [sp, #40]	@ 0x28
10004566:	9302      	str	r3, [sp, #8]
10004568:	464b      	mov	r3, r9
1000456a:	9301      	str	r3, [sp, #4]
1000456c:	ab18      	add	r3, sp, #96	@ 0x60
1000456e:	0022      	movs	r2, r4
10004570:	9300      	str	r3, [sp, #0]
10004572:	4659      	mov	r1, fp
10004574:	003b      	movs	r3, r7
10004576:	0030      	movs	r0, r6
10004578:	f7fe fea2 	bl	100032c0 <_ntoa_format>
1000457c:	0004      	movs	r4, r0
1000457e:	f7ff fbf0 	bl	10003d62 <_vsnprintf+0x52>
10004582:	9b0b      	ldr	r3, [sp, #44]	@ 0x2c
10004584:	781b      	ldrb	r3, [r3, #0]
10004586:	001a      	movs	r2, r3
10004588:	e667      	b.n	1000425a <_vsnprintf+0x54a>
1000458a:	2310      	movs	r3, #16
1000458c:	439a      	bics	r2, r3
1000458e:	920c      	str	r2, [sp, #48]	@ 0x30
10004590:	e640      	b.n	10004214 <_vsnprintf+0x504>
10004592:	2300      	movs	r3, #0
10004594:	4699      	mov	r9, r3
10004596:	2800      	cmp	r0, #0
10004598:	d1dc      	bne.n	10004554 <_vsnprintf+0x844>
1000459a:	2200      	movs	r2, #0
1000459c:	2300      	movs	r3, #0
1000459e:	920e      	str	r2, [sp, #56]	@ 0x38
100045a0:	930f      	str	r3, [sp, #60]	@ 0x3c
100045a2:	e7a6      	b.n	100044f2 <_vsnprintf+0x7e2>
100045a4:	9b0b      	ldr	r3, [sp, #44]	@ 0x2c
100045a6:	0022      	movs	r2, r4
100045a8:	7818      	ldrb	r0, [r3, #0]
100045aa:	4659      	mov	r1, fp
100045ac:	003b      	movs	r3, r7
100045ae:	47b0      	blx	r6
100045b0:	464c      	mov	r4, r9
100045b2:	e556      	b.n	10004062 <_vsnprintf+0x352>
100045b4:	980a      	ldr	r0, [sp, #40]	@ 0x28
100045b6:	2380      	movs	r3, #128	@ 0x80
100045b8:	0002      	movs	r2, r0
100045ba:	00db      	lsls	r3, r3, #3
100045bc:	401a      	ands	r2, r3
100045be:	0011      	movs	r1, r2
100045c0:	4218      	tst	r0, r3
100045c2:	d100      	bne.n	100045c6 <_vsnprintf+0x8b6>
100045c4:	e15f      	b.n	10004886 <_vsnprintf+0xb76>
100045c6:	0002      	movs	r2, r0
100045c8:	230d      	movs	r3, #13
100045ca:	439a      	bics	r2, r3
100045cc:	3b0b      	subs	r3, #11
100045ce:	0010      	movs	r0, r2
100045d0:	930a      	str	r3, [sp, #40]	@ 0x28
100045d2:	e6a8      	b.n	10004326 <_vsnprintf+0x616>
100045d4:	980a      	ldr	r0, [sp, #40]	@ 0x28
100045d6:	2380      	movs	r3, #128	@ 0x80
100045d8:	0002      	movs	r2, r0
100045da:	00db      	lsls	r3, r3, #3
100045dc:	401a      	ands	r2, r3
100045de:	0011      	movs	r1, r2
100045e0:	0002      	movs	r2, r0
100045e2:	4218      	tst	r0, r3
100045e4:	d100      	bne.n	100045e8 <_vsnprintf+0x8d8>
100045e6:	e166      	b.n	100048b6 <_vsnprintf+0xba6>
100045e8:	230d      	movs	r3, #13
100045ea:	2020      	movs	r0, #32
100045ec:	439a      	bics	r2, r3
100045ee:	3303      	adds	r3, #3
100045f0:	4310      	orrs	r0, r2
100045f2:	930a      	str	r3, [sp, #40]	@ 0x28
100045f4:	e697      	b.n	10004326 <_vsnprintf+0x616>
100045f6:	2361      	movs	r3, #97	@ 0x61
100045f8:	0682      	lsls	r2, r0, #26
100045fa:	d500      	bpl.n	100045fe <_vsnprintf+0x8ee>
100045fc:	2341      	movs	r3, #65	@ 0x41
100045fe:	b2db      	uxtb	r3, r3
10004600:	3b0a      	subs	r3, #10
10004602:	930b      	str	r3, [sp, #44]	@ 0x2c
10004604:	4643      	mov	r3, r8
10004606:	a910      	add	r1, sp, #64	@ 0x40
10004608:	221f      	movs	r2, #31
1000460a:	468c      	mov	ip, r1
1000460c:	9312      	str	r3, [sp, #72]	@ 0x48
1000460e:	4653      	mov	r3, sl
10004610:	4462      	add	r2, ip
10004612:	46aa      	mov	sl, r5
10004614:	9414      	str	r4, [sp, #80]	@ 0x50
10004616:	9715      	str	r7, [sp, #84]	@ 0x54
10004618:	464c      	mov	r4, r9
1000461a:	4680      	mov	r8, r0
1000461c:	46b1      	mov	r9, r6
1000461e:	0017      	movs	r7, r2
10004620:	9e0a      	ldr	r6, [sp, #40]	@ 0x28
10004622:	9d08      	ldr	r5, [sp, #32]
10004624:	9313      	str	r3, [sp, #76]	@ 0x4c
10004626:	e008      	b.n	1000463a <_vsnprintf+0x92a>
10004628:	3330      	adds	r3, #48	@ 0x30
1000462a:	b2db      	uxtb	r3, r3
1000462c:	3401      	adds	r4, #1
1000462e:	553b      	strb	r3, [r7, r4]
10004630:	42b5      	cmp	r5, r6
10004632:	d30e      	bcc.n	10004652 <_vsnprintf+0x942>
10004634:	2c20      	cmp	r4, #32
10004636:	d00c      	beq.n	10004652 <_vsnprintf+0x942>
10004638:	0005      	movs	r5, r0
1000463a:	0031      	movs	r1, r6
1000463c:	0028      	movs	r0, r5
1000463e:	f7fd fdfd 	bl	1000223c <__wrap___aeabi_uidiv>
10004642:	b2cb      	uxtb	r3, r1
10004644:	2909      	cmp	r1, #9
10004646:	d9ef      	bls.n	10004628 <_vsnprintf+0x918>
10004648:	9a0b      	ldr	r2, [sp, #44]	@ 0x2c
1000464a:	4694      	mov	ip, r2
1000464c:	4463      	add	r3, ip
1000464e:	b2db      	uxtb	r3, r3
10004650:	e7ec      	b.n	1000462c <_vsnprintf+0x91c>
10004652:	9b12      	ldr	r3, [sp, #72]	@ 0x48
10004654:	4640      	mov	r0, r8
10004656:	4698      	mov	r8, r3
10004658:	9b13      	ldr	r3, [sp, #76]	@ 0x4c
1000465a:	464e      	mov	r6, r9
1000465c:	4655      	mov	r5, sl
1000465e:	46a1      	mov	r9, r4
10004660:	469a      	mov	sl, r3
10004662:	9c14      	ldr	r4, [sp, #80]	@ 0x50
10004664:	9f15      	ldr	r7, [sp, #84]	@ 0x54
10004666:	e681      	b.n	1000436c <_vsnprintf+0x65c>
10004668:	286f      	cmp	r0, #111	@ 0x6f
1000466a:	d000      	beq.n	1000466e <_vsnprintf+0x95e>
1000466c:	e137      	b.n	100048de <_vsnprintf+0xbce>
1000466e:	990a      	ldr	r1, [sp, #40]	@ 0x28
10004670:	230c      	movs	r3, #12
10004672:	000a      	movs	r2, r1
10004674:	439a      	bics	r2, r3
10004676:	2380      	movs	r3, #128	@ 0x80
10004678:	0010      	movs	r0, r2
1000467a:	000a      	movs	r2, r1
1000467c:	00db      	lsls	r3, r3, #3
1000467e:	401a      	ands	r2, r3
10004680:	0011      	movs	r1, r2
10004682:	9a0a      	ldr	r2, [sp, #40]	@ 0x28
10004684:	421a      	tst	r2, r3
10004686:	d000      	beq.n	1000468a <_vsnprintf+0x97a>
10004688:	e121      	b.n	100048ce <_vsnprintf+0xbbe>
1000468a:	2308      	movs	r3, #8
1000468c:	930a      	str	r3, [sp, #40]	@ 0x28
1000468e:	e64a      	b.n	10004326 <_vsnprintf+0x616>
10004690:	9a0b      	ldr	r2, [sp, #44]	@ 0x2c
10004692:	3bfa      	subs	r3, #250	@ 0xfa
10004694:	3bff      	subs	r3, #255	@ 0xff
10004696:	3207      	adds	r2, #7
10004698:	439a      	bics	r2, r3
1000469a:	3301      	adds	r3, #1
1000469c:	469c      	mov	ip, r3
1000469e:	4494      	add	ip, r2
100046a0:	4663      	mov	r3, ip
100046a2:	930b      	str	r3, [sp, #44]	@ 0x2c
100046a4:	6813      	ldr	r3, [r2, #0]
100046a6:	6852      	ldr	r2, [r2, #4]
100046a8:	9308      	str	r3, [sp, #32]
100046aa:	4313      	orrs	r3, r2
100046ac:	9212      	str	r2, [sp, #72]	@ 0x48
100046ae:	1e1a      	subs	r2, r3, #0
100046b0:	d105      	bne.n	100046be <_vsnprintf+0x9ae>
100046b2:	2300      	movs	r3, #0
100046b4:	3210      	adds	r2, #16
100046b6:	4699      	mov	r9, r3
100046b8:	4390      	bics	r0, r2
100046ba:	2900      	cmp	r1, #0
100046bc:	d141      	bne.n	10004742 <_vsnprintf+0xa32>
100046be:	2261      	movs	r2, #97	@ 0x61
100046c0:	0681      	lsls	r1, r0, #26
100046c2:	d500      	bpl.n	100046c6 <_vsnprintf+0x9b6>
100046c4:	2241      	movs	r2, #65	@ 0x41
100046c6:	b2d2      	uxtb	r2, r2
100046c8:	3a0a      	subs	r2, #10
100046ca:	920c      	str	r2, [sp, #48]	@ 0x30
100046cc:	4642      	mov	r2, r8
100046ce:	2300      	movs	r3, #0
100046d0:	a910      	add	r1, sp, #64	@ 0x40
100046d2:	9213      	str	r2, [sp, #76]	@ 0x4c
100046d4:	4652      	mov	r2, sl
100046d6:	468c      	mov	ip, r1
100046d8:	4699      	mov	r9, r3
100046da:	9214      	str	r2, [sp, #80]	@ 0x50
100046dc:	331f      	adds	r3, #31
100046de:	9a0a      	ldr	r2, [sp, #40]	@ 0x28
100046e0:	4463      	add	r3, ip
100046e2:	46aa      	mov	sl, r5
100046e4:	9415      	str	r4, [sp, #84]	@ 0x54
100046e6:	9617      	str	r6, [sp, #92]	@ 0x5c
100046e8:	464c      	mov	r4, r9
100046ea:	4690      	mov	r8, r2
100046ec:	46b9      	mov	r9, r7
100046ee:	9e08      	ldr	r6, [sp, #32]
100046f0:	001f      	movs	r7, r3
100046f2:	9d12      	ldr	r5, [sp, #72]	@ 0x48
100046f4:	9016      	str	r0, [sp, #88]	@ 0x58
100046f6:	e00a      	b.n	1000470e <_vsnprintf+0x9fe>
100046f8:	3230      	adds	r2, #48	@ 0x30
100046fa:	b2d2      	uxtb	r2, r2
100046fc:	2300      	movs	r3, #0
100046fe:	3401      	adds	r4, #1
10004700:	553a      	strb	r2, [r7, r4]
10004702:	42ab      	cmp	r3, r5
10004704:	d011      	beq.n	1000472a <_vsnprintf+0xa1a>
10004706:	2c20      	cmp	r4, #32
10004708:	d011      	beq.n	1000472e <_vsnprintf+0xa1e>
1000470a:	0006      	movs	r6, r0
1000470c:	000d      	movs	r5, r1
1000470e:	4642      	mov	r2, r8
10004710:	2300      	movs	r3, #0
10004712:	0030      	movs	r0, r6
10004714:	0029      	movs	r1, r5
10004716:	f7fd fdcf 	bl	100022b8 <__wrap___aeabi_uldivmod>
1000471a:	b2d2      	uxtb	r2, r2
1000471c:	2a09      	cmp	r2, #9
1000471e:	d9eb      	bls.n	100046f8 <_vsnprintf+0x9e8>
10004720:	9b0c      	ldr	r3, [sp, #48]	@ 0x30
10004722:	469c      	mov	ip, r3
10004724:	4462      	add	r2, ip
10004726:	b2d2      	uxtb	r2, r2
10004728:	e7e8      	b.n	100046fc <_vsnprintf+0x9ec>
1000472a:	45b0      	cmp	r8, r6
1000472c:	d9eb      	bls.n	10004706 <_vsnprintf+0x9f6>
1000472e:	9b13      	ldr	r3, [sp, #76]	@ 0x4c
10004730:	4655      	mov	r5, sl
10004732:	4698      	mov	r8, r3
10004734:	9b14      	ldr	r3, [sp, #80]	@ 0x50
10004736:	464f      	mov	r7, r9
10004738:	469a      	mov	sl, r3
1000473a:	46a1      	mov	r9, r4
1000473c:	9816      	ldr	r0, [sp, #88]	@ 0x58
1000473e:	9e17      	ldr	r6, [sp, #92]	@ 0x5c
10004740:	9c15      	ldr	r4, [sp, #84]	@ 0x54
10004742:	4643      	mov	r3, r8
10004744:	9305      	str	r3, [sp, #20]
10004746:	4653      	mov	r3, sl
10004748:	9304      	str	r3, [sp, #16]
1000474a:	9b0a      	ldr	r3, [sp, #40]	@ 0x28
1000474c:	9006      	str	r0, [sp, #24]
1000474e:	9303      	str	r3, [sp, #12]
10004750:	2300      	movs	r3, #0
10004752:	e708      	b.n	10004566 <_vsnprintf+0x856>
10004754:	2800      	cmp	r0, #0
10004756:	d000      	beq.n	1000475a <_vsnprintf+0xa4a>
10004758:	e5b0      	b.n	100042bc <_vsnprintf+0x5ac>
1000475a:	e584      	b.n	10004266 <_vsnprintf+0x556>
1000475c:	9b0b      	ldr	r3, [sp, #44]	@ 0x2c
1000475e:	681b      	ldr	r3, [r3, #0]
10004760:	0fda      	lsrs	r2, r3, #31
10004762:	0011      	movs	r1, r2
10004764:	2b00      	cmp	r3, #0
10004766:	d100      	bne.n	1000476a <_vsnprintf+0xa5a>
10004768:	e094      	b.n	10004894 <_vsnprintf+0xb84>
1000476a:	17da      	asrs	r2, r3, #31
1000476c:	1898      	adds	r0, r3, r2
1000476e:	4050      	eors	r0, r2
10004770:	aa10      	add	r2, sp, #64	@ 0x40
10004772:	4691      	mov	r9, r2
10004774:	4642      	mov	r2, r8
10004776:	231f      	movs	r3, #31
10004778:	9212      	str	r2, [sp, #72]	@ 0x48
1000477a:	4652      	mov	r2, sl
1000477c:	444b      	add	r3, r9
1000477e:	46a0      	mov	r8, r4
10004780:	46aa      	mov	sl, r5
10004782:	9714      	str	r7, [sp, #80]	@ 0x50
10004784:	0004      	movs	r4, r0
10004786:	46b1      	mov	r9, r6
10004788:	4665      	mov	r5, ip
1000478a:	001f      	movs	r7, r3
1000478c:	910b      	str	r1, [sp, #44]	@ 0x2c
1000478e:	9213      	str	r2, [sp, #76]	@ 0x4c
10004790:	e001      	b.n	10004796 <_vsnprintf+0xa86>
10004792:	2d20      	cmp	r5, #32
10004794:	d00f      	beq.n	100047b6 <_vsnprintf+0xaa6>
10004796:	0020      	movs	r0, r4
10004798:	210a      	movs	r1, #10
1000479a:	f7fd fd4f 	bl	1000223c <__wrap___aeabi_uidiv>
1000479e:	3501      	adds	r5, #1
100047a0:	197e      	adds	r6, r7, r5
100047a2:	3130      	adds	r1, #48	@ 0x30
100047a4:	7031      	strb	r1, [r6, #0]
100047a6:	0020      	movs	r0, r4
100047a8:	210a      	movs	r1, #10
100047aa:	f7fd fd47 	bl	1000223c <__wrap___aeabi_uidiv>
100047ae:	0026      	movs	r6, r4
100047b0:	0004      	movs	r4, r0
100047b2:	2e09      	cmp	r6, #9
100047b4:	d8ed      	bhi.n	10004792 <_vsnprintf+0xa82>
100047b6:	9b12      	ldr	r3, [sp, #72]	@ 0x48
100047b8:	4644      	mov	r4, r8
100047ba:	4698      	mov	r8, r3
100047bc:	9b0b      	ldr	r3, [sp, #44]	@ 0x2c
100047be:	46ac      	mov	ip, r5
100047c0:	0019      	movs	r1, r3
100047c2:	9b13      	ldr	r3, [sp, #76]	@ 0x4c
100047c4:	4655      	mov	r5, sl
100047c6:	464e      	mov	r6, r9
100047c8:	469a      	mov	sl, r3
100047ca:	9f14      	ldr	r7, [sp, #80]	@ 0x50
100047cc:	9b0c      	ldr	r3, [sp, #48]	@ 0x30
100047ce:	9102      	str	r1, [sp, #8]
100047d0:	9306      	str	r3, [sp, #24]
100047d2:	4643      	mov	r3, r8
100047d4:	9305      	str	r3, [sp, #20]
100047d6:	4653      	mov	r3, sl
100047d8:	9304      	str	r3, [sp, #16]
100047da:	230a      	movs	r3, #10
100047dc:	9303      	str	r3, [sp, #12]
100047de:	4663      	mov	r3, ip
100047e0:	e577      	b.n	100042d2 <_vsnprintf+0x5c2>
100047e2:	9b0b      	ldr	r3, [sp, #44]	@ 0x2c
100047e4:	681b      	ldr	r3, [r3, #0]
100047e6:	9308      	str	r3, [sp, #32]
100047e8:	2b00      	cmp	r3, #0
100047ea:	d103      	bne.n	100047f4 <_vsnprintf+0xae4>
100047ec:	3310      	adds	r3, #16
100047ee:	4398      	bics	r0, r3
100047f0:	2900      	cmp	r1, #0
100047f2:	d137      	bne.n	10004864 <_vsnprintf+0xb54>
100047f4:	2361      	movs	r3, #97	@ 0x61
100047f6:	0682      	lsls	r2, r0, #26
100047f8:	d500      	bpl.n	100047fc <_vsnprintf+0xaec>
100047fa:	2341      	movs	r3, #65	@ 0x41
100047fc:	b2db      	uxtb	r3, r3
100047fe:	3b0a      	subs	r3, #10
10004800:	930b      	str	r3, [sp, #44]	@ 0x2c
10004802:	4643      	mov	r3, r8
10004804:	a910      	add	r1, sp, #64	@ 0x40
10004806:	4689      	mov	r9, r1
10004808:	221f      	movs	r2, #31
1000480a:	9312      	str	r3, [sp, #72]	@ 0x48
1000480c:	4653      	mov	r3, sl
1000480e:	444a      	add	r2, r9
10004810:	46aa      	mov	sl, r5
10004812:	46b1      	mov	r9, r6
10004814:	9414      	str	r4, [sp, #80]	@ 0x50
10004816:	9715      	str	r7, [sp, #84]	@ 0x54
10004818:	4664      	mov	r4, ip
1000481a:	4680      	mov	r8, r0
1000481c:	0017      	movs	r7, r2
1000481e:	9d08      	ldr	r5, [sp, #32]
10004820:	9e0a      	ldr	r6, [sp, #40]	@ 0x28
10004822:	9313      	str	r3, [sp, #76]	@ 0x4c
10004824:	e008      	b.n	10004838 <_vsnprintf+0xb28>
10004826:	3330      	adds	r3, #48	@ 0x30
10004828:	b2db      	uxtb	r3, r3
1000482a:	3401      	adds	r4, #1
1000482c:	553b      	strb	r3, [r7, r4]
1000482e:	42b5      	cmp	r5, r6
10004830:	d30e      	bcc.n	10004850 <_vsnprintf+0xb40>
10004832:	2c20      	cmp	r4, #32
10004834:	d00c      	beq.n	10004850 <_vsnprintf+0xb40>
10004836:	0005      	movs	r5, r0
10004838:	0031      	movs	r1, r6
1000483a:	0028      	movs	r0, r5
1000483c:	f7fd fcfe 	bl	1000223c <__wrap___aeabi_uidiv>
10004840:	b2cb      	uxtb	r3, r1
10004842:	2909      	cmp	r1, #9
10004844:	d9ef      	bls.n	10004826 <_vsnprintf+0xb16>
10004846:	9a0b      	ldr	r2, [sp, #44]	@ 0x2c
10004848:	4694      	mov	ip, r2
1000484a:	4463      	add	r3, ip
1000484c:	b2db      	uxtb	r3, r3
1000484e:	e7ec      	b.n	1000482a <_vsnprintf+0xb1a>
10004850:	9b12      	ldr	r3, [sp, #72]	@ 0x48
10004852:	4640      	mov	r0, r8
10004854:	4698      	mov	r8, r3
10004856:	9b13      	ldr	r3, [sp, #76]	@ 0x4c
10004858:	4655      	mov	r5, sl
1000485a:	464e      	mov	r6, r9
1000485c:	469a      	mov	sl, r3
1000485e:	46a4      	mov	ip, r4
10004860:	9f15      	ldr	r7, [sp, #84]	@ 0x54
10004862:	9c14      	ldr	r4, [sp, #80]	@ 0x50
10004864:	4643      	mov	r3, r8
10004866:	9305      	str	r3, [sp, #20]
10004868:	4653      	mov	r3, sl
1000486a:	9304      	str	r3, [sp, #16]
1000486c:	9b0a      	ldr	r3, [sp, #40]	@ 0x28
1000486e:	9006      	str	r0, [sp, #24]
10004870:	9303      	str	r3, [sp, #12]
10004872:	2300      	movs	r3, #0
10004874:	9302      	str	r3, [sp, #8]
10004876:	4663      	mov	r3, ip
10004878:	e582      	b.n	10004380 <_vsnprintf+0x670>
1000487a:	0603      	lsls	r3, r0, #24
1000487c:	d513      	bpl.n	100048a6 <_vsnprintf+0xb96>
1000487e:	9b0b      	ldr	r3, [sp, #44]	@ 0x2c
10004880:	881b      	ldrh	r3, [r3, #0]
10004882:	9308      	str	r3, [sp, #32]
10004884:	e568      	b.n	10004358 <_vsnprintf+0x648>
10004886:	0002      	movs	r2, r0
10004888:	230c      	movs	r3, #12
1000488a:	439a      	bics	r2, r3
1000488c:	3b0a      	subs	r3, #10
1000488e:	0010      	movs	r0, r2
10004890:	930a      	str	r3, [sp, #40]	@ 0x28
10004892:	e548      	b.n	10004326 <_vsnprintf+0x616>
10004894:	2800      	cmp	r0, #0
10004896:	d199      	bne.n	100047cc <_vsnprintf+0xabc>
10004898:	e76a      	b.n	10004770 <_vsnprintf+0xa60>
1000489a:	9b0b      	ldr	r3, [sp, #44]	@ 0x2c
1000489c:	681b      	ldr	r3, [r3, #0]
1000489e:	17d9      	asrs	r1, r3, #31
100048a0:	185a      	adds	r2, r3, r1
100048a2:	404a      	eors	r2, r1
100048a4:	e4d9      	b.n	1000425a <_vsnprintf+0x54a>
100048a6:	9b0b      	ldr	r3, [sp, #44]	@ 0x2c
100048a8:	681b      	ldr	r3, [r3, #0]
100048aa:	9308      	str	r3, [sp, #32]
100048ac:	e554      	b.n	10004358 <_vsnprintf+0x648>
100048ae:	0003      	movs	r3, r0
100048b0:	3301      	adds	r3, #1
100048b2:	930c      	str	r3, [sp, #48]	@ 0x30
100048b4:	e5f9      	b.n	100044aa <_vsnprintf+0x79a>
100048b6:	2320      	movs	r3, #32
100048b8:	9a0a      	ldr	r2, [sp, #40]	@ 0x28
100048ba:	431a      	orrs	r2, r3
100048bc:	920a      	str	r2, [sp, #40]	@ 0x28
100048be:	230c      	movs	r3, #12
100048c0:	9a0a      	ldr	r2, [sp, #40]	@ 0x28
100048c2:	2100      	movs	r1, #0
100048c4:	439a      	bics	r2, r3
100048c6:	3304      	adds	r3, #4
100048c8:	0010      	movs	r0, r2
100048ca:	930a      	str	r3, [sp, #40]	@ 0x28
100048cc:	e52b      	b.n	10004326 <_vsnprintf+0x616>
100048ce:	9b0a      	ldr	r3, [sp, #40]	@ 0x28
100048d0:	930c      	str	r3, [sp, #48]	@ 0x30
100048d2:	2308      	movs	r3, #8
100048d4:	930a      	str	r3, [sp, #40]	@ 0x28
100048d6:	230d      	movs	r3, #13
100048d8:	980c      	ldr	r0, [sp, #48]	@ 0x30
100048da:	4398      	bics	r0, r3
100048dc:	e523      	b.n	10004326 <_vsnprintf+0x616>
100048de:	2310      	movs	r3, #16
100048e0:	9a0a      	ldr	r2, [sp, #40]	@ 0x28
100048e2:	439a      	bics	r2, r3
100048e4:	920c      	str	r2, [sp, #48]	@ 0x30
100048e6:	2869      	cmp	r0, #105	@ 0x69
100048e8:	d10a      	bne.n	10004900 <_vsnprintf+0xbf0>
100048ea:	990a      	ldr	r1, [sp, #40]	@ 0x28
100048ec:	2380      	movs	r3, #128	@ 0x80
100048ee:	000a      	movs	r2, r1
100048f0:	00db      	lsls	r3, r3, #3
100048f2:	401a      	ands	r2, r3
100048f4:	0010      	movs	r0, r2
100048f6:	000a      	movs	r2, r1
100048f8:	4219      	tst	r1, r3
100048fa:	d100      	bne.n	100048fe <_vsnprintf+0xbee>
100048fc:	e48a      	b.n	10004214 <_vsnprintf+0x504>
100048fe:	e486      	b.n	1000420e <_vsnprintf+0x4fe>
10004900:	990a      	ldr	r1, [sp, #40]	@ 0x28
10004902:	231c      	movs	r3, #28
10004904:	000a      	movs	r2, r1
10004906:	439a      	bics	r2, r3
10004908:	2380      	movs	r3, #128	@ 0x80
1000490a:	0010      	movs	r0, r2
1000490c:	000a      	movs	r2, r1
1000490e:	00db      	lsls	r3, r3, #3
10004910:	401a      	ands	r2, r3
10004912:	0011      	movs	r1, r2
10004914:	9a0a      	ldr	r2, [sp, #40]	@ 0x28
10004916:	421a      	tst	r2, r3
10004918:	d102      	bne.n	10004920 <_vsnprintf+0xc10>
1000491a:	230a      	movs	r3, #10
1000491c:	930a      	str	r3, [sp, #40]	@ 0x28
1000491e:	e502      	b.n	10004326 <_vsnprintf+0x616>
10004920:	230a      	movs	r3, #10
10004922:	930a      	str	r3, [sp, #40]	@ 0x28
10004924:	e7d7      	b.n	100048d6 <_vsnprintf+0xbc6>
10004926:	46c0      	nop			@ (mov r8, r8)

10004928 <__wrap_sprintf>:
10004928:	b40e      	push	{r1, r2, r3}
1000492a:	2201      	movs	r2, #1
1000492c:	b530      	push	{r4, r5, lr}
1000492e:	b084      	sub	sp, #16
10004930:	ac07      	add	r4, sp, #28
10004932:	cc08      	ldmia	r4!, {r3}
10004934:	4d06      	ldr	r5, [pc, #24]	@ (10004950 <__wrap_sprintf+0x28>)
10004936:	0001      	movs	r1, r0
10004938:	9400      	str	r4, [sp, #0]
1000493a:	0028      	movs	r0, r5
1000493c:	4252      	negs	r2, r2
1000493e:	9403      	str	r4, [sp, #12]
10004940:	f7ff f9e6 	bl	10003d10 <_vsnprintf>
10004944:	b004      	add	sp, #16
10004946:	bc30      	pop	{r4, r5}
10004948:	bc08      	pop	{r3}
1000494a:	b003      	add	sp, #12
1000494c:	4718      	bx	r3
1000494e:	46c0      	nop			@ (mov r8, r8)
10004950:	10003225 	.word	0x10003225

10004954 <vfctprintf>:
10004954:	b500      	push	{lr}
10004956:	b085      	sub	sp, #20
10004958:	9103      	str	r1, [sp, #12]
1000495a:	2101      	movs	r1, #1
1000495c:	9002      	str	r0, [sp, #8]
1000495e:	9300      	str	r3, [sp, #0]
10004960:	4803      	ldr	r0, [pc, #12]	@ (10004970 <vfctprintf+0x1c>)
10004962:	0013      	movs	r3, r2
10004964:	424a      	negs	r2, r1
10004966:	a902      	add	r1, sp, #8
10004968:	f7ff f9d2 	bl	10003d10 <_vsnprintf>
1000496c:	b005      	add	sp, #20
1000496e:	bd00      	pop	{pc}
10004970:	100034d9 	.word	0x100034d9

10004974 <weak_raw_printf>:
10004974:	b40f      	push	{r0, r1, r2, r3}
10004976:	b530      	push	{r4, r5, lr}
10004978:	490c      	ldr	r1, [pc, #48]	@ (100049ac <weak_raw_printf+0x38>)
1000497a:	b085      	sub	sp, #20
1000497c:	aa08      	add	r2, sp, #32
1000497e:	ca08      	ldmia	r2!, {r3}
10004980:	680d      	ldr	r5, [r1, #0]
10004982:	9203      	str	r2, [sp, #12]
10004984:	2d00      	cmp	r5, #0
10004986:	d00c      	beq.n	100049a2 <weak_raw_printf+0x2e>
10004988:	9200      	str	r2, [sp, #0]
1000498a:	2201      	movs	r2, #1
1000498c:	4c08      	ldr	r4, [pc, #32]	@ (100049b0 <weak_raw_printf+0x3c>)
1000498e:	4252      	negs	r2, r2
10004990:	0020      	movs	r0, r4
10004992:	a902      	add	r1, sp, #8
10004994:	47a8      	blx	r5
10004996:	2001      	movs	r0, #1
10004998:	b005      	add	sp, #20
1000499a:	bc30      	pop	{r4, r5}
1000499c:	bc08      	pop	{r3}
1000499e:	b004      	add	sp, #16
100049a0:	4718      	bx	r3
100049a2:	0018      	movs	r0, r3
100049a4:	f000 fa0e 	bl	10004dc4 <__wrap_puts>
100049a8:	2000      	movs	r0, #0
100049aa:	e7f5      	b.n	10004998 <weak_raw_printf+0x24>
100049ac:	20000e68 	.word	0x20000e68
100049b0:	100034c9 	.word	0x100034c9

100049b4 <weak_raw_vprintf>:
100049b4:	b510      	push	{r4, lr}
100049b6:	4a09      	ldr	r2, [pc, #36]	@ (100049dc <weak_raw_vprintf+0x28>)
100049b8:	0003      	movs	r3, r0
100049ba:	6814      	ldr	r4, [r2, #0]
100049bc:	b084      	sub	sp, #16
100049be:	2c00      	cmp	r4, #0
100049c0:	d008      	beq.n	100049d4 <weak_raw_vprintf+0x20>
100049c2:	2201      	movs	r2, #1
100049c4:	9100      	str	r1, [sp, #0]
100049c6:	4806      	ldr	r0, [pc, #24]	@ (100049e0 <weak_raw_vprintf+0x2c>)
100049c8:	4252      	negs	r2, r2
100049ca:	a903      	add	r1, sp, #12
100049cc:	47a0      	blx	r4
100049ce:	2001      	movs	r0, #1
100049d0:	b004      	add	sp, #16
100049d2:	bd10      	pop	{r4, pc}
100049d4:	f000 f9f6 	bl	10004dc4 <__wrap_puts>
100049d8:	2000      	movs	r0, #0
100049da:	e7f9      	b.n	100049d0 <weak_raw_vprintf+0x1c>
100049dc:	20000e68 	.word	0x20000e68
100049e0:	100034c9 	.word	0x100034c9

100049e4 <_exit>:
100049e4:	be00      	bkpt	0x0000
100049e6:	e7fd      	b.n	100049e4 <_exit>

100049e8 <_sbrk>:
100049e8:	4a09      	ldr	r2, [pc, #36]	@ (10004a10 <_sbrk+0x28>)
100049ea:	0003      	movs	r3, r0
100049ec:	6810      	ldr	r0, [r2, #0]
100049ee:	2800      	cmp	r0, #0
100049f0:	d005      	beq.n	100049fe <_sbrk+0x16>
100049f2:	4908      	ldr	r1, [pc, #32]	@ (10004a14 <_sbrk+0x2c>)
100049f4:	18c3      	adds	r3, r0, r3
100049f6:	428b      	cmp	r3, r1
100049f8:	d807      	bhi.n	10004a0a <_sbrk+0x22>
100049fa:	6013      	str	r3, [r2, #0]
100049fc:	4770      	bx	lr
100049fe:	4806      	ldr	r0, [pc, #24]	@ (10004a18 <_sbrk+0x30>)
10004a00:	4904      	ldr	r1, [pc, #16]	@ (10004a14 <_sbrk+0x2c>)
10004a02:	18c3      	adds	r3, r0, r3
10004a04:	6010      	str	r0, [r2, #0]
10004a06:	428b      	cmp	r3, r1
10004a08:	d9f7      	bls.n	100049fa <_sbrk+0x12>
10004a0a:	2001      	movs	r0, #1
10004a0c:	4240      	negs	r0, r0
10004a0e:	e7f5      	b.n	100049fc <_sbrk+0x14>
10004a10:	20000e54 	.word	0x20000e54
10004a14:	20040000 	.word	0x20040000
10004a18:	20000ea8 	.word	0x20000ea8

10004a1c <exit>:
10004a1c:	b510      	push	{r4, lr}
10004a1e:	f7ff ffe1 	bl	100049e4 <_exit>
10004a22:	46c0      	nop			@ (mov r8, r8)

10004a24 <__assert_func>:
10004a24:	b530      	push	{r4, r5, lr}
10004a26:	000d      	movs	r5, r1
10004a28:	b083      	sub	sp, #12
10004a2a:	0019      	movs	r1, r3
10004a2c:	2a00      	cmp	r2, #0
10004a2e:	d00b      	beq.n	10004a48 <__assert_func+0x24>
10004a30:	4b07      	ldr	r3, [pc, #28]	@ (10004a50 <__assert_func+0x2c>)
10004a32:	4c08      	ldr	r4, [pc, #32]	@ (10004a54 <__assert_func+0x30>)
10004a34:	9201      	str	r2, [sp, #4]
10004a36:	9300      	str	r3, [sp, #0]
10004a38:	0002      	movs	r2, r0
10004a3a:	002b      	movs	r3, r5
10004a3c:	0020      	movs	r0, r4
10004a3e:	f7ff ff99 	bl	10004974 <weak_raw_printf>
10004a42:	2001      	movs	r0, #1
10004a44:	f7ff ffce 	bl	100049e4 <_exit>
10004a48:	4b03      	ldr	r3, [pc, #12]	@ (10004a58 <__assert_func+0x34>)
10004a4a:	001a      	movs	r2, r3
10004a4c:	e7f1      	b.n	10004a32 <__assert_func+0xe>
10004a4e:	46c0      	nop			@ (mov r8, r8)
10004a50:	1000b1f0 	.word	0x1000b1f0
10004a54:	1000b200 	.word	0x1000b200
10004a58:	1000a73c 	.word	0x1000a73c

10004a5c <runtime_init>:
10004a5c:	b570      	push	{r4, r5, r6, lr}
10004a5e:	f7fd faed 	bl	1000203c <runtime_run_initializers>
10004a62:	4d07      	ldr	r5, [pc, #28]	@ (10004a80 <runtime_init+0x24>)
10004a64:	4e07      	ldr	r6, [pc, #28]	@ (10004a84 <runtime_init+0x28>)
10004a66:	42b5      	cmp	r5, r6
10004a68:	d209      	bcs.n	10004a7e <runtime_init+0x22>
10004a6a:	2400      	movs	r4, #0
10004a6c:	3e01      	subs	r6, #1
10004a6e:	1b76      	subs	r6, r6, r5
10004a70:	08b6      	lsrs	r6, r6, #2
10004a72:	cd08      	ldmia	r5!, {r3}
10004a74:	4798      	blx	r3
10004a76:	0023      	movs	r3, r4
10004a78:	3401      	adds	r4, #1
10004a7a:	42b3      	cmp	r3, r6
10004a7c:	d1f9      	bne.n	10004a72 <runtime_init+0x16>
10004a7e:	bd70      	pop	{r4, r5, r6, pc}
10004a80:	1000a5cc 	.word	0x1000a5cc
10004a84:	1000a5d0 	.word	0x1000a5d0

10004a88 <stdio_out_chars_no_crlf>:
10004a88:	0003      	movs	r3, r0
10004a8a:	b510      	push	{r4, lr}
10004a8c:	0008      	movs	r0, r1
10004a8e:	0011      	movs	r1, r2
10004a90:	681b      	ldr	r3, [r3, #0]
10004a92:	4798      	blx	r3
10004a94:	bd10      	pop	{r4, pc}
10004a96:	46c0      	nop			@ (mov r8, r8)

10004a98 <stdio_out_chars_crlf>:
10004a98:	b5f0      	push	{r4, r5, r6, r7, lr}
10004a9a:	46c6      	mov	lr, r8
10004a9c:	b500      	push	{lr}
10004a9e:	7d43      	ldrb	r3, [r0, #21]
10004aa0:	0007      	movs	r7, r0
10004aa2:	000d      	movs	r5, r1
10004aa4:	0016      	movs	r6, r2
10004aa6:	2b00      	cmp	r3, #0
10004aa8:	d038      	beq.n	10004b1c <stdio_out_chars_crlf+0x84>
10004aaa:	2a00      	cmp	r2, #0
10004aac:	dd2e      	ble.n	10004b0c <stdio_out_chars_crlf+0x74>
10004aae:	2100      	movs	r1, #0
10004ab0:	1e6a      	subs	r2, r5, #1
10004ab2:	4690      	mov	r8, r2
10004ab4:	5c6a      	ldrb	r2, [r5, r1]
10004ab6:	7d03      	ldrb	r3, [r0, #20]
10004ab8:	1c4c      	adds	r4, r1, #1
10004aba:	2000      	movs	r0, #0
10004abc:	2a0a      	cmp	r2, #10
10004abe:	d00c      	beq.n	10004ada <stdio_out_chars_crlf+0x42>
10004ac0:	42a6      	cmp	r6, r4
10004ac2:	d016      	beq.n	10004af2 <stdio_out_chars_crlf+0x5a>
10004ac4:	4643      	mov	r3, r8
10004ac6:	5d1b      	ldrb	r3, [r3, r4]
10004ac8:	0021      	movs	r1, r4
10004aca:	3b0d      	subs	r3, #13
10004acc:	425a      	negs	r2, r3
10004ace:	4153      	adcs	r3, r2
10004ad0:	5c6a      	ldrb	r2, [r5, r1]
10004ad2:	b2db      	uxtb	r3, r3
10004ad4:	1c4c      	adds	r4, r1, #1
10004ad6:	2a0a      	cmp	r2, #10
10004ad8:	d1f2      	bne.n	10004ac0 <stdio_out_chars_crlf+0x28>
10004ada:	2b00      	cmp	r3, #0
10004adc:	d1f0      	bne.n	10004ac0 <stdio_out_chars_crlf+0x28>
10004ade:	4281      	cmp	r1, r0
10004ae0:	dc17      	bgt.n	10004b12 <stdio_out_chars_crlf+0x7a>
10004ae2:	2102      	movs	r1, #2
10004ae4:	4810      	ldr	r0, [pc, #64]	@ (10004b28 <stdio_out_chars_crlf+0x90>)
10004ae6:	683b      	ldr	r3, [r7, #0]
10004ae8:	4798      	blx	r3
10004aea:	42a6      	cmp	r6, r4
10004aec:	d007      	beq.n	10004afe <stdio_out_chars_crlf+0x66>
10004aee:	0020      	movs	r0, r4
10004af0:	e7e8      	b.n	10004ac4 <stdio_out_chars_crlf+0x2c>
10004af2:	4286      	cmp	r6, r0
10004af4:	dd03      	ble.n	10004afe <stdio_out_chars_crlf+0x66>
10004af6:	1a31      	subs	r1, r6, r0
10004af8:	683b      	ldr	r3, [r7, #0]
10004afa:	1828      	adds	r0, r5, r0
10004afc:	4798      	blx	r3
10004afe:	19ad      	adds	r5, r5, r6
10004b00:	3d01      	subs	r5, #1
10004b02:	782b      	ldrb	r3, [r5, #0]
10004b04:	3b0d      	subs	r3, #13
10004b06:	425a      	negs	r2, r3
10004b08:	4153      	adcs	r3, r2
10004b0a:	753b      	strb	r3, [r7, #20]
10004b0c:	bc80      	pop	{r7}
10004b0e:	46b8      	mov	r8, r7
10004b10:	bdf0      	pop	{r4, r5, r6, r7, pc}
10004b12:	1a09      	subs	r1, r1, r0
10004b14:	683b      	ldr	r3, [r7, #0]
10004b16:	1828      	adds	r0, r5, r0
10004b18:	4798      	blx	r3
10004b1a:	e7e2      	b.n	10004ae2 <stdio_out_chars_crlf+0x4a>
10004b1c:	6803      	ldr	r3, [r0, #0]
10004b1e:	0011      	movs	r1, r2
10004b20:	0028      	movs	r0, r5
10004b22:	4798      	blx	r3
10004b24:	e7f2      	b.n	10004b0c <stdio_out_chars_crlf+0x74>
10004b26:	46c0      	nop			@ (mov r8, r8)
10004b28:	1000b230 	.word	0x1000b230

10004b2c <stdio_buffered_printer>:
10004b2c:	b5f0      	push	{r4, r5, r6, r7, lr}
10004b2e:	46c6      	mov	lr, r8
10004b30:	680b      	ldr	r3, [r1, #0]
10004b32:	0006      	movs	r6, r0
10004b34:	000c      	movs	r4, r1
10004b36:	b500      	push	{lr}
10004b38:	2b80      	cmp	r3, #128	@ 0x80
10004b3a:	d006      	beq.n	10004b4a <stdio_buffered_printer+0x1e>
10004b3c:	1c5a      	adds	r2, r3, #1
10004b3e:	6022      	str	r2, [r4, #0]
10004b40:	18e4      	adds	r4, r4, r3
10004b42:	7126      	strb	r6, [r4, #4]
10004b44:	bc80      	pop	{r7}
10004b46:	46b8      	mov	r8, r7
10004b48:	bdf0      	pop	{r4, r5, r6, r7, pc}
10004b4a:	4b0f      	ldr	r3, [pc, #60]	@ (10004b88 <stdio_buffered_printer+0x5c>)
10004b4c:	681d      	ldr	r5, [r3, #0]
10004b4e:	2d00      	cmp	r5, #0
10004b50:	d016      	beq.n	10004b80 <stdio_buffered_printer+0x54>
10004b52:	1d0b      	adds	r3, r1, #4
10004b54:	4698      	mov	r8, r3
10004b56:	4f0d      	ldr	r7, [pc, #52]	@ (10004b8c <stdio_buffered_printer+0x60>)
10004b58:	e002      	b.n	10004b60 <stdio_buffered_printer+0x34>
10004b5a:	692d      	ldr	r5, [r5, #16]
10004b5c:	2d00      	cmp	r5, #0
10004b5e:	d00f      	beq.n	10004b80 <stdio_buffered_printer+0x54>
10004b60:	682b      	ldr	r3, [r5, #0]
10004b62:	2b00      	cmp	r3, #0
10004b64:	d0f9      	beq.n	10004b5a <stdio_buffered_printer+0x2e>
10004b66:	683b      	ldr	r3, [r7, #0]
10004b68:	2b00      	cmp	r3, #0
10004b6a:	d001      	beq.n	10004b70 <stdio_buffered_printer+0x44>
10004b6c:	42ab      	cmp	r3, r5
10004b6e:	d1f4      	bne.n	10004b5a <stdio_buffered_printer+0x2e>
10004b70:	0028      	movs	r0, r5
10004b72:	4641      	mov	r1, r8
10004b74:	6822      	ldr	r2, [r4, #0]
10004b76:	f7ff ff8f 	bl	10004a98 <stdio_out_chars_crlf>
10004b7a:	692d      	ldr	r5, [r5, #16]
10004b7c:	2d00      	cmp	r5, #0
10004b7e:	d1ef      	bne.n	10004b60 <stdio_buffered_printer+0x34>
10004b80:	2201      	movs	r2, #1
10004b82:	2300      	movs	r3, #0
10004b84:	e7db      	b.n	10004b3e <stdio_buffered_printer+0x12>
10004b86:	46c0      	nop			@ (mov r8, r8)
10004b88:	20000e48 	.word	0x20000e48
10004b8c:	20000e50 	.word	0x20000e50

10004b90 <stdio_put_string>:
10004b90:	b5f0      	push	{r4, r5, r6, r7, lr}
10004b92:	46de      	mov	lr, fp
10004b94:	4657      	mov	r7, sl
10004b96:	464e      	mov	r6, r9
10004b98:	4645      	mov	r5, r8
10004b9a:	b5e0      	push	{r5, r6, r7, lr}
10004b9c:	b085      	sub	sp, #20
10004b9e:	0017      	movs	r7, r2
10004ba0:	001c      	movs	r4, r3
10004ba2:	0006      	movs	r6, r0
10004ba4:	000d      	movs	r5, r1
10004ba6:	f7fc ff97 	bl	10001ad8 <time_us_64>
10004baa:	2300      	movs	r3, #0
10004bac:	4a31      	ldr	r2, [pc, #196]	@ (10004c74 <stdio_put_string+0xe4>)
10004bae:	1812      	adds	r2, r2, r0
10004bb0:	414b      	adcs	r3, r1
10004bb2:	2180      	movs	r1, #128	@ 0x80
10004bb4:	0609      	lsls	r1, r1, #24
10004bb6:	428b      	cmp	r3, r1
10004bb8:	d302      	bcc.n	10004bc0 <stdio_put_string+0x30>
10004bba:	2201      	movs	r2, #1
10004bbc:	4b2e      	ldr	r3, [pc, #184]	@ (10004c78 <stdio_put_string+0xe8>)
10004bbe:	4252      	negs	r2, r2
10004bc0:	492e      	ldr	r1, [pc, #184]	@ (10004c7c <stdio_put_string+0xec>)
10004bc2:	0008      	movs	r0, r1
10004bc4:	468a      	mov	sl, r1
10004bc6:	f005 fcdb 	bl	1000a580 <__mutex_try_enter_block_until_veneer>
10004bca:	9001      	str	r0, [sp, #4]
10004bcc:	1c6b      	adds	r3, r5, #1
10004bce:	d103      	bne.n	10004bd8 <stdio_put_string+0x48>
10004bd0:	0030      	movs	r0, r6
10004bd2:	f002 fa45 	bl	10007060 <strlen>
10004bd6:	0005      	movs	r5, r0
10004bd8:	2c00      	cmp	r4, #0
10004bda:	d026      	beq.n	10004c2a <stdio_put_string+0x9a>
10004bdc:	4b28      	ldr	r3, [pc, #160]	@ (10004c80 <stdio_put_string+0xf0>)
10004bde:	4698      	mov	r8, r3
10004be0:	4b28      	ldr	r3, [pc, #160]	@ (10004c84 <stdio_put_string+0xf4>)
10004be2:	681c      	ldr	r4, [r3, #0]
10004be4:	2c00      	cmp	r4, #0
10004be6:	d015      	beq.n	10004c14 <stdio_put_string+0x84>
10004be8:	2f00      	cmp	r7, #0
10004bea:	d121      	bne.n	10004c30 <stdio_put_string+0xa0>
10004bec:	4f26      	ldr	r7, [pc, #152]	@ (10004c88 <stdio_put_string+0xf8>)
10004bee:	e002      	b.n	10004bf6 <stdio_put_string+0x66>
10004bf0:	6924      	ldr	r4, [r4, #16]
10004bf2:	2c00      	cmp	r4, #0
10004bf4:	d00e      	beq.n	10004c14 <stdio_put_string+0x84>
10004bf6:	6823      	ldr	r3, [r4, #0]
10004bf8:	2b00      	cmp	r3, #0
10004bfa:	d0f9      	beq.n	10004bf0 <stdio_put_string+0x60>
10004bfc:	683b      	ldr	r3, [r7, #0]
10004bfe:	2b00      	cmp	r3, #0
10004c00:	d001      	beq.n	10004c06 <stdio_put_string+0x76>
10004c02:	42a3      	cmp	r3, r4
10004c04:	d1f4      	bne.n	10004bf0 <stdio_put_string+0x60>
10004c06:	0020      	movs	r0, r4
10004c08:	002a      	movs	r2, r5
10004c0a:	0031      	movs	r1, r6
10004c0c:	47c0      	blx	r8
10004c0e:	6924      	ldr	r4, [r4, #16]
10004c10:	2c00      	cmp	r4, #0
10004c12:	d1f0      	bne.n	10004bf6 <stdio_put_string+0x66>
10004c14:	9b01      	ldr	r3, [sp, #4]
10004c16:	2b00      	cmp	r3, #0
10004c18:	d128      	bne.n	10004c6c <stdio_put_string+0xdc>
10004c1a:	0028      	movs	r0, r5
10004c1c:	b005      	add	sp, #20
10004c1e:	bcf0      	pop	{r4, r5, r6, r7}
10004c20:	46bb      	mov	fp, r7
10004c22:	46b2      	mov	sl, r6
10004c24:	46a9      	mov	r9, r5
10004c26:	46a0      	mov	r8, r4
10004c28:	bdf0      	pop	{r4, r5, r6, r7, pc}
10004c2a:	4b18      	ldr	r3, [pc, #96]	@ (10004c8c <stdio_put_string+0xfc>)
10004c2c:	4698      	mov	r8, r3
10004c2e:	e7d7      	b.n	10004be0 <stdio_put_string+0x50>
10004c30:	4b15      	ldr	r3, [pc, #84]	@ (10004c88 <stdio_put_string+0xf8>)
10004c32:	4699      	mov	r9, r3
10004c34:	ab02      	add	r3, sp, #8
10004c36:	1ddf      	adds	r7, r3, #7
10004c38:	230a      	movs	r3, #10
10004c3a:	469b      	mov	fp, r3
10004c3c:	e002      	b.n	10004c44 <stdio_put_string+0xb4>
10004c3e:	6924      	ldr	r4, [r4, #16]
10004c40:	2c00      	cmp	r4, #0
10004c42:	d0e7      	beq.n	10004c14 <stdio_put_string+0x84>
10004c44:	6823      	ldr	r3, [r4, #0]
10004c46:	2b00      	cmp	r3, #0
10004c48:	d0f9      	beq.n	10004c3e <stdio_put_string+0xae>
10004c4a:	464b      	mov	r3, r9
10004c4c:	681b      	ldr	r3, [r3, #0]
10004c4e:	2b00      	cmp	r3, #0
10004c50:	d001      	beq.n	10004c56 <stdio_put_string+0xc6>
10004c52:	42a3      	cmp	r3, r4
10004c54:	d1f3      	bne.n	10004c3e <stdio_put_string+0xae>
10004c56:	002a      	movs	r2, r5
10004c58:	0031      	movs	r1, r6
10004c5a:	0020      	movs	r0, r4
10004c5c:	47c0      	blx	r8
10004c5e:	465b      	mov	r3, fp
10004c60:	2201      	movs	r2, #1
10004c62:	0039      	movs	r1, r7
10004c64:	0020      	movs	r0, r4
10004c66:	703b      	strb	r3, [r7, #0]
10004c68:	47c0      	blx	r8
10004c6a:	e7e8      	b.n	10004c3e <stdio_put_string+0xae>
10004c6c:	4650      	mov	r0, sl
10004c6e:	f005 fc6f 	bl	1000a550 <__mutex_exit_veneer>
10004c72:	e7d2      	b.n	10004c1a <stdio_put_string+0x8a>
10004c74:	000f4240 	.word	0x000f4240
10004c78:	7fffffff 	.word	0x7fffffff
10004c7c:	20000890 	.word	0x20000890
10004c80:	10004a99 	.word	0x10004a99
10004c84:	20000e48 	.word	0x20000e48
10004c88:	20000e50 	.word	0x20000e50
10004c8c:	10004a89 	.word	0x10004a89

10004c90 <stdio_init_all>:
10004c90:	2000      	movs	r0, #0
10004c92:	4770      	bx	lr

10004c94 <stdio_getchar_timeout_us>:
10004c94:	b5f0      	push	{r4, r5, r6, r7, lr}
10004c96:	46ce      	mov	lr, r9
10004c98:	4647      	mov	r7, r8
10004c9a:	0004      	movs	r4, r0
10004c9c:	b580      	push	{r7, lr}
10004c9e:	b083      	sub	sp, #12
10004ca0:	f7fc ff1a 	bl	10001ad8 <time_us_64>
10004ca4:	0026      	movs	r6, r4
10004ca6:	2700      	movs	r7, #0
10004ca8:	2380      	movs	r3, #128	@ 0x80
10004caa:	1836      	adds	r6, r6, r0
10004cac:	414f      	adcs	r7, r1
10004cae:	061b      	lsls	r3, r3, #24
10004cb0:	429f      	cmp	r7, r3
10004cb2:	d302      	bcc.n	10004cba <stdio_getchar_timeout_us+0x26>
10004cb4:	2601      	movs	r6, #1
10004cb6:	4f19      	ldr	r7, [pc, #100]	@ (10004d1c <stdio_getchar_timeout_us+0x88>)
10004cb8:	4276      	negs	r6, r6
10004cba:	4b19      	ldr	r3, [pc, #100]	@ (10004d20 <stdio_getchar_timeout_us+0x8c>)
10004cbc:	46b9      	mov	r9, r7
10004cbe:	4698      	mov	r8, r3
10004cc0:	4d18      	ldr	r5, [pc, #96]	@ (10004d24 <stdio_getchar_timeout_us+0x90>)
10004cc2:	4643      	mov	r3, r8
10004cc4:	681c      	ldr	r4, [r3, #0]
10004cc6:	2c00      	cmp	r4, #0
10004cc8:	d103      	bne.n	10004cd2 <stdio_getchar_timeout_us+0x3e>
10004cca:	e016      	b.n	10004cfa <stdio_getchar_timeout_us+0x66>
10004ccc:	6924      	ldr	r4, [r4, #16]
10004cce:	2c00      	cmp	r4, #0
10004cd0:	d013      	beq.n	10004cfa <stdio_getchar_timeout_us+0x66>
10004cd2:	682b      	ldr	r3, [r5, #0]
10004cd4:	2b00      	cmp	r3, #0
10004cd6:	d001      	beq.n	10004cdc <stdio_getchar_timeout_us+0x48>
10004cd8:	42a3      	cmp	r3, r4
10004cda:	d1f7      	bne.n	10004ccc <stdio_getchar_timeout_us+0x38>
10004cdc:	68a3      	ldr	r3, [r4, #8]
10004cde:	2b00      	cmp	r3, #0
10004ce0:	d0f4      	beq.n	10004ccc <stdio_getchar_timeout_us+0x38>
10004ce2:	2101      	movs	r1, #1
10004ce4:	a801      	add	r0, sp, #4
10004ce6:	4798      	blx	r3
10004ce8:	2800      	cmp	r0, #0
10004cea:	ddef      	ble.n	10004ccc <stdio_getchar_timeout_us+0x38>
10004cec:	466b      	mov	r3, sp
10004cee:	7918      	ldrb	r0, [r3, #4]
10004cf0:	b003      	add	sp, #12
10004cf2:	bcc0      	pop	{r6, r7}
10004cf4:	46b9      	mov	r9, r7
10004cf6:	46b0      	mov	r8, r6
10004cf8:	bdf0      	pop	{r4, r5, r6, r7, pc}
10004cfa:	4b0b      	ldr	r3, [pc, #44]	@ (10004d28 <stdio_getchar_timeout_us+0x94>)
10004cfc:	6a5a      	ldr	r2, [r3, #36]	@ 0x24
10004cfe:	4591      	cmp	r9, r2
10004d00:	d807      	bhi.n	10004d12 <stdio_getchar_timeout_us+0x7e>
10004d02:	6a9b      	ldr	r3, [r3, #40]	@ 0x28
10004d04:	42b3      	cmp	r3, r6
10004d06:	d302      	bcc.n	10004d0e <stdio_getchar_timeout_us+0x7a>
10004d08:	2002      	movs	r0, #2
10004d0a:	4240      	negs	r0, r0
10004d0c:	e7f0      	b.n	10004cf0 <stdio_getchar_timeout_us+0x5c>
10004d0e:	4591      	cmp	r9, r2
10004d10:	d1fa      	bne.n	10004d08 <stdio_getchar_timeout_us+0x74>
10004d12:	2001      	movs	r0, #1
10004d14:	2100      	movs	r1, #0
10004d16:	f7fc fee9 	bl	10001aec <busy_wait_us>
10004d1a:	e7d2      	b.n	10004cc2 <stdio_getchar_timeout_us+0x2e>
10004d1c:	7fffffff 	.word	0x7fffffff
10004d20:	20000e48 	.word	0x20000e48
10004d24:	20000e50 	.word	0x20000e50
10004d28:	40054000 	.word	0x40054000

10004d2c <__wrap_putchar>:
10004d2c:	b5f0      	push	{r4, r5, r6, r7, lr}
10004d2e:	46ce      	mov	lr, r9
10004d30:	4647      	mov	r7, r8
10004d32:	b580      	push	{r7, lr}
10004d34:	b083      	sub	sp, #12
10004d36:	466b      	mov	r3, sp
10004d38:	0006      	movs	r6, r0
10004d3a:	1ddd      	adds	r5, r3, #7
10004d3c:	7028      	strb	r0, [r5, #0]
10004d3e:	f7fc fecb 	bl	10001ad8 <time_us_64>
10004d42:	2300      	movs	r3, #0
10004d44:	4a1a      	ldr	r2, [pc, #104]	@ (10004db0 <__wrap_putchar+0x84>)
10004d46:	1812      	adds	r2, r2, r0
10004d48:	414b      	adcs	r3, r1
10004d4a:	2180      	movs	r1, #128	@ 0x80
10004d4c:	0609      	lsls	r1, r1, #24
10004d4e:	428b      	cmp	r3, r1
10004d50:	d302      	bcc.n	10004d58 <__wrap_putchar+0x2c>
10004d52:	2201      	movs	r2, #1
10004d54:	4b17      	ldr	r3, [pc, #92]	@ (10004db4 <__wrap_putchar+0x88>)
10004d56:	4252      	negs	r2, r2
10004d58:	4917      	ldr	r1, [pc, #92]	@ (10004db8 <__wrap_putchar+0x8c>)
10004d5a:	0008      	movs	r0, r1
10004d5c:	4688      	mov	r8, r1
10004d5e:	f005 fc0f 	bl	1000a580 <__mutex_try_enter_block_until_veneer>
10004d62:	4b16      	ldr	r3, [pc, #88]	@ (10004dbc <__wrap_putchar+0x90>)
10004d64:	4681      	mov	r9, r0
10004d66:	681c      	ldr	r4, [r3, #0]
10004d68:	2c00      	cmp	r4, #0
10004d6a:	d014      	beq.n	10004d96 <__wrap_putchar+0x6a>
10004d6c:	4f14      	ldr	r7, [pc, #80]	@ (10004dc0 <__wrap_putchar+0x94>)
10004d6e:	e002      	b.n	10004d76 <__wrap_putchar+0x4a>
10004d70:	6924      	ldr	r4, [r4, #16]
10004d72:	2c00      	cmp	r4, #0
10004d74:	d00f      	beq.n	10004d96 <__wrap_putchar+0x6a>
10004d76:	6823      	ldr	r3, [r4, #0]
10004d78:	2b00      	cmp	r3, #0
10004d7a:	d0f9      	beq.n	10004d70 <__wrap_putchar+0x44>
10004d7c:	683b      	ldr	r3, [r7, #0]
10004d7e:	2b00      	cmp	r3, #0
10004d80:	d001      	beq.n	10004d86 <__wrap_putchar+0x5a>
10004d82:	42a3      	cmp	r3, r4
10004d84:	d1f4      	bne.n	10004d70 <__wrap_putchar+0x44>
10004d86:	0020      	movs	r0, r4
10004d88:	2201      	movs	r2, #1
10004d8a:	0029      	movs	r1, r5
10004d8c:	f7ff fe84 	bl	10004a98 <stdio_out_chars_crlf>
10004d90:	6924      	ldr	r4, [r4, #16]
10004d92:	2c00      	cmp	r4, #0
10004d94:	d1ef      	bne.n	10004d76 <__wrap_putchar+0x4a>
10004d96:	464b      	mov	r3, r9
10004d98:	2b00      	cmp	r3, #0
10004d9a:	d105      	bne.n	10004da8 <__wrap_putchar+0x7c>
10004d9c:	0030      	movs	r0, r6
10004d9e:	b003      	add	sp, #12
10004da0:	bcc0      	pop	{r6, r7}
10004da2:	46b9      	mov	r9, r7
10004da4:	46b0      	mov	r8, r6
10004da6:	bdf0      	pop	{r4, r5, r6, r7, pc}
10004da8:	4640      	mov	r0, r8
10004daa:	f005 fbd1 	bl	1000a550 <__mutex_exit_veneer>
10004dae:	e7f5      	b.n	10004d9c <__wrap_putchar+0x70>
10004db0:	000f4240 	.word	0x000f4240
10004db4:	7fffffff 	.word	0x7fffffff
10004db8:	20000890 	.word	0x20000890
10004dbc:	20000e48 	.word	0x20000e48
10004dc0:	20000e50 	.word	0x20000e50

10004dc4 <__wrap_puts>:
10004dc4:	b570      	push	{r4, r5, r6, lr}
10004dc6:	0004      	movs	r4, r0
10004dc8:	f002 f94a 	bl	10007060 <strlen>
10004dcc:	2301      	movs	r3, #1
10004dce:	0001      	movs	r1, r0
10004dd0:	0005      	movs	r5, r0
10004dd2:	2201      	movs	r2, #1
10004dd4:	0020      	movs	r0, r4
10004dd6:	f7ff fedb 	bl	10004b90 <stdio_put_string>
10004dda:	4b08      	ldr	r3, [pc, #32]	@ (10004dfc <__wrap_puts+0x38>)
10004ddc:	681c      	ldr	r4, [r3, #0]
10004dde:	2c00      	cmp	r4, #0
10004de0:	d006      	beq.n	10004df0 <__wrap_puts+0x2c>
10004de2:	6863      	ldr	r3, [r4, #4]
10004de4:	2b00      	cmp	r3, #0
10004de6:	d005      	beq.n	10004df4 <__wrap_puts+0x30>
10004de8:	4798      	blx	r3
10004dea:	6924      	ldr	r4, [r4, #16]
10004dec:	2c00      	cmp	r4, #0
10004dee:	d1f8      	bne.n	10004de2 <__wrap_puts+0x1e>
10004df0:	0028      	movs	r0, r5
10004df2:	bd70      	pop	{r4, r5, r6, pc}
10004df4:	6924      	ldr	r4, [r4, #16]
10004df6:	2c00      	cmp	r4, #0
10004df8:	d1f3      	bne.n	10004de2 <__wrap_puts+0x1e>
10004dfa:	e7f9      	b.n	10004df0 <__wrap_puts+0x2c>
10004dfc:	20000e48 	.word	0x20000e48

10004e00 <__wrap_vprintf>:
10004e00:	b5f0      	push	{r4, r5, r6, r7, lr}
10004e02:	46ce      	mov	lr, r9
10004e04:	4647      	mov	r7, r8
10004e06:	b580      	push	{r7, lr}
10004e08:	b0a3      	sub	sp, #140	@ 0x8c
10004e0a:	0004      	movs	r4, r0
10004e0c:	000d      	movs	r5, r1
10004e0e:	f7fc fe63 	bl	10001ad8 <time_us_64>
10004e12:	2300      	movs	r3, #0
10004e14:	4a29      	ldr	r2, [pc, #164]	@ (10004ebc <__wrap_vprintf+0xbc>)
10004e16:	1812      	adds	r2, r2, r0
10004e18:	414b      	adcs	r3, r1
10004e1a:	2180      	movs	r1, #128	@ 0x80
10004e1c:	0609      	lsls	r1, r1, #24
10004e1e:	428b      	cmp	r3, r1
10004e20:	d302      	bcc.n	10004e28 <__wrap_vprintf+0x28>
10004e22:	2201      	movs	r2, #1
10004e24:	4b26      	ldr	r3, [pc, #152]	@ (10004ec0 <__wrap_vprintf+0xc0>)
10004e26:	4252      	negs	r2, r2
10004e28:	4f26      	ldr	r7, [pc, #152]	@ (10004ec4 <__wrap_vprintf+0xc4>)
10004e2a:	0038      	movs	r0, r7
10004e2c:	f005 fba8 	bl	1000a580 <__mutex_try_enter_block_until_veneer>
10004e30:	2300      	movs	r3, #0
10004e32:	0006      	movs	r6, r0
10004e34:	9301      	str	r3, [sp, #4]
10004e36:	0022      	movs	r2, r4
10004e38:	002b      	movs	r3, r5
10004e3a:	4823      	ldr	r0, [pc, #140]	@ (10004ec8 <__wrap_vprintf+0xc8>)
10004e3c:	a901      	add	r1, sp, #4
10004e3e:	f7ff fd89 	bl	10004954 <vfctprintf>
10004e42:	9b01      	ldr	r3, [sp, #4]
10004e44:	4680      	mov	r8, r0
10004e46:	2b00      	cmp	r3, #0
10004e48:	d114      	bne.n	10004e74 <__wrap_vprintf+0x74>
10004e4a:	4b20      	ldr	r3, [pc, #128]	@ (10004ecc <__wrap_vprintf+0xcc>)
10004e4c:	681c      	ldr	r4, [r3, #0]
10004e4e:	2c00      	cmp	r4, #0
10004e50:	d006      	beq.n	10004e60 <__wrap_vprintf+0x60>
10004e52:	6863      	ldr	r3, [r4, #4]
10004e54:	2b00      	cmp	r3, #0
10004e56:	d00b      	beq.n	10004e70 <__wrap_vprintf+0x70>
10004e58:	4798      	blx	r3
10004e5a:	6924      	ldr	r4, [r4, #16]
10004e5c:	2c00      	cmp	r4, #0
10004e5e:	d1f8      	bne.n	10004e52 <__wrap_vprintf+0x52>
10004e60:	2e00      	cmp	r6, #0
10004e62:	d125      	bne.n	10004eb0 <__wrap_vprintf+0xb0>
10004e64:	4640      	mov	r0, r8
10004e66:	b023      	add	sp, #140	@ 0x8c
10004e68:	bcc0      	pop	{r6, r7}
10004e6a:	46b9      	mov	r9, r7
10004e6c:	46b0      	mov	r8, r6
10004e6e:	bdf0      	pop	{r4, r5, r6, r7, pc}
10004e70:	6924      	ldr	r4, [r4, #16]
10004e72:	e7ec      	b.n	10004e4e <__wrap_vprintf+0x4e>
10004e74:	4b15      	ldr	r3, [pc, #84]	@ (10004ecc <__wrap_vprintf+0xcc>)
10004e76:	681d      	ldr	r5, [r3, #0]
10004e78:	4699      	mov	r9, r3
10004e7a:	2d00      	cmp	r5, #0
10004e7c:	d01c      	beq.n	10004eb8 <__wrap_vprintf+0xb8>
10004e7e:	4c14      	ldr	r4, [pc, #80]	@ (10004ed0 <__wrap_vprintf+0xd0>)
10004e80:	e002      	b.n	10004e88 <__wrap_vprintf+0x88>
10004e82:	692d      	ldr	r5, [r5, #16]
10004e84:	2d00      	cmp	r5, #0
10004e86:	d00f      	beq.n	10004ea8 <__wrap_vprintf+0xa8>
10004e88:	682b      	ldr	r3, [r5, #0]
10004e8a:	2b00      	cmp	r3, #0
10004e8c:	d0f9      	beq.n	10004e82 <__wrap_vprintf+0x82>
10004e8e:	6823      	ldr	r3, [r4, #0]
10004e90:	2b00      	cmp	r3, #0
10004e92:	d001      	beq.n	10004e98 <__wrap_vprintf+0x98>
10004e94:	42ab      	cmp	r3, r5
10004e96:	d1f4      	bne.n	10004e82 <__wrap_vprintf+0x82>
10004e98:	0028      	movs	r0, r5
10004e9a:	9a01      	ldr	r2, [sp, #4]
10004e9c:	a902      	add	r1, sp, #8
10004e9e:	f7ff fdfb 	bl	10004a98 <stdio_out_chars_crlf>
10004ea2:	692d      	ldr	r5, [r5, #16]
10004ea4:	2d00      	cmp	r5, #0
10004ea6:	d1ef      	bne.n	10004e88 <__wrap_vprintf+0x88>
10004ea8:	464b      	mov	r3, r9
10004eaa:	9501      	str	r5, [sp, #4]
10004eac:	681c      	ldr	r4, [r3, #0]
10004eae:	e7ce      	b.n	10004e4e <__wrap_vprintf+0x4e>
10004eb0:	0038      	movs	r0, r7
10004eb2:	f005 fb4d 	bl	1000a550 <__mutex_exit_veneer>
10004eb6:	e7d5      	b.n	10004e64 <__wrap_vprintf+0x64>
10004eb8:	9501      	str	r5, [sp, #4]
10004eba:	e7d1      	b.n	10004e60 <__wrap_vprintf+0x60>
10004ebc:	000f4240 	.word	0x000f4240
10004ec0:	7fffffff 	.word	0x7fffffff
10004ec4:	20000890 	.word	0x20000890
10004ec8:	10004b2d 	.word	0x10004b2d
10004ecc:	20000e48 	.word	0x20000e48
10004ed0:	20000e50 	.word	0x20000e50

10004ed4 <__wrap_printf>:
10004ed4:	b40f      	push	{r0, r1, r2, r3}
10004ed6:	b500      	push	{lr}
10004ed8:	b083      	sub	sp, #12
10004eda:	a904      	add	r1, sp, #16
10004edc:	c901      	ldmia	r1!, {r0}
10004ede:	9101      	str	r1, [sp, #4]
10004ee0:	f7ff ff8e 	bl	10004e00 <__wrap_vprintf>
10004ee4:	b003      	add	sp, #12
10004ee6:	bc08      	pop	{r3}
10004ee8:	b004      	add	sp, #16
10004eea:	4718      	bx	r3

10004eec <strncmp>:
10004eec:	b530      	push	{r4, r5, lr}
10004eee:	2a00      	cmp	r2, #0
10004ef0:	d028      	beq.n	10004f44 <strncmp+0x58>
10004ef2:	0003      	movs	r3, r0
10004ef4:	430b      	orrs	r3, r1
10004ef6:	079b      	lsls	r3, r3, #30
10004ef8:	d113      	bne.n	10004f22 <strncmp+0x36>
10004efa:	2a03      	cmp	r2, #3
10004efc:	d911      	bls.n	10004f22 <strncmp+0x36>
10004efe:	4d13      	ldr	r5, [pc, #76]	@ (10004f4c <strncmp+0x60>)
10004f00:	e00b      	b.n	10004f1a <strncmp+0x2e>
10004f02:	3a04      	subs	r2, #4
10004f04:	2a00      	cmp	r2, #0
10004f06:	d01d      	beq.n	10004f44 <strncmp+0x58>
10004f08:	4c11      	ldr	r4, [pc, #68]	@ (10004f50 <strncmp+0x64>)
10004f0a:	191c      	adds	r4, r3, r4
10004f0c:	439c      	bics	r4, r3
10004f0e:	422c      	tst	r4, r5
10004f10:	d118      	bne.n	10004f44 <strncmp+0x58>
10004f12:	3004      	adds	r0, #4
10004f14:	3104      	adds	r1, #4
10004f16:	2a03      	cmp	r2, #3
10004f18:	d903      	bls.n	10004f22 <strncmp+0x36>
10004f1a:	6803      	ldr	r3, [r0, #0]
10004f1c:	680c      	ldr	r4, [r1, #0]
10004f1e:	42a3      	cmp	r3, r4
10004f20:	d0ef      	beq.n	10004f02 <strncmp+0x16>
10004f22:	7804      	ldrb	r4, [r0, #0]
10004f24:	780d      	ldrb	r5, [r1, #0]
10004f26:	42a5      	cmp	r5, r4
10004f28:	d10e      	bne.n	10004f48 <strncmp+0x5c>
10004f2a:	2a01      	cmp	r2, #1
10004f2c:	d00a      	beq.n	10004f44 <strncmp+0x58>
10004f2e:	2301      	movs	r3, #1
10004f30:	e006      	b.n	10004f40 <strncmp+0x54>
10004f32:	5cc4      	ldrb	r4, [r0, r3]
10004f34:	5ccd      	ldrb	r5, [r1, r3]
10004f36:	42ac      	cmp	r4, r5
10004f38:	d106      	bne.n	10004f48 <strncmp+0x5c>
10004f3a:	3301      	adds	r3, #1
10004f3c:	429a      	cmp	r2, r3
10004f3e:	d001      	beq.n	10004f44 <strncmp+0x58>
10004f40:	2c00      	cmp	r4, #0
10004f42:	d1f6      	bne.n	10004f32 <strncmp+0x46>
10004f44:	2000      	movs	r0, #0
10004f46:	bd30      	pop	{r4, r5, pc}
10004f48:	1b60      	subs	r0, r4, r5
10004f4a:	e7fc      	b.n	10004f46 <strncmp+0x5a>
10004f4c:	80808080 	.word	0x80808080
10004f50:	fefefeff 	.word	0xfefefeff

10004f54 <sscanf>:
10004f54:	b40e      	push	{r1, r2, r3}
10004f56:	b530      	push	{r4, r5, lr}
10004f58:	2381      	movs	r3, #129	@ 0x81
10004f5a:	b09c      	sub	sp, #112	@ 0x70
10004f5c:	466a      	mov	r2, sp
10004f5e:	ac1f      	add	r4, sp, #124	@ 0x7c
10004f60:	009b      	lsls	r3, r3, #2
10004f62:	cc20      	ldmia	r4!, {r5}
10004f64:	8293      	strh	r3, [r2, #20]
10004f66:	9002      	str	r0, [sp, #8]
10004f68:	9006      	str	r0, [sp, #24]
10004f6a:	f002 f879 	bl	10007060 <strlen>
10004f6e:	4b0b      	ldr	r3, [pc, #44]	@ (10004f9c <sscanf+0x48>)
10004f70:	466a      	mov	r2, sp
10004f72:	930a      	str	r3, [sp, #40]	@ 0x28
10004f74:	2300      	movs	r3, #0
10004f76:	930e      	str	r3, [sp, #56]	@ 0x38
10004f78:	9313      	str	r3, [sp, #76]	@ 0x4c
10004f7a:	3b01      	subs	r3, #1
10004f7c:	82d3      	strh	r3, [r2, #22]
10004f7e:	4b08      	ldr	r3, [pc, #32]	@ (10004fa0 <sscanf+0x4c>)
10004f80:	9003      	str	r0, [sp, #12]
10004f82:	9007      	str	r0, [sp, #28]
10004f84:	002a      	movs	r2, r5
10004f86:	6818      	ldr	r0, [r3, #0]
10004f88:	a902      	add	r1, sp, #8
10004f8a:	0023      	movs	r3, r4
10004f8c:	9401      	str	r4, [sp, #4]
10004f8e:	f000 f80b 	bl	10004fa8 <__ssvfscanf_r>
10004f92:	b01c      	add	sp, #112	@ 0x70
10004f94:	bc30      	pop	{r4, r5}
10004f96:	bc08      	pop	{r3}
10004f98:	b003      	add	sp, #12
10004f9a:	4718      	bx	r3
10004f9c:	10004fa5 	.word	0x10004fa5
10004fa0:	2000076c 	.word	0x2000076c

10004fa4 <__seofread>:
10004fa4:	2000      	movs	r0, #0
10004fa6:	4770      	bx	lr

10004fa8 <__ssvfscanf_r>:
10004fa8:	b5f0      	push	{r4, r5, r6, r7, lr}
10004faa:	4657      	mov	r7, sl
10004fac:	464e      	mov	r6, r9
10004fae:	46de      	mov	lr, fp
10004fb0:	4645      	mov	r5, r8
10004fb2:	b5e0      	push	{r5, r6, r7, lr}
10004fb4:	4c65      	ldr	r4, [pc, #404]	@ (1000514c <__ssvfscanf_r+0x1a4>)
10004fb6:	000e      	movs	r6, r1
10004fb8:	44a5      	add	sp, r4
10004fba:	af02      	add	r7, sp, #8
10004fbc:	63bb      	str	r3, [r7, #56]	@ 0x38
10004fbe:	65b8      	str	r0, [r7, #88]	@ 0x58
10004fc0:	65fa      	str	r2, [r7, #92]	@ 0x5c
10004fc2:	230c      	movs	r3, #12
10004fc4:	5eca      	ldrsh	r2, [r1, r3]
10004fc6:	2380      	movs	r3, #128	@ 0x80
10004fc8:	019b      	lsls	r3, r3, #6
10004fca:	421a      	tst	r2, r3
10004fcc:	d105      	bne.n	10004fda <__ssvfscanf_r+0x32>
10004fce:	4313      	orrs	r3, r2
10004fd0:	818b      	strh	r3, [r1, #12]
10004fd2:	4a5f      	ldr	r2, [pc, #380]	@ (10005150 <__ssvfscanf_r+0x1a8>)
10004fd4:	6e4b      	ldr	r3, [r1, #100]	@ 0x64
10004fd6:	4013      	ands	r3, r2
10004fd8:	664b      	str	r3, [r1, #100]	@ 0x64
10004fda:	2060      	movs	r0, #96	@ 0x60
10004fdc:	2308      	movs	r3, #8
10004fde:	181b      	adds	r3, r3, r0
10004fe0:	19d8      	adds	r0, r3, r7
10004fe2:	2208      	movs	r2, #8
10004fe4:	2100      	movs	r1, #0
10004fe6:	f7fe f911 	bl	1000320c <__wrap_memset>
10004fea:	2300      	movs	r3, #0
10004fec:	469a      	mov	sl, r3
10004fee:	627b      	str	r3, [r7, #36]	@ 0x24
10004ff0:	64fb      	str	r3, [r7, #76]	@ 0x4c
10004ff2:	623b      	str	r3, [r7, #32]
10004ff4:	647b      	str	r3, [r7, #68]	@ 0x44
10004ff6:	64bb      	str	r3, [r7, #72]	@ 0x48
10004ff8:	4b56      	ldr	r3, [pc, #344]	@ (10005154 <__ssvfscanf_r+0x1ac>)
10004ffa:	653b      	str	r3, [r7, #80]	@ 0x50
10004ffc:	4b56      	ldr	r3, [pc, #344]	@ (10005158 <__ssvfscanf_r+0x1b0>)
10004ffe:	63fb      	str	r3, [r7, #60]	@ 0x3c
10005000:	4b56      	ldr	r3, [pc, #344]	@ (1000515c <__ssvfscanf_r+0x1b4>)
10005002:	62fb      	str	r3, [r7, #44]	@ 0x2c
10005004:	4653      	mov	r3, sl
10005006:	657b      	str	r3, [r7, #84]	@ 0x54
10005008:	23e4      	movs	r3, #228	@ 0xe4
1000500a:	6d3a      	ldr	r2, [r7, #80]	@ 0x50
1000500c:	58d4      	ldr	r4, [r2, r3]
1000500e:	f001 ff59 	bl	10006ec4 <__locale_mb_cur_max>
10005012:	2160      	movs	r1, #96	@ 0x60
10005014:	2208      	movs	r2, #8
10005016:	1852      	adds	r2, r2, r1
10005018:	19d2      	adds	r2, r2, r7
1000501a:	9200      	str	r2, [sp, #0]
1000501c:	3104      	adds	r1, #4
1000501e:	0003      	movs	r3, r0
10005020:	6dfa      	ldr	r2, [r7, #92]	@ 0x5c
10005022:	6db8      	ldr	r0, [r7, #88]	@ 0x58
10005024:	1879      	adds	r1, r7, r1
10005026:	47a0      	blx	r4
10005028:	2800      	cmp	r0, #0
1000502a:	db27      	blt.n	1000507c <__ssvfscanf_r+0xd4>
1000502c:	6dfb      	ldr	r3, [r7, #92]	@ 0x5c
1000502e:	0005      	movs	r5, r0
10005030:	469c      	mov	ip, r3
10005032:	4484      	add	ip, r0
10005034:	4663      	mov	r3, ip
10005036:	65fb      	str	r3, [r7, #92]	@ 0x5c
10005038:	6e7b      	ldr	r3, [r7, #100]	@ 0x64
1000503a:	2b00      	cmp	r3, #0
1000503c:	d059      	beq.n	100050f2 <__ssvfscanf_r+0x14a>
1000503e:	2801      	cmp	r0, #1
10005040:	d02c      	beq.n	1000509c <__ssvfscanf_r+0xf4>
10005042:	2b25      	cmp	r3, #37	@ 0x25
10005044:	d034      	beq.n	100050b0 <__ssvfscanf_r+0x108>
10005046:	2800      	cmp	r0, #0
10005048:	d0de      	beq.n	10005008 <__ssvfscanf_r+0x60>
1000504a:	6d79      	ldr	r1, [r7, #84]	@ 0x54
1000504c:	6dfa      	ldr	r2, [r7, #92]	@ 0x5c
1000504e:	1844      	adds	r4, r0, r1
10005050:	46a0      	mov	r8, r4
10005052:	000c      	movs	r4, r1
10005054:	1a52      	subs	r2, r2, r1
10005056:	6873      	ldr	r3, [r6, #4]
10005058:	1b55      	subs	r5, r2, r5
1000505a:	2b00      	cmp	r3, #0
1000505c:	dd39      	ble.n	100050d2 <__ssvfscanf_r+0x12a>
1000505e:	6832      	ldr	r2, [r6, #0]
10005060:	5d2b      	ldrb	r3, [r5, r4]
10005062:	7811      	ldrb	r1, [r2, #0]
10005064:	4299      	cmp	r1, r3
10005066:	d144      	bne.n	100050f2 <__ssvfscanf_r+0x14a>
10005068:	6873      	ldr	r3, [r6, #4]
1000506a:	3201      	adds	r2, #1
1000506c:	3b01      	subs	r3, #1
1000506e:	3401      	adds	r4, #1
10005070:	6073      	str	r3, [r6, #4]
10005072:	6032      	str	r2, [r6, #0]
10005074:	4544      	cmp	r4, r8
10005076:	d1f0      	bne.n	1000505a <__ssvfscanf_r+0xb2>
10005078:	657c      	str	r4, [r7, #84]	@ 0x54
1000507a:	e7c5      	b.n	10005008 <__ssvfscanf_r+0x60>
1000507c:	4b38      	ldr	r3, [pc, #224]	@ (10005160 <__ssvfscanf_r+0x1b8>)
1000507e:	2060      	movs	r0, #96	@ 0x60
10005080:	667b      	str	r3, [r7, #100]	@ 0x64
10005082:	2308      	movs	r3, #8
10005084:	181b      	adds	r3, r3, r0
10005086:	19d8      	adds	r0, r3, r7
10005088:	2208      	movs	r2, #8
1000508a:	2100      	movs	r1, #0
1000508c:	f7fe f8be 	bl	1000320c <__wrap_memset>
10005090:	6dfb      	ldr	r3, [r7, #92]	@ 0x5c
10005092:	3301      	adds	r3, #1
10005094:	65fb      	str	r3, [r7, #92]	@ 0x5c
10005096:	6e7b      	ldr	r3, [r7, #100]	@ 0x64
10005098:	2b00      	cmp	r3, #0
1000509a:	d02a      	beq.n	100050f2 <__ssvfscanf_r+0x14a>
1000509c:	6afa      	ldr	r2, [r7, #44]	@ 0x2c
1000509e:	5cd2      	ldrb	r2, [r2, r3]
100050a0:	0712      	lsls	r2, r2, #28
100050a2:	d501      	bpl.n	100050a8 <__ssvfscanf_r+0x100>
100050a4:	f000 fdda 	bl	10005c5c <__ssvfscanf_r+0xcb4>
100050a8:	2501      	movs	r5, #1
100050aa:	2001      	movs	r0, #1
100050ac:	2b25      	cmp	r3, #37	@ 0x25
100050ae:	d1cc      	bne.n	1000504a <__ssvfscanf_r+0xa2>
100050b0:	6dfb      	ldr	r3, [r7, #92]	@ 0x5c
100050b2:	2400      	movs	r4, #0
100050b4:	781a      	ldrb	r2, [r3, #0]
100050b6:	2300      	movs	r3, #0
100050b8:	4684      	mov	ip, r0
100050ba:	469a      	mov	sl, r3
100050bc:	6dfb      	ldr	r3, [r7, #92]	@ 0x5c
100050be:	1c59      	adds	r1, r3, #1
100050c0:	0013      	movs	r3, r2
100050c2:	3b25      	subs	r3, #37	@ 0x25
100050c4:	b2db      	uxtb	r3, r3
100050c6:	2b55      	cmp	r3, #85	@ 0x55
100050c8:	d833      	bhi.n	10005132 <__ssvfscanf_r+0x18a>
100050ca:	6bf8      	ldr	r0, [r7, #60]	@ 0x3c
100050cc:	009b      	lsls	r3, r3, #2
100050ce:	58c3      	ldr	r3, [r0, r3]
100050d0:	469f      	mov	pc, r3
100050d2:	0031      	movs	r1, r6
100050d4:	6db8      	ldr	r0, [r7, #88]	@ 0x58
100050d6:	f004 fb97 	bl	10009808 <__ssrefill_r>
100050da:	2800      	cmp	r0, #0
100050dc:	d0bf      	beq.n	1000505e <__ssvfscanf_r+0xb6>
100050de:	6cbb      	ldr	r3, [r7, #72]	@ 0x48
100050e0:	2b00      	cmp	r3, #0
100050e2:	d101      	bne.n	100050e8 <__ssvfscanf_r+0x140>
100050e4:	f001 f967 	bl	100063b6 <__ssvfscanf_r+0x140e>
100050e8:	89b3      	ldrh	r3, [r6, #12]
100050ea:	065b      	lsls	r3, r3, #25
100050ec:	d501      	bpl.n	100050f2 <__ssvfscanf_r+0x14a>
100050ee:	f001 f962 	bl	100063b6 <__ssvfscanf_r+0x140e>
100050f2:	6cfb      	ldr	r3, [r7, #76]	@ 0x4c
100050f4:	2b00      	cmp	r3, #0
100050f6:	d005      	beq.n	10005104 <__ssvfscanf_r+0x15c>
100050f8:	6cfb      	ldr	r3, [r7, #76]	@ 0x4c
100050fa:	6818      	ldr	r0, [r3, #0]
100050fc:	2800      	cmp	r0, #0
100050fe:	d001      	beq.n	10005104 <__ssvfscanf_r+0x15c>
10005100:	f7fe f878 	bl	100031f4 <__wrap_free>
10005104:	46bd      	mov	sp, r7
10005106:	6cb8      	ldr	r0, [r7, #72]	@ 0x48
10005108:	23b9      	movs	r3, #185	@ 0xb9
1000510a:	009b      	lsls	r3, r3, #2
1000510c:	449d      	add	sp, r3
1000510e:	bcf0      	pop	{r4, r5, r6, r7}
10005110:	46bb      	mov	fp, r7
10005112:	46b2      	mov	sl, r6
10005114:	46a9      	mov	r9, r5
10005116:	46a0      	mov	r8, r4
10005118:	bdf0      	pop	{r4, r5, r6, r7, pc}
1000511a:	0723      	lsls	r3, r4, #28
1000511c:	d1e9      	bne.n	100050f2 <__ssvfscanf_r+0x14a>
1000511e:	6dfb      	ldr	r3, [r7, #92]	@ 0x5c
10005120:	65f9      	str	r1, [r7, #92]	@ 0x5c
10005122:	785a      	ldrb	r2, [r3, #1]
10005124:	6dfb      	ldr	r3, [r7, #92]	@ 0x5c
10005126:	1c59      	adds	r1, r3, #1
10005128:	0013      	movs	r3, r2
1000512a:	3b25      	subs	r3, #37	@ 0x25
1000512c:	b2db      	uxtb	r3, r3
1000512e:	2b55      	cmp	r3, #85	@ 0x55
10005130:	d9cb      	bls.n	100050ca <__ssvfscanf_r+0x122>
10005132:	6cfb      	ldr	r3, [r7, #76]	@ 0x4c
10005134:	2b00      	cmp	r3, #0
10005136:	d1e0      	bne.n	100050fa <__ssvfscanf_r+0x152>
10005138:	e7e4      	b.n	10005104 <__ssvfscanf_r+0x15c>
1000513a:	0723      	lsls	r3, r4, #28
1000513c:	d1d9      	bne.n	100050f2 <__ssvfscanf_r+0x14a>
1000513e:	2302      	movs	r3, #2
10005140:	431c      	orrs	r4, r3
10005142:	6dfb      	ldr	r3, [r7, #92]	@ 0x5c
10005144:	65f9      	str	r1, [r7, #92]	@ 0x5c
10005146:	785a      	ldrb	r2, [r3, #1]
10005148:	e7b8      	b.n	100050bc <__ssvfscanf_r+0x114>
1000514a:	46c0      	nop			@ (mov r8, r8)
1000514c:	fffffd14 	.word	0xfffffd14
10005150:	ffffdfff 	.word	0xffffdfff
10005154:	20000600 	.word	0x20000600
10005158:	1000b23c 	.word	0x1000b23c
1000515c:	1000b675 	.word	0x1000b675
10005160:	0000fffd 	.word	0x0000fffd
10005164:	2301      	movs	r3, #1
10005166:	431c      	orrs	r4, r3
10005168:	2340      	movs	r3, #64	@ 0x40
1000516a:	2500      	movs	r5, #0
1000516c:	431c      	orrs	r4, r3
1000516e:	65f9      	str	r1, [r7, #92]	@ 0x5c
10005170:	6873      	ldr	r3, [r6, #4]
10005172:	2b00      	cmp	r3, #0
10005174:	dc00      	bgt.n	10005178 <__ssvfscanf_r+0x1d0>
10005176:	e0df      	b.n	10005338 <__ssvfscanf_r+0x390>
10005178:	0663      	lsls	r3, r4, #25
1000517a:	d400      	bmi.n	1000517e <__ssvfscanf_r+0x1d6>
1000517c:	e0e6      	b.n	1000534c <__ssvfscanf_r+0x3a4>
1000517e:	2d03      	cmp	r5, #3
10005180:	d100      	bne.n	10005184 <__ssvfscanf_r+0x1dc>
10005182:	e111      	b.n	100053a8 <__ssvfscanf_r+0x400>
10005184:	2d04      	cmp	r5, #4
10005186:	d100      	bne.n	1000518a <__ssvfscanf_r+0x1e2>
10005188:	e2f4      	b.n	10005774 <__ssvfscanf_r+0x7cc>
1000518a:	2d01      	cmp	r5, #1
1000518c:	d100      	bne.n	10005190 <__ssvfscanf_r+0x1e8>
1000518e:	e21a      	b.n	100055c6 <__ssvfscanf_r+0x61e>
10005190:	2d02      	cmp	r5, #2
10005192:	d000      	beq.n	10005196 <__ssvfscanf_r+0x1ee>
10005194:	e146      	b.n	10005424 <__ssvfscanf_r+0x47c>
10005196:	4653      	mov	r3, sl
10005198:	2b00      	cmp	r3, #0
1000519a:	d101      	bne.n	100051a0 <__ssvfscanf_r+0x1f8>
1000519c:	3b01      	subs	r3, #1
1000519e:	469a      	mov	sl, r3
100051a0:	2310      	movs	r3, #16
100051a2:	4023      	ands	r3, r4
100051a4:	001a      	movs	r2, r3
100051a6:	637b      	str	r3, [r7, #52]	@ 0x34
100051a8:	07e3      	lsls	r3, r4, #31
100051aa:	d401      	bmi.n	100051b0 <__ssvfscanf_r+0x208>
100051ac:	f000 fd73 	bl	10005c96 <__ssvfscanf_r+0xcee>
100051b0:	2a00      	cmp	r2, #0
100051b2:	d001      	beq.n	100051b8 <__ssvfscanf_r+0x210>
100051b4:	f000 ff3b 	bl	1000602e <__ssvfscanf_r+0x1086>
100051b8:	6bbb      	ldr	r3, [r7, #56]	@ 0x38
100051ba:	cb04      	ldmia	r3!, {r2}
100051bc:	4693      	mov	fp, r2
100051be:	4698      	mov	r8, r3
100051c0:	0624      	lsls	r4, r4, #24
100051c2:	d401      	bmi.n	100051c8 <__ssvfscanf_r+0x220>
100051c4:	f001 fa6f 	bl	100066a6 <__ssvfscanf_r+0x16fe>
100051c8:	2a00      	cmp	r2, #0
100051ca:	d100      	bne.n	100051ce <__ssvfscanf_r+0x226>
100051cc:	e791      	b.n	100050f2 <__ssvfscanf_r+0x14a>
100051ce:	2080      	movs	r0, #128	@ 0x80
100051d0:	f7fd ffec 	bl	100031ac <__wrap_malloc>
100051d4:	4681      	mov	r9, r0
100051d6:	2800      	cmp	r0, #0
100051d8:	d101      	bne.n	100051de <__ssvfscanf_r+0x236>
100051da:	f001 f8ec 	bl	100063b6 <__ssvfscanf_r+0x140e>
100051de:	465b      	mov	r3, fp
100051e0:	6018      	str	r0, [r3, #0]
100051e2:	6cfb      	ldr	r3, [r7, #76]	@ 0x4c
100051e4:	88da      	ldrh	r2, [r3, #6]
100051e6:	643a      	str	r2, [r7, #64]	@ 0x40
100051e8:	889c      	ldrh	r4, [r3, #4]
100051ea:	42a2      	cmp	r2, r4
100051ec:	d301      	bcc.n	100051f2 <__ssvfscanf_r+0x24a>
100051ee:	f001 f934 	bl	1000645a <__ssvfscanf_r+0x14b2>
100051f2:	6818      	ldr	r0, [r3, #0]
100051f4:	6c3a      	ldr	r2, [r7, #64]	@ 0x40
100051f6:	6cf9      	ldr	r1, [r7, #76]	@ 0x4c
100051f8:	1c53      	adds	r3, r2, #1
100051fa:	80cb      	strh	r3, [r1, #6]
100051fc:	465b      	mov	r3, fp
100051fe:	0095      	lsls	r5, r2, #2
10005200:	502b      	str	r3, [r5, r0]
10005202:	4643      	mov	r3, r8
10005204:	63bb      	str	r3, [r7, #56]	@ 0x38
10005206:	464b      	mov	r3, r9
10005208:	633b      	str	r3, [r7, #48]	@ 0x30
1000520a:	2320      	movs	r3, #32
1000520c:	643b      	str	r3, [r7, #64]	@ 0x40
1000520e:	6833      	ldr	r3, [r6, #0]
10005210:	4aa8      	ldr	r2, [pc, #672]	@ (100054b4 <__ssvfscanf_r+0x50c>)
10005212:	781b      	ldrb	r3, [r3, #0]
10005214:	5cd3      	ldrb	r3, [r2, r3]
10005216:	071b      	lsls	r3, r3, #28
10005218:	d46f      	bmi.n	100052fa <__ssvfscanf_r+0x352>
1000521a:	2500      	movs	r5, #0
1000521c:	603a      	str	r2, [r7, #0]
1000521e:	f001 fe51 	bl	10006ec4 <__locale_mb_cur_max>
10005222:	42a8      	cmp	r0, r5
10005224:	d100      	bne.n	10005228 <__ssvfscanf_r+0x280>
10005226:	e75a      	b.n	100050de <__ssvfscanf_r+0x136>
10005228:	2190      	movs	r1, #144	@ 0x90
1000522a:	0049      	lsls	r1, r1, #1
1000522c:	468c      	mov	ip, r1
1000522e:	39c0      	subs	r1, #192	@ 0xc0
10005230:	4688      	mov	r8, r1
10005232:	44b8      	add	r8, r7
10005234:	44c4      	add	ip, r8
10005236:	4661      	mov	r1, ip
10005238:	6833      	ldr	r3, [r6, #0]
1000523a:	1c6c      	adds	r4, r5, #1
1000523c:	781a      	ldrb	r2, [r3, #0]
1000523e:	3301      	adds	r3, #1
10005240:	554a      	strb	r2, [r1, r5]
10005242:	6872      	ldr	r2, [r6, #4]
10005244:	6033      	str	r3, [r6, #0]
10005246:	6a3b      	ldr	r3, [r7, #32]
10005248:	3a01      	subs	r2, #1
1000524a:	62b9      	str	r1, [r7, #40]	@ 0x28
1000524c:	6072      	str	r2, [r6, #4]
1000524e:	2b03      	cmp	r3, #3
10005250:	d001      	beq.n	10005256 <__ssvfscanf_r+0x2ae>
10005252:	f001 f95b 	bl	1000650c <__ssvfscanf_r+0x1564>
10005256:	2318      	movs	r3, #24
10005258:	2260      	movs	r2, #96	@ 0x60
1000525a:	189b      	adds	r3, r3, r2
1000525c:	19dd      	adds	r5, r3, r7
1000525e:	6fbb      	ldr	r3, [r7, #120]	@ 0x78
10005260:	2b04      	cmp	r3, #4
10005262:	d004      	beq.n	1000526e <__ssvfscanf_r+0x2c6>
10005264:	2208      	movs	r2, #8
10005266:	2100      	movs	r1, #0
10005268:	0028      	movs	r0, r5
1000526a:	f7fd ffcf 	bl	1000320c <__wrap_memset>
1000526e:	9500      	str	r5, [sp, #0]
10005270:	0023      	movs	r3, r4
10005272:	4649      	mov	r1, r9
10005274:	6aba      	ldr	r2, [r7, #40]	@ 0x28
10005276:	6db8      	ldr	r0, [r7, #88]	@ 0x58
10005278:	f001 fdf6 	bl	10006e68 <_mbrtowc_r>
1000527c:	6238      	str	r0, [r7, #32]
1000527e:	1c43      	adds	r3, r0, #1
10005280:	d100      	bne.n	10005284 <__ssvfscanf_r+0x2dc>
10005282:	e72c      	b.n	100050de <__ssvfscanf_r+0x136>
10005284:	2800      	cmp	r0, #0
10005286:	d001      	beq.n	1000528c <__ssvfscanf_r+0x2e4>
10005288:	f001 f9c7 	bl	1000661a <__ssvfscanf_r+0x1672>
1000528c:	464a      	mov	r2, r9
1000528e:	6010      	str	r0, [r2, #0]
10005290:	2000      	movs	r0, #0
10005292:	f004 f90b 	bl	100094ac <iswspace>
10005296:	2800      	cmp	r0, #0
10005298:	d001      	beq.n	1000529e <__ssvfscanf_r+0x2f6>
1000529a:	f001 fa7b 	bl	10006794 <__ssvfscanf_r+0x17ec>
1000529e:	6d7b      	ldr	r3, [r7, #84]	@ 0x54
100052a0:	469c      	mov	ip, r3
100052a2:	44a4      	add	ip, r4
100052a4:	4663      	mov	r3, ip
100052a6:	657b      	str	r3, [r7, #84]	@ 0x54
100052a8:	2301      	movs	r3, #1
100052aa:	425b      	negs	r3, r3
100052ac:	469c      	mov	ip, r3
100052ae:	44e2      	add	sl, ip
100052b0:	6b7b      	ldr	r3, [r7, #52]	@ 0x34
100052b2:	2b00      	cmp	r3, #0
100052b4:	d001      	beq.n	100052ba <__ssvfscanf_r+0x312>
100052b6:	f001 f9e5 	bl	10006684 <__ssvfscanf_r+0x16dc>
100052ba:	3304      	adds	r3, #4
100052bc:	469c      	mov	ip, r3
100052be:	465b      	mov	r3, fp
100052c0:	44e1      	add	r9, ip
100052c2:	2b00      	cmp	r3, #0
100052c4:	d101      	bne.n	100052ca <__ssvfscanf_r+0x322>
100052c6:	f001 f9dd 	bl	10006684 <__ssvfscanf_r+0x16dc>
100052ca:	464b      	mov	r3, r9
100052cc:	6b3a      	ldr	r2, [r7, #48]	@ 0x30
100052ce:	2500      	movs	r5, #0
100052d0:	1a9c      	subs	r4, r3, r2
100052d2:	6c3a      	ldr	r2, [r7, #64]	@ 0x40
100052d4:	10a3      	asrs	r3, r4, #2
100052d6:	4293      	cmp	r3, r2
100052d8:	d301      	bcc.n	100052de <__ssvfscanf_r+0x336>
100052da:	f001 fa7e 	bl	100067da <__ssvfscanf_r+0x1832>
100052de:	6873      	ldr	r3, [r6, #4]
100052e0:	2b00      	cmp	r3, #0
100052e2:	dc01      	bgt.n	100052e8 <__ssvfscanf_r+0x340>
100052e4:	f001 fa28 	bl	10006738 <__ssvfscanf_r+0x1790>
100052e8:	6833      	ldr	r3, [r6, #0]
100052ea:	683a      	ldr	r2, [r7, #0]
100052ec:	781b      	ldrb	r3, [r3, #0]
100052ee:	5cd3      	ldrb	r3, [r2, r3]
100052f0:	071b      	lsls	r3, r3, #28
100052f2:	d402      	bmi.n	100052fa <__ssvfscanf_r+0x352>
100052f4:	4653      	mov	r3, sl
100052f6:	2b00      	cmp	r3, #0
100052f8:	d191      	bne.n	1000521e <__ssvfscanf_r+0x276>
100052fa:	6b7b      	ldr	r3, [r7, #52]	@ 0x34
100052fc:	2b00      	cmp	r3, #0
100052fe:	d000      	beq.n	10005302 <__ssvfscanf_r+0x35a>
10005300:	e682      	b.n	10005008 <__ssvfscanf_r+0x60>
10005302:	464a      	mov	r2, r9
10005304:	6013      	str	r3, [r2, #0]
10005306:	465b      	mov	r3, fp
10005308:	2b00      	cmp	r3, #0
1000530a:	d009      	beq.n	10005320 <__ssvfscanf_r+0x378>
1000530c:	464b      	mov	r3, r9
1000530e:	6b3a      	ldr	r2, [r7, #48]	@ 0x30
10005310:	1a99      	subs	r1, r3, r2
10005312:	108b      	asrs	r3, r1, #2
10005314:	6c3a      	ldr	r2, [r7, #64]	@ 0x40
10005316:	3301      	adds	r3, #1
10005318:	429a      	cmp	r2, r3
1000531a:	d901      	bls.n	10005320 <__ssvfscanf_r+0x378>
1000531c:	f001 f94f 	bl	100065be <__ssvfscanf_r+0x1616>
10005320:	6cbb      	ldr	r3, [r7, #72]	@ 0x48
10005322:	3301      	adds	r3, #1
10005324:	64bb      	str	r3, [r7, #72]	@ 0x48
10005326:	e66f      	b.n	10005008 <__ssvfscanf_r+0x60>
10005328:	2301      	movs	r3, #1
1000532a:	431c      	orrs	r4, r3
1000532c:	6873      	ldr	r3, [r6, #4]
1000532e:	2502      	movs	r5, #2
10005330:	65f9      	str	r1, [r7, #92]	@ 0x5c
10005332:	2b00      	cmp	r3, #0
10005334:	dd00      	ble.n	10005338 <__ssvfscanf_r+0x390>
10005336:	e71f      	b.n	10005178 <__ssvfscanf_r+0x1d0>
10005338:	0031      	movs	r1, r6
1000533a:	6db8      	ldr	r0, [r7, #88]	@ 0x58
1000533c:	f004 fa64 	bl	10009808 <__ssrefill_r>
10005340:	2800      	cmp	r0, #0
10005342:	d000      	beq.n	10005346 <__ssvfscanf_r+0x39e>
10005344:	e6cb      	b.n	100050de <__ssvfscanf_r+0x136>
10005346:	0663      	lsls	r3, r4, #25
10005348:	d500      	bpl.n	1000534c <__ssvfscanf_r+0x3a4>
1000534a:	e718      	b.n	1000517e <__ssvfscanf_r+0x1d6>
1000534c:	6832      	ldr	r2, [r6, #0]
1000534e:	4959      	ldr	r1, [pc, #356]	@ (100054b4 <__ssvfscanf_r+0x50c>)
10005350:	7813      	ldrb	r3, [r2, #0]
10005352:	5ccb      	ldrb	r3, [r1, r3]
10005354:	071b      	lsls	r3, r3, #28
10005356:	d400      	bmi.n	1000535a <__ssvfscanf_r+0x3b2>
10005358:	e711      	b.n	1000517e <__ssvfscanf_r+0x1d6>
1000535a:	2308      	movs	r3, #8
1000535c:	46ab      	mov	fp, r5
1000535e:	46a0      	mov	r8, r4
10005360:	4699      	mov	r9, r3
10005362:	000d      	movs	r5, r1
10005364:	6d7c      	ldr	r4, [r7, #84]	@ 0x54
10005366:	e006      	b.n	10005376 <__ssvfscanf_r+0x3ce>
10005368:	4649      	mov	r1, r9
1000536a:	3201      	adds	r2, #1
1000536c:	6032      	str	r2, [r6, #0]
1000536e:	7813      	ldrb	r3, [r2, #0]
10005370:	5ceb      	ldrb	r3, [r5, r3]
10005372:	4219      	tst	r1, r3
10005374:	d012      	beq.n	1000539c <__ssvfscanf_r+0x3f4>
10005376:	6873      	ldr	r3, [r6, #4]
10005378:	3401      	adds	r4, #1
1000537a:	3b01      	subs	r3, #1
1000537c:	6073      	str	r3, [r6, #4]
1000537e:	2b00      	cmp	r3, #0
10005380:	dcf2      	bgt.n	10005368 <__ssvfscanf_r+0x3c0>
10005382:	0031      	movs	r1, r6
10005384:	6db8      	ldr	r0, [r7, #88]	@ 0x58
10005386:	f004 fa3f 	bl	10009808 <__ssrefill_r>
1000538a:	2800      	cmp	r0, #0
1000538c:	d000      	beq.n	10005390 <__ssvfscanf_r+0x3e8>
1000538e:	e6a6      	b.n	100050de <__ssvfscanf_r+0x136>
10005390:	4649      	mov	r1, r9
10005392:	6832      	ldr	r2, [r6, #0]
10005394:	7813      	ldrb	r3, [r2, #0]
10005396:	5ceb      	ldrb	r3, [r5, r3]
10005398:	4219      	tst	r1, r3
1000539a:	d1ec      	bne.n	10005376 <__ssvfscanf_r+0x3ce>
1000539c:	465d      	mov	r5, fp
1000539e:	657c      	str	r4, [r7, #84]	@ 0x54
100053a0:	4644      	mov	r4, r8
100053a2:	2d03      	cmp	r5, #3
100053a4:	d000      	beq.n	100053a8 <__ssvfscanf_r+0x400>
100053a6:	e6ed      	b.n	10005184 <__ssvfscanf_r+0x1dc>
100053a8:	23d8      	movs	r3, #216	@ 0xd8
100053aa:	011b      	lsls	r3, r3, #4
100053ac:	431c      	orrs	r4, r3
100053ae:	4653      	mov	r3, sl
100053b0:	22ae      	movs	r2, #174	@ 0xae
100053b2:	2100      	movs	r1, #0
100053b4:	3b01      	subs	r3, #1
100053b6:	468b      	mov	fp, r1
100053b8:	0052      	lsls	r2, r2, #1
100053ba:	4293      	cmp	r3, r2
100053bc:	d905      	bls.n	100053ca <__ssvfscanf_r+0x422>
100053be:	4b3e      	ldr	r3, [pc, #248]	@ (100054b8 <__ssvfscanf_r+0x510>)
100053c0:	4453      	add	r3, sl
100053c2:	469b      	mov	fp, r3
100053c4:	235e      	movs	r3, #94	@ 0x5e
100053c6:	33ff      	adds	r3, #255	@ 0xff
100053c8:	469a      	mov	sl, r3
100053ca:	2300      	movs	r3, #0
100053cc:	4699      	mov	r9, r3
100053ce:	3321      	adds	r3, #33	@ 0x21
100053d0:	33ff      	adds	r3, #255	@ 0xff
100053d2:	469c      	mov	ip, r3
100053d4:	3bc0      	subs	r3, #192	@ 0xc0
100053d6:	4698      	mov	r8, r3
100053d8:	44b8      	add	r8, r7
100053da:	44c4      	add	ip, r8
100053dc:	4663      	mov	r3, ip
100053de:	62bb      	str	r3, [r7, #40]	@ 0x28
100053e0:	4b36      	ldr	r3, [pc, #216]	@ (100054bc <__ssvfscanf_r+0x514>)
100053e2:	4655      	mov	r5, sl
100053e4:	4698      	mov	r8, r3
100053e6:	46e2      	mov	sl, ip
100053e8:	6832      	ldr	r2, [r6, #0]
100053ea:	7811      	ldrb	r1, [r2, #0]
100053ec:	000b      	movs	r3, r1
100053ee:	3b2b      	subs	r3, #43	@ 0x2b
100053f0:	b2db      	uxtb	r3, r3
100053f2:	2b4d      	cmp	r3, #77	@ 0x4d
100053f4:	d900      	bls.n	100053f8 <__ssvfscanf_r+0x450>
100053f6:	e3ad      	b.n	10005b54 <__ssvfscanf_r+0xbac>
100053f8:	4640      	mov	r0, r8
100053fa:	009b      	lsls	r3, r3, #2
100053fc:	58c3      	ldr	r3, [r0, r3]
100053fe:	469f      	mov	pc, r3
10005400:	2301      	movs	r3, #1
10005402:	431c      	orrs	r4, r3
10005404:	4b2e      	ldr	r3, [pc, #184]	@ (100054c0 <__ssvfscanf_r+0x518>)
10005406:	2503      	movs	r5, #3
10005408:	627b      	str	r3, [r7, #36]	@ 0x24
1000540a:	230a      	movs	r3, #10
1000540c:	65f9      	str	r1, [r7, #92]	@ 0x5c
1000540e:	647b      	str	r3, [r7, #68]	@ 0x44
10005410:	e6ae      	b.n	10005170 <__ssvfscanf_r+0x1c8>
10005412:	2301      	movs	r3, #1
10005414:	431c      	orrs	r4, r3
10005416:	4b2b      	ldr	r3, [pc, #172]	@ (100054c4 <__ssvfscanf_r+0x51c>)
10005418:	2503      	movs	r5, #3
1000541a:	627b      	str	r3, [r7, #36]	@ 0x24
1000541c:	2308      	movs	r3, #8
1000541e:	65f9      	str	r1, [r7, #92]	@ 0x5c
10005420:	647b      	str	r3, [r7, #68]	@ 0x44
10005422:	e6a5      	b.n	10005170 <__ssvfscanf_r+0x1c8>
10005424:	4653      	mov	r3, sl
10005426:	46d0      	mov	r8, sl
10005428:	2b00      	cmp	r3, #0
1000542a:	d101      	bne.n	10005430 <__ssvfscanf_r+0x488>
1000542c:	3301      	adds	r3, #1
1000542e:	4698      	mov	r8, r3
10005430:	2310      	movs	r3, #16
10005432:	4023      	ands	r3, r4
10005434:	469b      	mov	fp, r3
10005436:	07e3      	lsls	r3, r4, #31
10005438:	d401      	bmi.n	1000543e <__ssvfscanf_r+0x496>
1000543a:	f000 fc86 	bl	10005d4a <__ssvfscanf_r+0xda2>
1000543e:	465b      	mov	r3, fp
10005440:	2b00      	cmp	r3, #0
10005442:	d001      	beq.n	10005448 <__ssvfscanf_r+0x4a0>
10005444:	f000 fdcf 	bl	10005fe6 <__ssvfscanf_r+0x103e>
10005448:	6bbb      	ldr	r3, [r7, #56]	@ 0x38
1000544a:	cb04      	ldmia	r3!, {r2}
1000544c:	4699      	mov	r9, r3
1000544e:	63ba      	str	r2, [r7, #56]	@ 0x38
10005450:	0624      	lsls	r4, r4, #24
10005452:	d401      	bmi.n	10005458 <__ssvfscanf_r+0x4b0>
10005454:	f001 f91f 	bl	10006696 <__ssvfscanf_r+0x16ee>
10005458:	2a00      	cmp	r2, #0
1000545a:	d100      	bne.n	1000545e <__ssvfscanf_r+0x4b6>
1000545c:	e649      	b.n	100050f2 <__ssvfscanf_r+0x14a>
1000545e:	2080      	movs	r0, #128	@ 0x80
10005460:	f7fd fea4 	bl	100031ac <__wrap_malloc>
10005464:	4682      	mov	sl, r0
10005466:	2800      	cmp	r0, #0
10005468:	d101      	bne.n	1000546e <__ssvfscanf_r+0x4c6>
1000546a:	f000 ffa4 	bl	100063b6 <__ssvfscanf_r+0x140e>
1000546e:	6bbb      	ldr	r3, [r7, #56]	@ 0x38
10005470:	6cfa      	ldr	r2, [r7, #76]	@ 0x4c
10005472:	6018      	str	r0, [r3, #0]
10005474:	88d1      	ldrh	r1, [r2, #6]
10005476:	6439      	str	r1, [r7, #64]	@ 0x40
10005478:	8893      	ldrh	r3, [r2, #4]
1000547a:	4299      	cmp	r1, r3
1000547c:	d301      	bcc.n	10005482 <__ssvfscanf_r+0x4da>
1000547e:	f001 f80e 	bl	1000649e <__ssvfscanf_r+0x14f6>
10005482:	6810      	ldr	r0, [r2, #0]
10005484:	6c3a      	ldr	r2, [r7, #64]	@ 0x40
10005486:	6cf9      	ldr	r1, [r7, #76]	@ 0x4c
10005488:	1c53      	adds	r3, r2, #1
1000548a:	80cb      	strh	r3, [r1, #6]
1000548c:	0093      	lsls	r3, r2, #2
1000548e:	6bba      	ldr	r2, [r7, #56]	@ 0x38
10005490:	501a      	str	r2, [r3, r0]
10005492:	4653      	mov	r3, sl
10005494:	633b      	str	r3, [r7, #48]	@ 0x30
10005496:	2320      	movs	r3, #32
10005498:	637b      	str	r3, [r7, #52]	@ 0x34
1000549a:	2390      	movs	r3, #144	@ 0x90
1000549c:	2260      	movs	r2, #96	@ 0x60
1000549e:	005b      	lsls	r3, r3, #1
100054a0:	189b      	adds	r3, r3, r2
100054a2:	19dc      	adds	r4, r3, r7
100054a4:	465b      	mov	r3, fp
100054a6:	2500      	movs	r5, #0
100054a8:	643b      	str	r3, [r7, #64]	@ 0x40
100054aa:	464b      	mov	r3, r9
100054ac:	46a9      	mov	r9, r5
100054ae:	62bb      	str	r3, [r7, #40]	@ 0x28
100054b0:	6a3d      	ldr	r5, [r7, #32]
100054b2:	e02f      	b.n	10005514 <__ssvfscanf_r+0x56c>
100054b4:	1000b675 	.word	0x1000b675
100054b8:	fffffea3 	.word	0xfffffea3
100054bc:	1000b394 	.word	0x1000b394
100054c0:	10008765 	.word	0x10008765
100054c4:	10008f01 	.word	0x10008f01
100054c8:	6d7b      	ldr	r3, [r7, #84]	@ 0x54
100054ca:	445b      	add	r3, fp
100054cc:	657b      	str	r3, [r7, #84]	@ 0x54
100054ce:	2301      	movs	r3, #1
100054d0:	425b      	negs	r3, r3
100054d2:	469c      	mov	ip, r3
100054d4:	6c3b      	ldr	r3, [r7, #64]	@ 0x40
100054d6:	44e0      	add	r8, ip
100054d8:	2b00      	cmp	r3, #0
100054da:	d15e      	bne.n	1000559a <__ssvfscanf_r+0x5f2>
100054dc:	4652      	mov	r2, sl
100054de:	6013      	str	r3, [r2, #0]
100054e0:	6bbb      	ldr	r3, [r7, #56]	@ 0x38
100054e2:	2b00      	cmp	r3, #0
100054e4:	d009      	beq.n	100054fa <__ssvfscanf_r+0x552>
100054e6:	4653      	mov	r3, sl
100054e8:	6b3a      	ldr	r2, [r7, #48]	@ 0x30
100054ea:	1a9b      	subs	r3, r3, r2
100054ec:	6b7a      	ldr	r2, [r7, #52]	@ 0x34
100054ee:	4699      	mov	r9, r3
100054f0:	109b      	asrs	r3, r3, #2
100054f2:	4293      	cmp	r3, r2
100054f4:	d301      	bcc.n	100054fa <__ssvfscanf_r+0x552>
100054f6:	f000 fe84 	bl	10006202 <__ssvfscanf_r+0x125a>
100054fa:	2304      	movs	r3, #4
100054fc:	469c      	mov	ip, r3
100054fe:	2300      	movs	r3, #0
10005500:	4699      	mov	r9, r3
10005502:	44e2      	add	sl, ip
10005504:	6873      	ldr	r3, [r6, #4]
10005506:	2b00      	cmp	r3, #0
10005508:	dd4c      	ble.n	100055a4 <__ssvfscanf_r+0x5fc>
1000550a:	4643      	mov	r3, r8
1000550c:	2b00      	cmp	r3, #0
1000550e:	d101      	bne.n	10005514 <__ssvfscanf_r+0x56c>
10005510:	f000 ff70 	bl	100063f4 <__ssvfscanf_r+0x144c>
10005514:	f001 fcd6 	bl	10006ec4 <__locale_mb_cur_max>
10005518:	4548      	cmp	r0, r9
1000551a:	d100      	bne.n	1000551e <__ssvfscanf_r+0x576>
1000551c:	e5df      	b.n	100050de <__ssvfscanf_r+0x136>
1000551e:	2201      	movs	r2, #1
10005520:	6833      	ldr	r3, [r6, #0]
10005522:	444a      	add	r2, r9
10005524:	4693      	mov	fp, r2
10005526:	781a      	ldrb	r2, [r3, #0]
10005528:	3301      	adds	r3, #1
1000552a:	6033      	str	r3, [r6, #0]
1000552c:	2318      	movs	r3, #24
1000552e:	4649      	mov	r1, r9
10005530:	4699      	mov	r9, r3
10005532:	3348      	adds	r3, #72	@ 0x48
10005534:	469c      	mov	ip, r3
10005536:	5462      	strb	r2, [r4, r1]
10005538:	6872      	ldr	r2, [r6, #4]
1000553a:	44bc      	add	ip, r7
1000553c:	3a01      	subs	r2, #1
1000553e:	6072      	str	r2, [r6, #4]
10005540:	44e1      	add	r9, ip
10005542:	2d03      	cmp	r5, #3
10005544:	d102      	bne.n	1000554c <__ssvfscanf_r+0x5a4>
10005546:	6fbb      	ldr	r3, [r7, #120]	@ 0x78
10005548:	2b04      	cmp	r3, #4
1000554a:	d004      	beq.n	10005556 <__ssvfscanf_r+0x5ae>
1000554c:	2208      	movs	r2, #8
1000554e:	2100      	movs	r1, #0
10005550:	4648      	mov	r0, r9
10005552:	f7fd fe5b 	bl	1000320c <__wrap_memset>
10005556:	464b      	mov	r3, r9
10005558:	9300      	str	r3, [sp, #0]
1000555a:	0022      	movs	r2, r4
1000555c:	465b      	mov	r3, fp
1000555e:	4651      	mov	r1, sl
10005560:	6db8      	ldr	r0, [r7, #88]	@ 0x58
10005562:	f001 fc81 	bl	10006e68 <_mbrtowc_r>
10005566:	0005      	movs	r5, r0
10005568:	1c43      	adds	r3, r0, #1
1000556a:	d100      	bne.n	1000556e <__ssvfscanf_r+0x5c6>
1000556c:	e5b7      	b.n	100050de <__ssvfscanf_r+0x136>
1000556e:	2800      	cmp	r0, #0
10005570:	d0aa      	beq.n	100054c8 <__ssvfscanf_r+0x520>
10005572:	1c83      	adds	r3, r0, #2
10005574:	d101      	bne.n	1000557a <__ssvfscanf_r+0x5d2>
10005576:	f000 fe2c 	bl	100061d2 <__ssvfscanf_r+0x122a>
1000557a:	6d7b      	ldr	r3, [r7, #84]	@ 0x54
1000557c:	445b      	add	r3, fp
1000557e:	657b      	str	r3, [r7, #84]	@ 0x54
10005580:	2803      	cmp	r0, #3
10005582:	d103      	bne.n	1000558c <__ssvfscanf_r+0x5e4>
10005584:	464b      	mov	r3, r9
10005586:	681b      	ldr	r3, [r3, #0]
10005588:	2b04      	cmp	r3, #4
1000558a:	d003      	beq.n	10005594 <__ssvfscanf_r+0x5ec>
1000558c:	2301      	movs	r3, #1
1000558e:	425b      	negs	r3, r3
10005590:	469c      	mov	ip, r3
10005592:	44e0      	add	r8, ip
10005594:	6c3b      	ldr	r3, [r7, #64]	@ 0x40
10005596:	2b00      	cmp	r3, #0
10005598:	d0a2      	beq.n	100054e0 <__ssvfscanf_r+0x538>
1000559a:	2300      	movs	r3, #0
1000559c:	4699      	mov	r9, r3
1000559e:	6873      	ldr	r3, [r6, #4]
100055a0:	2b00      	cmp	r3, #0
100055a2:	dcb2      	bgt.n	1000550a <__ssvfscanf_r+0x562>
100055a4:	0031      	movs	r1, r6
100055a6:	6db8      	ldr	r0, [r7, #88]	@ 0x58
100055a8:	f004 f92e 	bl	10009808 <__ssrefill_r>
100055ac:	2800      	cmp	r0, #0
100055ae:	d0ac      	beq.n	1000550a <__ssvfscanf_r+0x562>
100055b0:	623d      	str	r5, [r7, #32]
100055b2:	464d      	mov	r5, r9
100055b4:	6c3b      	ldr	r3, [r7, #64]	@ 0x40
100055b6:	469b      	mov	fp, r3
100055b8:	6abb      	ldr	r3, [r7, #40]	@ 0x28
100055ba:	4699      	mov	r9, r3
100055bc:	2d00      	cmp	r5, #0
100055be:	d101      	bne.n	100055c4 <__ssvfscanf_r+0x61c>
100055c0:	f000 ff1d 	bl	100063fe <__ssvfscanf_r+0x1456>
100055c4:	e58b      	b.n	100050de <__ssvfscanf_r+0x136>
100055c6:	4653      	mov	r3, sl
100055c8:	2b00      	cmp	r3, #0
100055ca:	d101      	bne.n	100055d0 <__ssvfscanf_r+0x628>
100055cc:	3b01      	subs	r3, #1
100055ce:	469a      	mov	sl, r3
100055d0:	2310      	movs	r3, #16
100055d2:	4023      	ands	r3, r4
100055d4:	001a      	movs	r2, r3
100055d6:	637b      	str	r3, [r7, #52]	@ 0x34
100055d8:	07e3      	lsls	r3, r4, #31
100055da:	d401      	bmi.n	100055e0 <__ssvfscanf_r+0x638>
100055dc:	f000 fbfb 	bl	10005dd6 <__ssvfscanf_r+0xe2e>
100055e0:	6bbb      	ldr	r3, [r7, #56]	@ 0x38
100055e2:	4698      	mov	r8, r3
100055e4:	2a00      	cmp	r2, #0
100055e6:	d001      	beq.n	100055ec <__ssvfscanf_r+0x644>
100055e8:	f000 fcf5 	bl	10005fd6 <__ssvfscanf_r+0x102e>
100055ec:	cb04      	ldmia	r3!, {r2}
100055ee:	4698      	mov	r8, r3
100055f0:	63ba      	str	r2, [r7, #56]	@ 0x38
100055f2:	0624      	lsls	r4, r4, #24
100055f4:	d401      	bmi.n	100055fa <__ssvfscanf_r+0x652>
100055f6:	f001 f85e 	bl	100066b6 <__ssvfscanf_r+0x170e>
100055fa:	2a00      	cmp	r2, #0
100055fc:	d100      	bne.n	10005600 <__ssvfscanf_r+0x658>
100055fe:	e578      	b.n	100050f2 <__ssvfscanf_r+0x14a>
10005600:	2080      	movs	r0, #128	@ 0x80
10005602:	f7fd fdd3 	bl	100031ac <__wrap_malloc>
10005606:	1e05      	subs	r5, r0, #0
10005608:	d101      	bne.n	1000560e <__ssvfscanf_r+0x666>
1000560a:	f000 fed4 	bl	100063b6 <__ssvfscanf_r+0x140e>
1000560e:	6bbb      	ldr	r3, [r7, #56]	@ 0x38
10005610:	6018      	str	r0, [r3, #0]
10005612:	6cfb      	ldr	r3, [r7, #76]	@ 0x4c
10005614:	88da      	ldrh	r2, [r3, #6]
10005616:	643a      	str	r2, [r7, #64]	@ 0x40
10005618:	889c      	ldrh	r4, [r3, #4]
1000561a:	42a2      	cmp	r2, r4
1000561c:	d301      	bcc.n	10005622 <__ssvfscanf_r+0x67a>
1000561e:	f000 ff2d 	bl	1000647c <__ssvfscanf_r+0x14d4>
10005622:	6818      	ldr	r0, [r3, #0]
10005624:	6c3a      	ldr	r2, [r7, #64]	@ 0x40
10005626:	6cf9      	ldr	r1, [r7, #76]	@ 0x4c
10005628:	1c53      	adds	r3, r2, #1
1000562a:	80cb      	strh	r3, [r1, #6]
1000562c:	0093      	lsls	r3, r2, #2
1000562e:	6bba      	ldr	r2, [r7, #56]	@ 0x38
10005630:	62bd      	str	r5, [r7, #40]	@ 0x28
10005632:	501a      	str	r2, [r3, r0]
10005634:	2320      	movs	r3, #32
10005636:	633b      	str	r3, [r7, #48]	@ 0x30
10005638:	2400      	movs	r4, #0
1000563a:	4643      	mov	r3, r8
1000563c:	46d3      	mov	fp, sl
1000563e:	61fb      	str	r3, [r7, #28]
10005640:	46aa      	mov	sl, r5
10005642:	0025      	movs	r5, r4
10005644:	6a3c      	ldr	r4, [r7, #32]
10005646:	e054      	b.n	100056f2 <__ssvfscanf_r+0x74a>
10005648:	4653      	mov	r3, sl
1000564a:	2500      	movs	r5, #0
1000564c:	6018      	str	r0, [r3, #0]
1000564e:	2060      	movs	r0, #96	@ 0x60
10005650:	2318      	movs	r3, #24
10005652:	181b      	adds	r3, r3, r0
10005654:	2208      	movs	r2, #8
10005656:	2100      	movs	r1, #0
10005658:	19d8      	adds	r0, r3, r7
1000565a:	f7fd fdd7 	bl	1000320c <__wrap_memset>
1000565e:	23e0      	movs	r3, #224	@ 0xe0
10005660:	6d3a      	ldr	r2, [r7, #80]	@ 0x50
10005662:	2160      	movs	r1, #96	@ 0x60
10005664:	58d2      	ldr	r2, [r2, r3]
10005666:	3bc8      	subs	r3, #200	@ 0xc8
10005668:	643a      	str	r2, [r7, #64]	@ 0x40
1000566a:	2260      	movs	r2, #96	@ 0x60
1000566c:	189b      	adds	r3, r3, r2
1000566e:	6db8      	ldr	r0, [r7, #88]	@ 0x58
10005670:	002a      	movs	r2, r5
10005672:	19db      	adds	r3, r3, r7
10005674:	6c3d      	ldr	r5, [r7, #64]	@ 0x40
10005676:	1879      	adds	r1, r7, r1
10005678:	47a8      	blx	r5
1000567a:	2500      	movs	r5, #0
1000567c:	2801      	cmp	r0, #1
1000567e:	d102      	bne.n	10005686 <__ssvfscanf_r+0x6de>
10005680:	2360      	movs	r3, #96	@ 0x60
10005682:	18fb      	adds	r3, r7, r3
10005684:	781d      	ldrb	r5, [r3, #0]
10005686:	2320      	movs	r3, #32
10005688:	2260      	movs	r2, #96	@ 0x60
1000568a:	189b      	adds	r3, r3, r2
1000568c:	19db      	adds	r3, r3, r7
1000568e:	5d5b      	ldrb	r3, [r3, r5]
10005690:	2b00      	cmp	r3, #0
10005692:	d101      	bne.n	10005698 <__ssvfscanf_r+0x6f0>
10005694:	f001 f816 	bl	100066c4 <__ssvfscanf_r+0x171c>
10005698:	6d7b      	ldr	r3, [r7, #84]	@ 0x54
1000569a:	444b      	add	r3, r9
1000569c:	657b      	str	r3, [r7, #84]	@ 0x54
1000569e:	2c03      	cmp	r4, #3
100056a0:	d101      	bne.n	100056a6 <__ssvfscanf_r+0x6fe>
100056a2:	f000 fd6c 	bl	1000617e <__ssvfscanf_r+0x11d6>
100056a6:	2301      	movs	r3, #1
100056a8:	425b      	negs	r3, r3
100056aa:	469c      	mov	ip, r3
100056ac:	44e3      	add	fp, ip
100056ae:	6b7b      	ldr	r3, [r7, #52]	@ 0x34
100056b0:	2b00      	cmp	r3, #0
100056b2:	d001      	beq.n	100056b8 <__ssvfscanf_r+0x710>
100056b4:	f000 fd2e 	bl	10006114 <__ssvfscanf_r+0x116c>
100056b8:	3304      	adds	r3, #4
100056ba:	469c      	mov	ip, r3
100056bc:	6bbb      	ldr	r3, [r7, #56]	@ 0x38
100056be:	44e2      	add	sl, ip
100056c0:	2b00      	cmp	r3, #0
100056c2:	d101      	bne.n	100056c8 <__ssvfscanf_r+0x720>
100056c4:	f000 fd26 	bl	10006114 <__ssvfscanf_r+0x116c>
100056c8:	4653      	mov	r3, sl
100056ca:	6aba      	ldr	r2, [r7, #40]	@ 0x28
100056cc:	2500      	movs	r5, #0
100056ce:	1a9b      	subs	r3, r3, r2
100056d0:	6b3a      	ldr	r2, [r7, #48]	@ 0x30
100056d2:	4698      	mov	r8, r3
100056d4:	109b      	asrs	r3, r3, #2
100056d6:	4293      	cmp	r3, r2
100056d8:	d301      	bcc.n	100056de <__ssvfscanf_r+0x736>
100056da:	f000 fd80 	bl	100061de <__ssvfscanf_r+0x1236>
100056de:	6873      	ldr	r3, [r6, #4]
100056e0:	2b00      	cmp	r3, #0
100056e2:	dc01      	bgt.n	100056e8 <__ssvfscanf_r+0x740>
100056e4:	f000 fd1c 	bl	10006120 <__ssvfscanf_r+0x1178>
100056e8:	465b      	mov	r3, fp
100056ea:	2b00      	cmp	r3, #0
100056ec:	d101      	bne.n	100056f2 <__ssvfscanf_r+0x74a>
100056ee:	f000 ff8f 	bl	10006610 <__ssvfscanf_r+0x1668>
100056f2:	f001 fbe7 	bl	10006ec4 <__locale_mb_cur_max>
100056f6:	42a8      	cmp	r0, r5
100056f8:	d100      	bne.n	100056fc <__ssvfscanf_r+0x754>
100056fa:	e4f0      	b.n	100050de <__ssvfscanf_r+0x136>
100056fc:	6833      	ldr	r3, [r6, #0]
100056fe:	1c6a      	adds	r2, r5, #1
10005700:	4691      	mov	r9, r2
10005702:	781a      	ldrb	r2, [r3, #0]
10005704:	3301      	adds	r3, #1
10005706:	6033      	str	r3, [r6, #0]
10005708:	2310      	movs	r3, #16
1000570a:	2190      	movs	r1, #144	@ 0x90
1000570c:	2060      	movs	r0, #96	@ 0x60
1000570e:	4698      	mov	r8, r3
10005710:	3350      	adds	r3, #80	@ 0x50
10005712:	469c      	mov	ip, r3
10005714:	0049      	lsls	r1, r1, #1
10005716:	1809      	adds	r1, r1, r0
10005718:	19c9      	adds	r1, r1, r7
1000571a:	554a      	strb	r2, [r1, r5]
1000571c:	6872      	ldr	r2, [r6, #4]
1000571e:	44bc      	add	ip, r7
10005720:	3a01      	subs	r2, #1
10005722:	6072      	str	r2, [r6, #4]
10005724:	44e0      	add	r8, ip
10005726:	2c03      	cmp	r4, #3
10005728:	d102      	bne.n	10005730 <__ssvfscanf_r+0x788>
1000572a:	6f3b      	ldr	r3, [r7, #112]	@ 0x70
1000572c:	2b04      	cmp	r3, #4
1000572e:	d004      	beq.n	1000573a <__ssvfscanf_r+0x792>
10005730:	2208      	movs	r2, #8
10005732:	2100      	movs	r1, #0
10005734:	4640      	mov	r0, r8
10005736:	f7fd fd69 	bl	1000320c <__wrap_memset>
1000573a:	2290      	movs	r2, #144	@ 0x90
1000573c:	4643      	mov	r3, r8
1000573e:	2160      	movs	r1, #96	@ 0x60
10005740:	0052      	lsls	r2, r2, #1
10005742:	9300      	str	r3, [sp, #0]
10005744:	1852      	adds	r2, r2, r1
10005746:	464b      	mov	r3, r9
10005748:	4651      	mov	r1, sl
1000574a:	6db8      	ldr	r0, [r7, #88]	@ 0x58
1000574c:	19d2      	adds	r2, r2, r7
1000574e:	f001 fb8b 	bl	10006e68 <_mbrtowc_r>
10005752:	0004      	movs	r4, r0
10005754:	1c43      	adds	r3, r0, #1
10005756:	d100      	bne.n	1000575a <__ssvfscanf_r+0x7b2>
10005758:	e4c1      	b.n	100050de <__ssvfscanf_r+0x136>
1000575a:	2800      	cmp	r0, #0
1000575c:	d100      	bne.n	10005760 <__ssvfscanf_r+0x7b8>
1000575e:	e773      	b.n	10005648 <__ssvfscanf_r+0x6a0>
10005760:	1c83      	adds	r3, r0, #2
10005762:	d101      	bne.n	10005768 <__ssvfscanf_r+0x7c0>
10005764:	f000 fd38 	bl	100061d8 <__ssvfscanf_r+0x1230>
10005768:	4653      	mov	r3, sl
1000576a:	681d      	ldr	r5, [r3, #0]
1000576c:	1c6b      	adds	r3, r5, #1
1000576e:	d000      	beq.n	10005772 <__ssvfscanf_r+0x7ca>
10005770:	e76d      	b.n	1000564e <__ssvfscanf_r+0x6a6>
10005772:	e788      	b.n	10005686 <__ssvfscanf_r+0x6de>
10005774:	6db8      	ldr	r0, [r7, #88]	@ 0x58
10005776:	f001 fbad 	bl	10006ed4 <_localeconv_r>
1000577a:	6803      	ldr	r3, [r0, #0]
1000577c:	22ae      	movs	r2, #174	@ 0xae
1000577e:	61fb      	str	r3, [r7, #28]
10005780:	23f0      	movs	r3, #240	@ 0xf0
10005782:	00db      	lsls	r3, r3, #3
10005784:	4323      	orrs	r3, r4
10005786:	4699      	mov	r9, r3
10005788:	4653      	mov	r3, sl
1000578a:	3b01      	subs	r3, #1
1000578c:	0052      	lsls	r2, r2, #1
1000578e:	4293      	cmp	r3, r2
10005790:	d801      	bhi.n	10005796 <__ssvfscanf_r+0x7ee>
10005792:	f000 fd61 	bl	10006258 <__ssvfscanf_r+0x12b0>
10005796:	3b5d      	subs	r3, #93	@ 0x5d
10005798:	3bff      	subs	r3, #255	@ 0xff
1000579a:	60fb      	str	r3, [r7, #12]
1000579c:	235e      	movs	r3, #94	@ 0x5e
1000579e:	33ff      	adds	r3, #255	@ 0xff
100057a0:	469a      	mov	sl, r3
100057a2:	2300      	movs	r3, #0
100057a4:	4698      	mov	r8, r3
100057a6:	643b      	str	r3, [r7, #64]	@ 0x40
100057a8:	613b      	str	r3, [r7, #16]
100057aa:	617b      	str	r3, [r7, #20]
100057ac:	633b      	str	r3, [r7, #48]	@ 0x30
100057ae:	61bb      	str	r3, [r7, #24]
100057b0:	3321      	adds	r3, #33	@ 0x21
100057b2:	33ff      	adds	r3, #255	@ 0xff
100057b4:	469c      	mov	ip, r3
100057b6:	3bc0      	subs	r3, #192	@ 0xc0
100057b8:	469b      	mov	fp, r3
100057ba:	44bb      	add	fp, r7
100057bc:	44dc      	add	ip, fp
100057be:	4663      	mov	r3, ip
100057c0:	46c3      	mov	fp, r8
100057c2:	46e0      	mov	r8, ip
100057c4:	62bb      	str	r3, [r7, #40]	@ 0x28
100057c6:	4bd4      	ldr	r3, [pc, #848]	@ (10005b18 <__ssvfscanf_r+0xb70>)
100057c8:	6d7c      	ldr	r4, [r7, #84]	@ 0x54
100057ca:	637b      	str	r3, [r7, #52]	@ 0x34
100057cc:	6832      	ldr	r2, [r6, #0]
100057ce:	7811      	ldrb	r1, [r2, #0]
100057d0:	000b      	movs	r3, r1
100057d2:	3b2b      	subs	r3, #43	@ 0x2b
100057d4:	b2db      	uxtb	r3, r3
100057d6:	2b4e      	cmp	r3, #78	@ 0x4e
100057d8:	d803      	bhi.n	100057e2 <__ssvfscanf_r+0x83a>
100057da:	6b78      	ldr	r0, [r7, #52]	@ 0x34
100057dc:	009b      	lsls	r3, r3, #2
100057de:	58c3      	ldr	r3, [r0, r3]
100057e0:	469f      	mov	pc, r3
100057e2:	464b      	mov	r3, r9
100057e4:	059b      	lsls	r3, r3, #22
100057e6:	d569      	bpl.n	100058bc <__ssvfscanf_r+0x914>
100057e8:	69f8      	ldr	r0, [r7, #28]
100057ea:	7803      	ldrb	r3, [r0, #0]
100057ec:	428b      	cmp	r3, r1
100057ee:	d165      	bne.n	100058bc <__ssvfscanf_r+0x914>
100057f0:	4653      	mov	r3, sl
100057f2:	607b      	str	r3, [r7, #4]
100057f4:	4643      	mov	r3, r8
100057f6:	657b      	str	r3, [r7, #84]	@ 0x54
100057f8:	464b      	mov	r3, r9
100057fa:	2500      	movs	r5, #0
100057fc:	4680      	mov	r8, r0
100057fe:	60bb      	str	r3, [r7, #8]
10005800:	e006      	b.n	10005810 <__ssvfscanf_r+0x868>
10005802:	4643      	mov	r3, r8
10005804:	3201      	adds	r2, #1
10005806:	6032      	str	r2, [r6, #0]
10005808:	7811      	ldrb	r1, [r2, #0]
1000580a:	5d5b      	ldrb	r3, [r3, r5]
1000580c:	4299      	cmp	r1, r3
1000580e:	d11a      	bne.n	10005846 <__ssvfscanf_r+0x89e>
10005810:	4643      	mov	r3, r8
10005812:	46aa      	mov	sl, r5
10005814:	3501      	adds	r5, #1
10005816:	5d5b      	ldrb	r3, [r3, r5]
10005818:	46a1      	mov	r9, r4
1000581a:	3401      	adds	r4, #1
1000581c:	2b00      	cmp	r3, #0
1000581e:	d101      	bne.n	10005824 <__ssvfscanf_r+0x87c>
10005820:	f000 fd01 	bl	10006226 <__ssvfscanf_r+0x127e>
10005824:	6873      	ldr	r3, [r6, #4]
10005826:	3b01      	subs	r3, #1
10005828:	6073      	str	r3, [r6, #4]
1000582a:	2b00      	cmp	r3, #0
1000582c:	dce9      	bgt.n	10005802 <__ssvfscanf_r+0x85a>
1000582e:	0031      	movs	r1, r6
10005830:	6db8      	ldr	r0, [r7, #88]	@ 0x58
10005832:	f003 ffe9 	bl	10009808 <__ssrefill_r>
10005836:	2800      	cmp	r0, #0
10005838:	d105      	bne.n	10005846 <__ssvfscanf_r+0x89e>
1000583a:	4643      	mov	r3, r8
1000583c:	6832      	ldr	r2, [r6, #0]
1000583e:	5d5b      	ldrb	r3, [r3, r5]
10005840:	7811      	ldrb	r1, [r2, #0]
10005842:	4299      	cmp	r1, r3
10005844:	d0e4      	beq.n	10005810 <__ssvfscanf_r+0x868>
10005846:	464b      	mov	r3, r9
10005848:	6d7d      	ldr	r5, [r7, #84]	@ 0x54
1000584a:	657b      	str	r3, [r7, #84]	@ 0x54
1000584c:	68bb      	ldr	r3, [r7, #8]
1000584e:	46d8      	mov	r8, fp
10005850:	4699      	mov	r9, r3
10005852:	46d3      	mov	fp, sl
10005854:	4654      	mov	r4, sl
10005856:	46aa      	mov	sl, r5
10005858:	69fd      	ldr	r5, [r7, #28]
1000585a:	5d29      	ldrb	r1, [r5, r4]
1000585c:	0032      	movs	r2, r6
1000585e:	6db8      	ldr	r0, [r7, #88]	@ 0x58
10005860:	f003 ff94 	bl	1000978c <_sungetc_r>
10005864:	3c01      	subs	r4, #1
10005866:	d2f8      	bcs.n	1000585a <__ssvfscanf_r+0x8b2>
10005868:	465a      	mov	r2, fp
1000586a:	6d7b      	ldr	r3, [r7, #84]	@ 0x54
1000586c:	4655      	mov	r5, sl
1000586e:	1a9b      	subs	r3, r3, r2
10005870:	657b      	str	r3, [r7, #84]	@ 0x54
10005872:	e026      	b.n	100058c2 <__ssvfscanf_r+0x91a>
10005874:	464b      	mov	r3, r9
10005876:	051b      	lsls	r3, r3, #20
10005878:	d520      	bpl.n	100058bc <__ssvfscanf_r+0x914>
1000587a:	6c3b      	ldr	r3, [r7, #64]	@ 0x40
1000587c:	445b      	add	r3, fp
1000587e:	2b00      	cmp	r3, #0
10005880:	d11c      	bne.n	100058bc <__ssvfscanf_r+0x914>
10005882:	464a      	mov	r2, r9
10005884:	4ba5      	ldr	r3, [pc, #660]	@ (10005b1c <__ssvfscanf_r+0xb74>)
10005886:	401a      	ands	r2, r3
10005888:	2300      	movs	r3, #0
1000588a:	4691      	mov	r9, r2
1000588c:	469b      	mov	fp, r3
1000588e:	643b      	str	r3, [r7, #64]	@ 0x40
10005890:	4643      	mov	r3, r8
10005892:	7019      	strb	r1, [r3, #0]
10005894:	2301      	movs	r3, #1
10005896:	425b      	negs	r3, r3
10005898:	469c      	mov	ip, r3
1000589a:	3302      	adds	r3, #2
1000589c:	44e2      	add	sl, ip
1000589e:	469c      	mov	ip, r3
100058a0:	44e0      	add	r8, ip
100058a2:	6873      	ldr	r3, [r6, #4]
100058a4:	3401      	adds	r4, #1
100058a6:	3b01      	subs	r3, #1
100058a8:	6073      	str	r3, [r6, #4]
100058aa:	2b00      	cmp	r3, #0
100058ac:	dc00      	bgt.n	100058b0 <__ssvfscanf_r+0x908>
100058ae:	e12b      	b.n	10005b08 <__ssvfscanf_r+0xb60>
100058b0:	6833      	ldr	r3, [r6, #0]
100058b2:	3301      	adds	r3, #1
100058b4:	6033      	str	r3, [r6, #0]
100058b6:	4653      	mov	r3, sl
100058b8:	2b00      	cmp	r3, #0
100058ba:	d187      	bne.n	100057cc <__ssvfscanf_r+0x824>
100058bc:	4645      	mov	r5, r8
100058be:	46d8      	mov	r8, fp
100058c0:	657c      	str	r4, [r7, #84]	@ 0x54
100058c2:	6b3b      	ldr	r3, [r7, #48]	@ 0x30
100058c4:	2b00      	cmp	r3, #0
100058c6:	d000      	beq.n	100058ca <__ssvfscanf_r+0x922>
100058c8:	e105      	b.n	10005ad6 <__ssvfscanf_r+0xb2e>
100058ca:	6c3b      	ldr	r3, [r7, #64]	@ 0x40
100058cc:	3b01      	subs	r3, #1
100058ce:	2b01      	cmp	r3, #1
100058d0:	d801      	bhi.n	100058d6 <__ssvfscanf_r+0x92e>
100058d2:	f000 ff70 	bl	100067b6 <__ssvfscanf_r+0x180e>
100058d6:	4643      	mov	r3, r8
100058d8:	3b01      	subs	r3, #1
100058da:	2b06      	cmp	r3, #6
100058dc:	d801      	bhi.n	100058e2 <__ssvfscanf_r+0x93a>
100058de:	f000 fd13 	bl	10006308 <__ssvfscanf_r+0x1360>
100058e2:	464b      	mov	r3, r9
100058e4:	05db      	lsls	r3, r3, #23
100058e6:	d520      	bpl.n	1000592a <__ssvfscanf_r+0x982>
100058e8:	464b      	mov	r3, r9
100058ea:	055b      	lsls	r3, r3, #21
100058ec:	d501      	bpl.n	100058f2 <__ssvfscanf_r+0x94a>
100058ee:	f000 ff85 	bl	100067fc <__ssvfscanf_r+0x1854>
100058f2:	6d7b      	ldr	r3, [r7, #84]	@ 0x54
100058f4:	1e6c      	subs	r4, r5, #1
100058f6:	7821      	ldrb	r1, [r4, #0]
100058f8:	1e5a      	subs	r2, r3, #1
100058fa:	4690      	mov	r8, r2
100058fc:	2965      	cmp	r1, #101	@ 0x65
100058fe:	d00d      	beq.n	1000591c <__ssvfscanf_r+0x974>
10005900:	2945      	cmp	r1, #69	@ 0x45
10005902:	d00b      	beq.n	1000591c <__ssvfscanf_r+0x974>
10005904:	0032      	movs	r2, r6
10005906:	6db8      	ldr	r0, [r7, #88]	@ 0x58
10005908:	f003 ff40 	bl	1000978c <_sungetc_r>
1000590c:	2202      	movs	r2, #2
1000590e:	4252      	negs	r2, r2
10005910:	4694      	mov	ip, r2
10005912:	6d7b      	ldr	r3, [r7, #84]	@ 0x54
10005914:	1eac      	subs	r4, r5, #2
10005916:	4463      	add	r3, ip
10005918:	4698      	mov	r8, r3
1000591a:	7821      	ldrb	r1, [r4, #0]
1000591c:	0032      	movs	r2, r6
1000591e:	6db8      	ldr	r0, [r7, #88]	@ 0x58
10005920:	f003 ff34 	bl	1000978c <_sungetc_r>
10005924:	4643      	mov	r3, r8
10005926:	0025      	movs	r5, r4
10005928:	657b      	str	r3, [r7, #84]	@ 0x54
1000592a:	2310      	movs	r3, #16
1000592c:	464a      	mov	r2, r9
1000592e:	4649      	mov	r1, r9
10005930:	401a      	ands	r2, r3
10005932:	420b      	tst	r3, r1
10005934:	d001      	beq.n	1000593a <__ssvfscanf_r+0x992>
10005936:	f7ff fb67 	bl	10005008 <__ssvfscanf_r+0x60>
1000593a:	23c0      	movs	r3, #192	@ 0xc0
1000593c:	702a      	strb	r2, [r5, #0]
1000593e:	2280      	movs	r2, #128	@ 0x80
10005940:	00db      	lsls	r3, r3, #3
10005942:	400b      	ands	r3, r1
10005944:	00d2      	lsls	r2, r2, #3
10005946:	4293      	cmp	r3, r2
10005948:	d100      	bne.n	1000594c <__ssvfscanf_r+0x9a4>
1000594a:	e2f4      	b.n	10005f36 <__ssvfscanf_r+0xf8e>
1000594c:	697b      	ldr	r3, [r7, #20]
1000594e:	2b00      	cmp	r3, #0
10005950:	d001      	beq.n	10005956 <__ssvfscanf_r+0x9ae>
10005952:	f000 fe8d 	bl	10006670 <__ssvfscanf_r+0x16c8>
10005956:	2200      	movs	r2, #0
10005958:	6ab9      	ldr	r1, [r7, #40]	@ 0x28
1000595a:	6db8      	ldr	r0, [r7, #88]	@ 0x58
1000595c:	f002 fd0a 	bl	10008374 <_strtod_r>
10005960:	6bba      	ldr	r2, [r7, #56]	@ 0x38
10005962:	0004      	movs	r4, r0
10005964:	1d13      	adds	r3, r2, #4
10005966:	4698      	mov	r8, r3
10005968:	464b      	mov	r3, r9
1000596a:	000d      	movs	r5, r1
1000596c:	07db      	lsls	r3, r3, #31
1000596e:	d401      	bmi.n	10005974 <__ssvfscanf_r+0x9cc>
10005970:	f000 fcf7 	bl	10006362 <__ssvfscanf_r+0x13ba>
10005974:	6813      	ldr	r3, [r2, #0]
10005976:	601c      	str	r4, [r3, #0]
10005978:	605d      	str	r5, [r3, #4]
1000597a:	6cbb      	ldr	r3, [r7, #72]	@ 0x48
1000597c:	3301      	adds	r3, #1
1000597e:	64bb      	str	r3, [r7, #72]	@ 0x48
10005980:	4643      	mov	r3, r8
10005982:	63bb      	str	r3, [r7, #56]	@ 0x38
10005984:	f7ff fb40 	bl	10005008 <__ssvfscanf_r+0x60>
10005988:	465b      	mov	r3, fp
1000598a:	2b07      	cmp	r3, #7
1000598c:	d196      	bne.n	100058bc <__ssvfscanf_r+0x914>
1000598e:	2308      	movs	r3, #8
10005990:	469b      	mov	fp, r3
10005992:	e77d      	b.n	10005890 <__ssvfscanf_r+0x8e8>
10005994:	2398      	movs	r3, #152	@ 0x98
10005996:	464a      	mov	r2, r9
10005998:	011b      	lsls	r3, r3, #4
1000599a:	4013      	ands	r3, r2
1000599c:	2280      	movs	r2, #128	@ 0x80
1000599e:	0052      	lsls	r2, r2, #1
100059a0:	4293      	cmp	r3, r2
100059a2:	d18b      	bne.n	100058bc <__ssvfscanf_r+0x914>
100059a4:	6b3b      	ldr	r3, [r7, #48]	@ 0x30
100059a6:	2b01      	cmp	r3, #1
100059a8:	d188      	bne.n	100058bc <__ssvfscanf_r+0x914>
100059aa:	464a      	mov	r2, r9
100059ac:	4b5c      	ldr	r3, [pc, #368]	@ (10005b20 <__ssvfscanf_r+0xb78>)
100059ae:	401a      	ands	r2, r3
100059b0:	0013      	movs	r3, r2
100059b2:	2280      	movs	r2, #128	@ 0x80
100059b4:	0112      	lsls	r2, r2, #4
100059b6:	431a      	orrs	r2, r3
100059b8:	4691      	mov	r9, r2
100059ba:	2330      	movs	r3, #48	@ 0x30
100059bc:	4642      	mov	r2, r8
100059be:	7013      	strb	r3, [r2, #0]
100059c0:	3b31      	subs	r3, #49	@ 0x31
100059c2:	469c      	mov	ip, r3
100059c4:	3302      	adds	r3, #2
100059c6:	44e2      	add	sl, ip
100059c8:	469c      	mov	ip, r3
100059ca:	2300      	movs	r3, #0
100059cc:	44e0      	add	r8, ip
100059ce:	633b      	str	r3, [r7, #48]	@ 0x30
100059d0:	e75e      	b.n	10005890 <__ssvfscanf_r+0x8e8>
100059d2:	465b      	mov	r3, fp
100059d4:	2b06      	cmp	r3, #6
100059d6:	d000      	beq.n	100059da <__ssvfscanf_r+0xa32>
100059d8:	e770      	b.n	100058bc <__ssvfscanf_r+0x914>
100059da:	2307      	movs	r3, #7
100059dc:	469b      	mov	fp, r3
100059de:	e757      	b.n	10005890 <__ssvfscanf_r+0x8e8>
100059e0:	464b      	mov	r3, r9
100059e2:	051b      	lsls	r3, r3, #20
100059e4:	d400      	bmi.n	100059e8 <__ssvfscanf_r+0xa40>
100059e6:	e769      	b.n	100058bc <__ssvfscanf_r+0x914>
100059e8:	22a0      	movs	r2, #160	@ 0xa0
100059ea:	464b      	mov	r3, r9
100059ec:	00d2      	lsls	r2, r2, #3
100059ee:	4013      	ands	r3, r2
100059f0:	3a01      	subs	r2, #1
100059f2:	3aff      	subs	r2, #255	@ 0xff
100059f4:	4293      	cmp	r3, r2
100059f6:	d006      	beq.n	10005a06 <__ssvfscanf_r+0xa5e>
100059f8:	464b      	mov	r3, r9
100059fa:	4213      	tst	r3, r2
100059fc:	d100      	bne.n	10005a00 <__ssvfscanf_r+0xa58>
100059fe:	e75d      	b.n	100058bc <__ssvfscanf_r+0x914>
10005a00:	6b3b      	ldr	r3, [r7, #48]	@ 0x30
10005a02:	2b00      	cmp	r3, #0
10005a04:	d04f      	beq.n	10005aa6 <__ssvfscanf_r+0xafe>
10005a06:	464b      	mov	r3, r9
10005a08:	059b      	lsls	r3, r3, #22
10005a0a:	d405      	bmi.n	10005a18 <__ssvfscanf_r+0xa70>
10005a0c:	6b3b      	ldr	r3, [r7, #48]	@ 0x30
10005a0e:	69ba      	ldr	r2, [r7, #24]
10005a10:	1a9b      	subs	r3, r3, r2
10005a12:	617b      	str	r3, [r7, #20]
10005a14:	4643      	mov	r3, r8
10005a16:	613b      	str	r3, [r7, #16]
10005a18:	464a      	mov	r2, r9
10005a1a:	4b42      	ldr	r3, [pc, #264]	@ (10005b24 <__ssvfscanf_r+0xb7c>)
10005a1c:	401a      	ands	r2, r3
10005a1e:	0013      	movs	r3, r2
10005a20:	22c0      	movs	r2, #192	@ 0xc0
10005a22:	0052      	lsls	r2, r2, #1
10005a24:	431a      	orrs	r2, r3
10005a26:	2300      	movs	r3, #0
10005a28:	4691      	mov	r9, r2
10005a2a:	633b      	str	r3, [r7, #48]	@ 0x30
10005a2c:	e730      	b.n	10005890 <__ssvfscanf_r+0x8e8>
10005a2e:	6c3b      	ldr	r3, [r7, #64]	@ 0x40
10005a30:	2b00      	cmp	r3, #0
10005a32:	d000      	beq.n	10005a36 <__ssvfscanf_r+0xa8e>
10005a34:	e261      	b.n	10005efa <__ssvfscanf_r+0xf52>
10005a36:	6b3b      	ldr	r3, [r7, #48]	@ 0x30
10005a38:	2b00      	cmp	r3, #0
10005a3a:	d107      	bne.n	10005a4c <__ssvfscanf_r+0xaa4>
10005a3c:	23e0      	movs	r3, #224	@ 0xe0
10005a3e:	464a      	mov	r2, r9
10005a40:	00db      	lsls	r3, r3, #3
10005a42:	401a      	ands	r2, r3
10005a44:	429a      	cmp	r2, r3
10005a46:	d101      	bne.n	10005a4c <__ssvfscanf_r+0xaa4>
10005a48:	f000 fe91 	bl	1000676e <__ssvfscanf_r+0x17c6>
10005a4c:	465b      	mov	r3, fp
10005a4e:	2b01      	cmp	r3, #1
10005a50:	d002      	beq.n	10005a58 <__ssvfscanf_r+0xab0>
10005a52:	2b04      	cmp	r3, #4
10005a54:	d000      	beq.n	10005a58 <__ssvfscanf_r+0xab0>
10005a56:	e731      	b.n	100058bc <__ssvfscanf_r+0x914>
10005a58:	465b      	mov	r3, fp
10005a5a:	3301      	adds	r3, #1
10005a5c:	b2db      	uxtb	r3, r3
10005a5e:	469b      	mov	fp, r3
10005a60:	e716      	b.n	10005890 <__ssvfscanf_r+0x8e8>
10005a62:	464b      	mov	r3, r9
10005a64:	051b      	lsls	r3, r3, #20
10005a66:	d500      	bpl.n	10005a6a <__ssvfscanf_r+0xac2>
10005a68:	e24e      	b.n	10005f08 <__ssvfscanf_r+0xf60>
10005a6a:	6c3b      	ldr	r3, [r7, #64]	@ 0x40
10005a6c:	2b01      	cmp	r3, #1
10005a6e:	d000      	beq.n	10005a72 <__ssvfscanf_r+0xaca>
10005a70:	e724      	b.n	100058bc <__ssvfscanf_r+0x914>
10005a72:	2302      	movs	r3, #2
10005a74:	643b      	str	r3, [r7, #64]	@ 0x40
10005a76:	e70b      	b.n	10005890 <__ssvfscanf_r+0x8e8>
10005a78:	2380      	movs	r3, #128	@ 0x80
10005a7a:	464a      	mov	r2, r9
10005a7c:	4213      	tst	r3, r2
10005a7e:	d100      	bne.n	10005a82 <__ssvfscanf_r+0xada>
10005a80:	e71c      	b.n	100058bc <__ssvfscanf_r+0x914>
10005a82:	439a      	bics	r2, r3
10005a84:	4691      	mov	r9, r2
10005a86:	e703      	b.n	10005890 <__ssvfscanf_r+0x8e8>
10005a88:	465b      	mov	r3, fp
10005a8a:	2b00      	cmp	r3, #0
10005a8c:	d000      	beq.n	10005a90 <__ssvfscanf_r+0xae8>
10005a8e:	e22b      	b.n	10005ee8 <__ssvfscanf_r+0xf40>
10005a90:	6b3b      	ldr	r3, [r7, #48]	@ 0x30
10005a92:	2b00      	cmp	r3, #0
10005a94:	d11c      	bne.n	10005ad0 <__ssvfscanf_r+0xb28>
10005a96:	23e0      	movs	r3, #224	@ 0xe0
10005a98:	464a      	mov	r2, r9
10005a9a:	00db      	lsls	r3, r3, #3
10005a9c:	401a      	ands	r2, r3
10005a9e:	429a      	cmp	r2, r3
10005aa0:	d101      	bne.n	10005aa6 <__ssvfscanf_r+0xafe>
10005aa2:	f000 fe5c 	bl	1000675e <__ssvfscanf_r+0x17b6>
10005aa6:	2300      	movs	r3, #0
10005aa8:	4645      	mov	r5, r8
10005aaa:	657c      	str	r4, [r7, #84]	@ 0x54
10005aac:	46d8      	mov	r8, fp
10005aae:	633b      	str	r3, [r7, #48]	@ 0x30
10005ab0:	e70b      	b.n	100058ca <__ssvfscanf_r+0x922>
10005ab2:	464b      	mov	r3, r9
10005ab4:	051b      	lsls	r3, r3, #20
10005ab6:	d500      	bpl.n	10005aba <__ssvfscanf_r+0xb12>
10005ab8:	e210      	b.n	10005edc <__ssvfscanf_r+0xf34>
10005aba:	465b      	mov	r3, fp
10005abc:	2b02      	cmp	r3, #2
10005abe:	d000      	beq.n	10005ac2 <__ssvfscanf_r+0xb1a>
10005ac0:	e6fc      	b.n	100058bc <__ssvfscanf_r+0x914>
10005ac2:	2303      	movs	r3, #3
10005ac4:	469b      	mov	fp, r3
10005ac6:	e6e3      	b.n	10005890 <__ssvfscanf_r+0x8e8>
10005ac8:	464b      	mov	r3, r9
10005aca:	051b      	lsls	r3, r3, #20
10005acc:	d58c      	bpl.n	100059e8 <__ssvfscanf_r+0xa40>
10005ace:	e6d4      	b.n	1000587a <__ssvfscanf_r+0x8d2>
10005ad0:	4645      	mov	r5, r8
10005ad2:	46d8      	mov	r8, fp
10005ad4:	657c      	str	r4, [r7, #84]	@ 0x54
10005ad6:	464a      	mov	r2, r9
10005ad8:	4b11      	ldr	r3, [pc, #68]	@ (10005b20 <__ssvfscanf_r+0xb78>)
10005ada:	401a      	ands	r2, r3
10005adc:	4691      	mov	r9, r2
10005ade:	e6f4      	b.n	100058ca <__ssvfscanf_r+0x922>
10005ae0:	464b      	mov	r3, r9
10005ae2:	05db      	lsls	r3, r3, #23
10005ae4:	d400      	bmi.n	10005ae8 <__ssvfscanf_r+0xb40>
10005ae6:	e6c8      	b.n	1000587a <__ssvfscanf_r+0x8d2>
10005ae8:	2380      	movs	r3, #128	@ 0x80
10005aea:	464a      	mov	r2, r9
10005aec:	439a      	bics	r2, r3
10005aee:	6b3b      	ldr	r3, [r7, #48]	@ 0x30
10005af0:	4691      	mov	r9, r2
10005af2:	3301      	adds	r3, #1
10005af4:	633b      	str	r3, [r7, #48]	@ 0x30
10005af6:	68fb      	ldr	r3, [r7, #12]
10005af8:	2b00      	cmp	r3, #0
10005afa:	d001      	beq.n	10005b00 <__ssvfscanf_r+0xb58>
10005afc:	f000 fc96 	bl	1000642c <__ssvfscanf_r+0x1484>
10005b00:	3b01      	subs	r3, #1
10005b02:	469c      	mov	ip, r3
10005b04:	44e2      	add	sl, ip
10005b06:	e6cc      	b.n	100058a2 <__ssvfscanf_r+0x8fa>
10005b08:	0031      	movs	r1, r6
10005b0a:	6db8      	ldr	r0, [r7, #88]	@ 0x58
10005b0c:	f003 fe7c 	bl	10009808 <__ssrefill_r>
10005b10:	2800      	cmp	r0, #0
10005b12:	d100      	bne.n	10005b16 <__ssvfscanf_r+0xb6e>
10005b14:	e6cf      	b.n	100058b6 <__ssvfscanf_r+0x90e>
10005b16:	e6d1      	b.n	100058bc <__ssvfscanf_r+0x914>
10005b18:	1000b4cc 	.word	0x1000b4cc
10005b1c:	fffffe7f 	.word	0xfffffe7f
10005b20:	fffffeff 	.word	0xfffffeff
10005b24:	fffff07f 	.word	0xfffff07f
10005b28:	6c7b      	ldr	r3, [r7, #68]	@ 0x44
10005b2a:	2b0a      	cmp	r3, #10
10005b2c:	dd12      	ble.n	10005b54 <__ssvfscanf_r+0xbac>
10005b2e:	4bc9      	ldr	r3, [pc, #804]	@ (10005e54 <__ssvfscanf_r+0xeac>)
10005b30:	401c      	ands	r4, r3
10005b32:	4653      	mov	r3, sl
10005b34:	7019      	strb	r1, [r3, #0]
10005b36:	2301      	movs	r3, #1
10005b38:	469c      	mov	ip, r3
10005b3a:	6873      	ldr	r3, [r6, #4]
10005b3c:	44e2      	add	sl, ip
10005b3e:	3b01      	subs	r3, #1
10005b40:	6073      	str	r3, [r6, #4]
10005b42:	2b00      	cmp	r3, #0
10005b44:	dc00      	bgt.n	10005b48 <__ssvfscanf_r+0xba0>
10005b46:	e081      	b.n	10005c4c <__ssvfscanf_r+0xca4>
10005b48:	3201      	adds	r2, #1
10005b4a:	6032      	str	r2, [r6, #0]
10005b4c:	3d01      	subs	r5, #1
10005b4e:	2d00      	cmp	r5, #0
10005b50:	d000      	beq.n	10005b54 <__ssvfscanf_r+0xbac>
10005b52:	e449      	b.n	100053e8 <__ssvfscanf_r+0x440>
10005b54:	4652      	mov	r2, sl
10005b56:	05e3      	lsls	r3, r4, #23
10005b58:	d509      	bpl.n	10005b6e <__ssvfscanf_r+0xbc6>
10005b5a:	6abb      	ldr	r3, [r7, #40]	@ 0x28
10005b5c:	429a      	cmp	r2, r3
10005b5e:	d900      	bls.n	10005b62 <__ssvfscanf_r+0xbba>
10005b60:	e1fd      	b.n	10005f5e <__ssvfscanf_r+0xfb6>
10005b62:	4652      	mov	r2, sl
10005b64:	6abb      	ldr	r3, [r7, #40]	@ 0x28
10005b66:	429a      	cmp	r2, r3
10005b68:	d101      	bne.n	10005b6e <__ssvfscanf_r+0xbc6>
10005b6a:	f7ff fac2 	bl	100050f2 <__ssvfscanf_r+0x14a>
10005b6e:	2310      	movs	r3, #16
10005b70:	001a      	movs	r2, r3
10005b72:	4022      	ands	r2, r4
10005b74:	4223      	tst	r3, r4
10005b76:	d119      	bne.n	10005bac <__ssvfscanf_r+0xc04>
10005b78:	4653      	mov	r3, sl
10005b7a:	6ab9      	ldr	r1, [r7, #40]	@ 0x28
10005b7c:	701a      	strb	r2, [r3, #0]
10005b7e:	6db8      	ldr	r0, [r7, #88]	@ 0x58
10005b80:	2200      	movs	r2, #0
10005b82:	6c7b      	ldr	r3, [r7, #68]	@ 0x44
10005b84:	6a7d      	ldr	r5, [r7, #36]	@ 0x24
10005b86:	47a8      	blx	r5
10005b88:	6bba      	ldr	r2, [r7, #56]	@ 0x38
10005b8a:	1d13      	adds	r3, r2, #4
10005b8c:	4698      	mov	r8, r3
10005b8e:	06a3      	lsls	r3, r4, #26
10005b90:	d500      	bpl.n	10005b94 <__ssvfscanf_r+0xbec>
10005b92:	e1c2      	b.n	10005f1a <__ssvfscanf_r+0xf72>
10005b94:	0723      	lsls	r3, r4, #28
10005b96:	d401      	bmi.n	10005b9c <__ssvfscanf_r+0xbf4>
10005b98:	f000 fc92 	bl	100064c0 <__ssvfscanf_r+0x1518>
10005b9c:	6bbb      	ldr	r3, [r7, #56]	@ 0x38
10005b9e:	681b      	ldr	r3, [r3, #0]
10005ba0:	7018      	strb	r0, [r3, #0]
10005ba2:	6cbb      	ldr	r3, [r7, #72]	@ 0x48
10005ba4:	3301      	adds	r3, #1
10005ba6:	64bb      	str	r3, [r7, #72]	@ 0x48
10005ba8:	4643      	mov	r3, r8
10005baa:	63bb      	str	r3, [r7, #56]	@ 0x38
10005bac:	4652      	mov	r2, sl
10005bae:	6abb      	ldr	r3, [r7, #40]	@ 0x28
10005bb0:	1ad5      	subs	r5, r2, r3
10005bb2:	444d      	add	r5, r9
10005bb4:	6d7b      	ldr	r3, [r7, #84]	@ 0x54
10005bb6:	469c      	mov	ip, r3
10005bb8:	44ac      	add	ip, r5
10005bba:	4663      	mov	r3, ip
10005bbc:	657b      	str	r3, [r7, #84]	@ 0x54
10005bbe:	f7ff fa23 	bl	10005008 <__ssvfscanf_r+0x60>
10005bc2:	6c78      	ldr	r0, [r7, #68]	@ 0x44
10005bc4:	4ba4      	ldr	r3, [pc, #656]	@ (10005e58 <__ssvfscanf_r+0xeb0>)
10005bc6:	0040      	lsls	r0, r0, #1
10005bc8:	5ec3      	ldrsh	r3, [r0, r3]
10005bca:	647b      	str	r3, [r7, #68]	@ 0x44
10005bcc:	4ba1      	ldr	r3, [pc, #644]	@ (10005e54 <__ssvfscanf_r+0xeac>)
10005bce:	401c      	ands	r4, r3
10005bd0:	e7af      	b.n	10005b32 <__ssvfscanf_r+0xb8a>
10005bd2:	23c0      	movs	r3, #192	@ 0xc0
10005bd4:	2080      	movs	r0, #128	@ 0x80
10005bd6:	00db      	lsls	r3, r3, #3
10005bd8:	4023      	ands	r3, r4
10005bda:	0080      	lsls	r0, r0, #2
10005bdc:	4283      	cmp	r3, r0
10005bde:	d1b9      	bne.n	10005b54 <__ssvfscanf_r+0xbac>
10005be0:	4b9e      	ldr	r3, [pc, #632]	@ (10005e5c <__ssvfscanf_r+0xeb4>)
10005be2:	4023      	ands	r3, r4
10005be4:	24a0      	movs	r4, #160	@ 0xa0
10005be6:	00e4      	lsls	r4, r4, #3
10005be8:	431c      	orrs	r4, r3
10005bea:	2310      	movs	r3, #16
10005bec:	647b      	str	r3, [r7, #68]	@ 0x44
10005bee:	e7a0      	b.n	10005b32 <__ssvfscanf_r+0xb8a>
10005bf0:	2380      	movs	r3, #128	@ 0x80
10005bf2:	4223      	tst	r3, r4
10005bf4:	d0ae      	beq.n	10005b54 <__ssvfscanf_r+0xbac>
10005bf6:	439c      	bics	r4, r3
10005bf8:	e79b      	b.n	10005b32 <__ssvfscanf_r+0xb8a>
10005bfa:	6c78      	ldr	r0, [r7, #68]	@ 0x44
10005bfc:	4b96      	ldr	r3, [pc, #600]	@ (10005e58 <__ssvfscanf_r+0xeb0>)
10005bfe:	0040      	lsls	r0, r0, #1
10005c00:	5ec3      	ldrsh	r3, [r0, r3]
10005c02:	647b      	str	r3, [r7, #68]	@ 0x44
10005c04:	2b08      	cmp	r3, #8
10005c06:	dc92      	bgt.n	10005b2e <__ssvfscanf_r+0xb86>
10005c08:	e7a4      	b.n	10005b54 <__ssvfscanf_r+0xbac>
10005c0a:	0523      	lsls	r3, r4, #20
10005c0c:	d591      	bpl.n	10005b32 <__ssvfscanf_r+0xb8a>
10005c0e:	6c7b      	ldr	r3, [r7, #68]	@ 0x44
10005c10:	2b00      	cmp	r3, #0
10005c12:	d105      	bne.n	10005c20 <__ssvfscanf_r+0xc78>
10005c14:	2380      	movs	r3, #128	@ 0x80
10005c16:	009b      	lsls	r3, r3, #2
10005c18:	431c      	orrs	r4, r3
10005c1a:	3bf9      	subs	r3, #249	@ 0xf9
10005c1c:	3bff      	subs	r3, #255	@ 0xff
10005c1e:	647b      	str	r3, [r7, #68]	@ 0x44
10005c20:	0563      	lsls	r3, r4, #21
10005c22:	d500      	bpl.n	10005c26 <__ssvfscanf_r+0xc7e>
10005c24:	e176      	b.n	10005f14 <__ssvfscanf_r+0xf6c>
10005c26:	4b8e      	ldr	r3, [pc, #568]	@ (10005e60 <__ssvfscanf_r+0xeb8>)
10005c28:	401c      	ands	r4, r3
10005c2a:	465b      	mov	r3, fp
10005c2c:	2b00      	cmp	r3, #0
10005c2e:	d004      	beq.n	10005c3a <__ssvfscanf_r+0xc92>
10005c30:	2301      	movs	r3, #1
10005c32:	425b      	negs	r3, r3
10005c34:	469c      	mov	ip, r3
10005c36:	3501      	adds	r5, #1
10005c38:	44e3      	add	fp, ip
10005c3a:	2301      	movs	r3, #1
10005c3c:	469c      	mov	ip, r3
10005c3e:	6873      	ldr	r3, [r6, #4]
10005c40:	44e1      	add	r9, ip
10005c42:	3b01      	subs	r3, #1
10005c44:	6073      	str	r3, [r6, #4]
10005c46:	2b00      	cmp	r3, #0
10005c48:	dd00      	ble.n	10005c4c <__ssvfscanf_r+0xca4>
10005c4a:	e77d      	b.n	10005b48 <__ssvfscanf_r+0xba0>
10005c4c:	0031      	movs	r1, r6
10005c4e:	6db8      	ldr	r0, [r7, #88]	@ 0x58
10005c50:	f003 fdda 	bl	10009808 <__ssrefill_r>
10005c54:	2800      	cmp	r0, #0
10005c56:	d100      	bne.n	10005c5a <__ssvfscanf_r+0xcb2>
10005c58:	e778      	b.n	10005b4c <__ssvfscanf_r+0xba4>
10005c5a:	e77b      	b.n	10005b54 <__ssvfscanf_r+0xbac>
10005c5c:	6afa      	ldr	r2, [r7, #44]	@ 0x2c
10005c5e:	2408      	movs	r4, #8
10005c60:	4690      	mov	r8, r2
10005c62:	6873      	ldr	r3, [r6, #4]
10005c64:	6d7d      	ldr	r5, [r7, #84]	@ 0x54
10005c66:	e00b      	b.n	10005c80 <__ssvfscanf_r+0xcd8>
10005c68:	4641      	mov	r1, r8
10005c6a:	6832      	ldr	r2, [r6, #0]
10005c6c:	7813      	ldrb	r3, [r2, #0]
10005c6e:	5ccb      	ldrb	r3, [r1, r3]
10005c70:	421c      	tst	r4, r3
10005c72:	d00d      	beq.n	10005c90 <__ssvfscanf_r+0xce8>
10005c74:	6873      	ldr	r3, [r6, #4]
10005c76:	3201      	adds	r2, #1
10005c78:	3b01      	subs	r3, #1
10005c7a:	3501      	adds	r5, #1
10005c7c:	6073      	str	r3, [r6, #4]
10005c7e:	6032      	str	r2, [r6, #0]
10005c80:	2b00      	cmp	r3, #0
10005c82:	dcf1      	bgt.n	10005c68 <__ssvfscanf_r+0xcc0>
10005c84:	0031      	movs	r1, r6
10005c86:	6db8      	ldr	r0, [r7, #88]	@ 0x58
10005c88:	f003 fdbe 	bl	10009808 <__ssrefill_r>
10005c8c:	2800      	cmp	r0, #0
10005c8e:	d0eb      	beq.n	10005c68 <__ssvfscanf_r+0xcc0>
10005c90:	657d      	str	r5, [r7, #84]	@ 0x54
10005c92:	f7ff f9b9 	bl	10005008 <__ssvfscanf_r+0x60>
10005c96:	6b7b      	ldr	r3, [r7, #52]	@ 0x34
10005c98:	2b00      	cmp	r3, #0
10005c9a:	d001      	beq.n	10005ca0 <__ssvfscanf_r+0xcf8>
10005c9c:	f000 fc58 	bl	10006550 <__ssvfscanf_r+0x15a8>
10005ca0:	6bbb      	ldr	r3, [r7, #56]	@ 0x38
10005ca2:	cb04      	ldmia	r3!, {r2}
10005ca4:	4691      	mov	r9, r2
10005ca6:	63bb      	str	r3, [r7, #56]	@ 0x38
10005ca8:	0624      	lsls	r4, r4, #24
10005caa:	d401      	bmi.n	10005cb0 <__ssvfscanf_r+0xd08>
10005cac:	f000 fca4 	bl	100065f8 <__ssvfscanf_r+0x1650>
10005cb0:	2a00      	cmp	r2, #0
10005cb2:	d101      	bne.n	10005cb8 <__ssvfscanf_r+0xd10>
10005cb4:	f7ff fa1d 	bl	100050f2 <__ssvfscanf_r+0x14a>
10005cb8:	2020      	movs	r0, #32
10005cba:	f7fd fa77 	bl	100031ac <__wrap_malloc>
10005cbe:	1e04      	subs	r4, r0, #0
10005cc0:	d100      	bne.n	10005cc4 <__ssvfscanf_r+0xd1c>
10005cc2:	e378      	b.n	100063b6 <__ssvfscanf_r+0x140e>
10005cc4:	464b      	mov	r3, r9
10005cc6:	6cfa      	ldr	r2, [r7, #76]	@ 0x4c
10005cc8:	6018      	str	r0, [r3, #0]
10005cca:	88d1      	ldrh	r1, [r2, #6]
10005ccc:	6439      	str	r1, [r7, #64]	@ 0x40
10005cce:	8893      	ldrh	r3, [r2, #4]
10005cd0:	4299      	cmp	r1, r3
10005cd2:	d300      	bcc.n	10005cd6 <__ssvfscanf_r+0xd2e>
10005cd4:	e35d      	b.n	10006392 <__ssvfscanf_r+0x13ea>
10005cd6:	6810      	ldr	r0, [r2, #0]
10005cd8:	6c3a      	ldr	r2, [r7, #64]	@ 0x40
10005cda:	6cf9      	ldr	r1, [r7, #76]	@ 0x4c
10005cdc:	1c53      	adds	r3, r2, #1
10005cde:	80cb      	strh	r3, [r1, #6]
10005ce0:	464b      	mov	r3, r9
10005ce2:	0095      	lsls	r5, r2, #2
10005ce4:	502b      	str	r3, [r5, r0]
10005ce6:	2320      	movs	r3, #32
10005ce8:	643b      	str	r3, [r7, #64]	@ 0x40
10005cea:	6833      	ldr	r3, [r6, #0]
10005cec:	495d      	ldr	r1, [pc, #372]	@ (10005e64 <__ssvfscanf_r+0xebc>)
10005cee:	781a      	ldrb	r2, [r3, #0]
10005cf0:	4688      	mov	r8, r1
10005cf2:	5c8a      	ldrb	r2, [r1, r2]
10005cf4:	0712      	lsls	r2, r2, #28
10005cf6:	d500      	bpl.n	10005cfa <__ssvfscanf_r+0xd52>
10005cf8:	e39d      	b.n	10006436 <__ssvfscanf_r+0x148e>
10005cfa:	0025      	movs	r5, r4
10005cfc:	0021      	movs	r1, r4
10005cfe:	4654      	mov	r4, sl
10005d00:	6872      	ldr	r2, [r6, #4]
10005d02:	3a01      	subs	r2, #1
10005d04:	6072      	str	r2, [r6, #4]
10005d06:	1c5a      	adds	r2, r3, #1
10005d08:	6032      	str	r2, [r6, #0]
10005d0a:	781b      	ldrb	r3, [r3, #0]
10005d0c:	1c4a      	adds	r2, r1, #1
10005d0e:	700b      	strb	r3, [r1, #0]
10005d10:	464b      	mov	r3, r9
10005d12:	4693      	mov	fp, r2
10005d14:	2b00      	cmp	r3, #0
10005d16:	d006      	beq.n	10005d26 <__ssvfscanf_r+0xd7e>
10005d18:	1b53      	subs	r3, r2, r5
10005d1a:	469a      	mov	sl, r3
10005d1c:	6c3b      	ldr	r3, [r7, #64]	@ 0x40
10005d1e:	459a      	cmp	sl, r3
10005d20:	d301      	bcc.n	10005d26 <__ssvfscanf_r+0xd7e>
10005d22:	f000 fc96 	bl	10006652 <__ssvfscanf_r+0x16aa>
10005d26:	3c01      	subs	r4, #1
10005d28:	2c00      	cmp	r4, #0
10005d2a:	d100      	bne.n	10005d2e <__ssvfscanf_r+0xd86>
10005d2c:	e2cb      	b.n	100062c6 <__ssvfscanf_r+0x131e>
10005d2e:	6873      	ldr	r3, [r6, #4]
10005d30:	2b00      	cmp	r3, #0
10005d32:	dc00      	bgt.n	10005d36 <__ssvfscanf_r+0xd8e>
10005d34:	e2c0      	b.n	100062b8 <__ssvfscanf_r+0x1310>
10005d36:	4641      	mov	r1, r8
10005d38:	6833      	ldr	r3, [r6, #0]
10005d3a:	781a      	ldrb	r2, [r3, #0]
10005d3c:	5c8a      	ldrb	r2, [r1, r2]
10005d3e:	2108      	movs	r1, #8
10005d40:	4211      	tst	r1, r2
10005d42:	d000      	beq.n	10005d46 <__ssvfscanf_r+0xd9e>
10005d44:	e2bf      	b.n	100062c6 <__ssvfscanf_r+0x131e>
10005d46:	4659      	mov	r1, fp
10005d48:	e7da      	b.n	10005d00 <__ssvfscanf_r+0xd58>
10005d4a:	465b      	mov	r3, fp
10005d4c:	2b00      	cmp	r3, #0
10005d4e:	d000      	beq.n	10005d52 <__ssvfscanf_r+0xdaa>
10005d50:	e152      	b.n	10005ff8 <__ssvfscanf_r+0x1050>
10005d52:	6bbd      	ldr	r5, [r7, #56]	@ 0x38
10005d54:	cd08      	ldmia	r5!, {r3}
10005d56:	469a      	mov	sl, r3
10005d58:	0624      	lsls	r4, r4, #24
10005d5a:	d400      	bmi.n	10005d5e <__ssvfscanf_r+0xdb6>
10005d5c:	e30d      	b.n	1000637a <__ssvfscanf_r+0x13d2>
10005d5e:	2b00      	cmp	r3, #0
10005d60:	d101      	bne.n	10005d66 <__ssvfscanf_r+0xdbe>
10005d62:	f7ff f9c6 	bl	100050f2 <__ssvfscanf_r+0x14a>
10005d66:	4640      	mov	r0, r8
10005d68:	f7fd fa20 	bl	100031ac <__wrap_malloc>
10005d6c:	1e04      	subs	r4, r0, #0
10005d6e:	d100      	bne.n	10005d72 <__ssvfscanf_r+0xdca>
10005d70:	e321      	b.n	100063b6 <__ssvfscanf_r+0x140e>
10005d72:	4653      	mov	r3, sl
10005d74:	6cfa      	ldr	r2, [r7, #76]	@ 0x4c
10005d76:	6018      	str	r0, [r3, #0]
10005d78:	88d1      	ldrh	r1, [r2, #6]
10005d7a:	6439      	str	r1, [r7, #64]	@ 0x40
10005d7c:	8893      	ldrh	r3, [r2, #4]
10005d7e:	4299      	cmp	r1, r3
10005d80:	d300      	bcc.n	10005d84 <__ssvfscanf_r+0xddc>
10005d82:	e3d1      	b.n	10006528 <__ssvfscanf_r+0x1580>
10005d84:	6810      	ldr	r0, [r2, #0]
10005d86:	6c3a      	ldr	r2, [r7, #64]	@ 0x40
10005d88:	6cf9      	ldr	r1, [r7, #76]	@ 0x4c
10005d8a:	1c53      	adds	r3, r2, #1
10005d8c:	80cb      	strh	r3, [r1, #6]
10005d8e:	0093      	lsls	r3, r2, #2
10005d90:	4652      	mov	r2, sl
10005d92:	501a      	str	r2, [r3, r0]
10005d94:	9600      	str	r6, [sp, #0]
10005d96:	0021      	movs	r1, r4
10005d98:	4643      	mov	r3, r8
10005d9a:	2201      	movs	r2, #1
10005d9c:	6db8      	ldr	r0, [r7, #88]	@ 0x58
10005d9e:	f003 fd53 	bl	10009848 <_sfread_r>
10005da2:	1e04      	subs	r4, r0, #0
10005da4:	d101      	bne.n	10005daa <__ssvfscanf_r+0xe02>
10005da6:	f000 fd5c 	bl	10006862 <__ssvfscanf_r+0x18ba>
10005daa:	4580      	cmp	r8, r0
10005dac:	d908      	bls.n	10005dc0 <__ssvfscanf_r+0xe18>
10005dae:	4653      	mov	r3, sl
10005db0:	0021      	movs	r1, r4
10005db2:	6818      	ldr	r0, [r3, #0]
10005db4:	f7fd fa0c 	bl	100031d0 <__wrap_realloc>
10005db8:	2800      	cmp	r0, #0
10005dba:	d001      	beq.n	10005dc0 <__ssvfscanf_r+0xe18>
10005dbc:	4653      	mov	r3, sl
10005dbe:	6018      	str	r0, [r3, #0]
10005dc0:	6d7b      	ldr	r3, [r7, #84]	@ 0x54
10005dc2:	63bd      	str	r5, [r7, #56]	@ 0x38
10005dc4:	469c      	mov	ip, r3
10005dc6:	44a4      	add	ip, r4
10005dc8:	4663      	mov	r3, ip
10005dca:	657b      	str	r3, [r7, #84]	@ 0x54
10005dcc:	6cbb      	ldr	r3, [r7, #72]	@ 0x48
10005dce:	3301      	adds	r3, #1
10005dd0:	64bb      	str	r3, [r7, #72]	@ 0x48
10005dd2:	f7ff f919 	bl	10005008 <__ssvfscanf_r+0x60>
10005dd6:	6b7b      	ldr	r3, [r7, #52]	@ 0x34
10005dd8:	2b00      	cmp	r3, #0
10005dda:	d000      	beq.n	10005dde <__ssvfscanf_r+0xe36>
10005ddc:	e0c8      	b.n	10005f70 <__ssvfscanf_r+0xfc8>
10005dde:	6bbb      	ldr	r3, [r7, #56]	@ 0x38
10005de0:	cb04      	ldmia	r3!, {r2}
10005de2:	4690      	mov	r8, r2
10005de4:	469b      	mov	fp, r3
10005de6:	0624      	lsls	r4, r4, #24
10005de8:	d401      	bmi.n	10005dee <__ssvfscanf_r+0xe46>
10005dea:	f000 fc4e 	bl	1000668a <__ssvfscanf_r+0x16e2>
10005dee:	2a00      	cmp	r2, #0
10005df0:	d101      	bne.n	10005df6 <__ssvfscanf_r+0xe4e>
10005df2:	f7ff f97e 	bl	100050f2 <__ssvfscanf_r+0x14a>
10005df6:	2020      	movs	r0, #32
10005df8:	f7fd f9d8 	bl	100031ac <__wrap_malloc>
10005dfc:	1e04      	subs	r4, r0, #0
10005dfe:	d100      	bne.n	10005e02 <__ssvfscanf_r+0xe5a>
10005e00:	e2d9      	b.n	100063b6 <__ssvfscanf_r+0x140e>
10005e02:	4643      	mov	r3, r8
10005e04:	6cfa      	ldr	r2, [r7, #76]	@ 0x4c
10005e06:	6018      	str	r0, [r3, #0]
10005e08:	88d1      	ldrh	r1, [r2, #6]
10005e0a:	6439      	str	r1, [r7, #64]	@ 0x40
10005e0c:	8893      	ldrh	r3, [r2, #4]
10005e0e:	4299      	cmp	r1, r3
10005e10:	d300      	bcc.n	10005e14 <__ssvfscanf_r+0xe6c>
10005e12:	e312      	b.n	1000643a <__ssvfscanf_r+0x1492>
10005e14:	6810      	ldr	r0, [r2, #0]
10005e16:	6c3a      	ldr	r2, [r7, #64]	@ 0x40
10005e18:	6cf9      	ldr	r1, [r7, #76]	@ 0x4c
10005e1a:	1c53      	adds	r3, r2, #1
10005e1c:	80cb      	strh	r3, [r1, #6]
10005e1e:	4643      	mov	r3, r8
10005e20:	0095      	lsls	r5, r2, #2
10005e22:	502b      	str	r3, [r5, r0]
10005e24:	2320      	movs	r3, #32
10005e26:	0018      	movs	r0, r3
10005e28:	2220      	movs	r2, #32
10005e2a:	4694      	mov	ip, r2
10005e2c:	3240      	adds	r2, #64	@ 0x40
10005e2e:	4691      	mov	r9, r2
10005e30:	44b9      	add	r9, r7
10005e32:	44cc      	add	ip, r9
10005e34:	4662      	mov	r2, ip
10005e36:	0011      	movs	r1, r2
10005e38:	6833      	ldr	r3, [r6, #0]
10005e3a:	643a      	str	r2, [r7, #64]	@ 0x40
10005e3c:	781a      	ldrb	r2, [r3, #0]
10005e3e:	5c8a      	ldrb	r2, [r1, r2]
10005e40:	2a00      	cmp	r2, #0
10005e42:	d101      	bne.n	10005e48 <__ssvfscanf_r+0xea0>
10005e44:	f7ff f955 	bl	100050f2 <__ssvfscanf_r+0x14a>
10005e48:	465a      	mov	r2, fp
10005e4a:	4655      	mov	r5, sl
10005e4c:	4681      	mov	r9, r0
10005e4e:	46a2      	mov	sl, r4
10005e50:	63ba      	str	r2, [r7, #56]	@ 0x38
10005e52:	e01f      	b.n	10005e94 <__ssvfscanf_r+0xeec>
10005e54:	fffff47f 	.word	0xfffff47f
10005e58:	1000b608 	.word	0x1000b608
10005e5c:	fffffdff 	.word	0xfffffdff
10005e60:	fffffc7f 	.word	0xfffffc7f
10005e64:	1000b675 	.word	0x1000b675
10005e68:	4653      	mov	r3, sl
10005e6a:	1ad3      	subs	r3, r2, r3
10005e6c:	469b      	mov	fp, r3
10005e6e:	0014      	movs	r4, r2
10005e70:	454b      	cmp	r3, r9
10005e72:	d300      	bcc.n	10005e76 <__ssvfscanf_r+0xece>
10005e74:	e19d      	b.n	100061b2 <__ssvfscanf_r+0x120a>
10005e76:	3d01      	subs	r5, #1
10005e78:	2d00      	cmp	r5, #0
10005e7a:	d100      	bne.n	10005e7e <__ssvfscanf_r+0xed6>
10005e7c:	e1f0      	b.n	10006260 <__ssvfscanf_r+0x12b8>
10005e7e:	6873      	ldr	r3, [r6, #4]
10005e80:	2b00      	cmp	r3, #0
10005e82:	dc00      	bgt.n	10005e86 <__ssvfscanf_r+0xede>
10005e84:	e183      	b.n	1000618e <__ssvfscanf_r+0x11e6>
10005e86:	6833      	ldr	r3, [r6, #0]
10005e88:	6c39      	ldr	r1, [r7, #64]	@ 0x40
10005e8a:	781a      	ldrb	r2, [r3, #0]
10005e8c:	5c8a      	ldrb	r2, [r1, r2]
10005e8e:	2a00      	cmp	r2, #0
10005e90:	d100      	bne.n	10005e94 <__ssvfscanf_r+0xeec>
10005e92:	e1e5      	b.n	10006260 <__ssvfscanf_r+0x12b8>
10005e94:	6872      	ldr	r2, [r6, #4]
10005e96:	3a01      	subs	r2, #1
10005e98:	6072      	str	r2, [r6, #4]
10005e9a:	1c5a      	adds	r2, r3, #1
10005e9c:	6032      	str	r2, [r6, #0]
10005e9e:	781b      	ldrb	r3, [r3, #0]
10005ea0:	1c62      	adds	r2, r4, #1
10005ea2:	7023      	strb	r3, [r4, #0]
10005ea4:	4643      	mov	r3, r8
10005ea6:	2b00      	cmp	r3, #0
10005ea8:	d1de      	bne.n	10005e68 <__ssvfscanf_r+0xec0>
10005eaa:	0014      	movs	r4, r2
10005eac:	e7e3      	b.n	10005e76 <__ssvfscanf_r+0xece>
10005eae:	238f      	movs	r3, #143	@ 0x8f
10005eb0:	4223      	tst	r3, r4
10005eb2:	d001      	beq.n	10005eb8 <__ssvfscanf_r+0xf10>
10005eb4:	f7ff f91d 	bl	100050f2 <__ssvfscanf_r+0x14a>
10005eb8:	4653      	mov	r3, sl
10005eba:	009b      	lsls	r3, r3, #2
10005ebc:	4453      	add	r3, sl
10005ebe:	005b      	lsls	r3, r3, #1
10005ec0:	189b      	adds	r3, r3, r2
10005ec2:	2230      	movs	r2, #48	@ 0x30
10005ec4:	4252      	negs	r2, r2
10005ec6:	4692      	mov	sl, r2
10005ec8:	449a      	add	sl, r3
10005eca:	6dfb      	ldr	r3, [r7, #92]	@ 0x5c
10005ecc:	65f9      	str	r1, [r7, #92]	@ 0x5c
10005ece:	785a      	ldrb	r2, [r3, #1]
10005ed0:	f7ff f8f4 	bl	100050bc <__ssvfscanf_r+0x114>
10005ed4:	2504      	movs	r5, #4
10005ed6:	65f9      	str	r1, [r7, #92]	@ 0x5c
10005ed8:	f7ff f94a 	bl	10005170 <__ssvfscanf_r+0x1c8>
10005edc:	6c3b      	ldr	r3, [r7, #64]	@ 0x40
10005ede:	445b      	add	r3, fp
10005ee0:	2b00      	cmp	r3, #0
10005ee2:	d000      	beq.n	10005ee6 <__ssvfscanf_r+0xf3e>
10005ee4:	e5e9      	b.n	10005aba <__ssvfscanf_r+0xb12>
10005ee6:	e4cc      	b.n	10005882 <__ssvfscanf_r+0x8da>
10005ee8:	22fd      	movs	r2, #253	@ 0xfd
10005eea:	3b03      	subs	r3, #3
10005eec:	4213      	tst	r3, r2
10005eee:	d000      	beq.n	10005ef2 <__ssvfscanf_r+0xf4a>
10005ef0:	e4e4      	b.n	100058bc <__ssvfscanf_r+0x914>
10005ef2:	3304      	adds	r3, #4
10005ef4:	b2db      	uxtb	r3, r3
10005ef6:	469b      	mov	fp, r3
10005ef8:	e4ca      	b.n	10005890 <__ssvfscanf_r+0x8e8>
10005efa:	6c3b      	ldr	r3, [r7, #64]	@ 0x40
10005efc:	2b02      	cmp	r3, #2
10005efe:	d000      	beq.n	10005f02 <__ssvfscanf_r+0xf5a>
10005f00:	e5a4      	b.n	10005a4c <__ssvfscanf_r+0xaa4>
10005f02:	2303      	movs	r3, #3
10005f04:	643b      	str	r3, [r7, #64]	@ 0x40
10005f06:	e4c3      	b.n	10005890 <__ssvfscanf_r+0x8e8>
10005f08:	6c3b      	ldr	r3, [r7, #64]	@ 0x40
10005f0a:	445b      	add	r3, fp
10005f0c:	2b00      	cmp	r3, #0
10005f0e:	d000      	beq.n	10005f12 <__ssvfscanf_r+0xf6a>
10005f10:	e5ab      	b.n	10005a6a <__ssvfscanf_r+0xac2>
10005f12:	e4b6      	b.n	10005882 <__ssvfscanf_r+0x8da>
10005f14:	4be1      	ldr	r3, [pc, #900]	@ (1000629c <__ssvfscanf_r+0x12f4>)
10005f16:	401c      	ands	r4, r3
10005f18:	e60b      	b.n	10005b32 <__ssvfscanf_r+0xb8a>
10005f1a:	6813      	ldr	r3, [r2, #0]
10005f1c:	6018      	str	r0, [r3, #0]
10005f1e:	e640      	b.n	10005ba2 <__ssvfscanf_r+0xbfa>
10005f20:	2380      	movs	r3, #128	@ 0x80
10005f22:	009b      	lsls	r3, r3, #2
10005f24:	431c      	orrs	r4, r3
10005f26:	4bde      	ldr	r3, [pc, #888]	@ (100062a0 <__ssvfscanf_r+0x12f8>)
10005f28:	2503      	movs	r5, #3
10005f2a:	627b      	str	r3, [r7, #36]	@ 0x24
10005f2c:	2310      	movs	r3, #16
10005f2e:	65f9      	str	r1, [r7, #92]	@ 0x5c
10005f30:	647b      	str	r3, [r7, #68]	@ 0x44
10005f32:	f7ff f91d 	bl	10005170 <__ssvfscanf_r+0x1c8>
10005f36:	6b3b      	ldr	r3, [r7, #48]	@ 0x30
10005f38:	69ba      	ldr	r2, [r7, #24]
10005f3a:	4293      	cmp	r3, r2
10005f3c:	d100      	bne.n	10005f40 <__ssvfscanf_r+0xf98>
10005f3e:	e50a      	b.n	10005956 <__ssvfscanf_r+0x9ae>
10005f40:	1ad2      	subs	r2, r2, r3
10005f42:	2160      	movs	r1, #96	@ 0x60
10005f44:	4bd7      	ldr	r3, [pc, #860]	@ (100062a4 <__ssvfscanf_r+0x12fc>)
10005f46:	185b      	adds	r3, r3, r1
10005f48:	19db      	adds	r3, r3, r7
10005f4a:	429d      	cmp	r5, r3
10005f4c:	d302      	bcc.n	10005f54 <__ssvfscanf_r+0xfac>
10005f4e:	4bd6      	ldr	r3, [pc, #856]	@ (100062a8 <__ssvfscanf_r+0x1300>)
10005f50:	185b      	adds	r3, r3, r1
10005f52:	19dd      	adds	r5, r3, r7
10005f54:	0028      	movs	r0, r5
10005f56:	49d5      	ldr	r1, [pc, #852]	@ (100062ac <__ssvfscanf_r+0x1304>)
10005f58:	f7fe fce6 	bl	10004928 <__wrap_sprintf>
10005f5c:	e4fb      	b.n	10005956 <__ssvfscanf_r+0x9ae>
10005f5e:	4655      	mov	r5, sl
10005f60:	3d01      	subs	r5, #1
10005f62:	0032      	movs	r2, r6
10005f64:	7829      	ldrb	r1, [r5, #0]
10005f66:	6db8      	ldr	r0, [r7, #88]	@ 0x58
10005f68:	f003 fc10 	bl	1000978c <_sungetc_r>
10005f6c:	46aa      	mov	sl, r5
10005f6e:	e5f8      	b.n	10005b62 <__ssvfscanf_r+0xbba>
10005f70:	2320      	movs	r3, #32
10005f72:	469c      	mov	ip, r3
10005f74:	3340      	adds	r3, #64	@ 0x40
10005f76:	4698      	mov	r8, r3
10005f78:	44b8      	add	r8, r7
10005f7a:	44c4      	add	ip, r8
10005f7c:	4663      	mov	r3, ip
10005f7e:	0019      	movs	r1, r3
10005f80:	6832      	ldr	r2, [r6, #0]
10005f82:	643b      	str	r3, [r7, #64]	@ 0x40
10005f84:	7813      	ldrb	r3, [r2, #0]
10005f86:	5ccb      	ldrb	r3, [r1, r3]
10005f88:	2b00      	cmp	r3, #0
10005f8a:	d101      	bne.n	10005f90 <__ssvfscanf_r+0xfe8>
10005f8c:	f7ff f8d1 	bl	10005132 <__ssvfscanf_r+0x18a>
10005f90:	3201      	adds	r2, #1
10005f92:	6032      	str	r2, [r6, #0]
10005f94:	4652      	mov	r2, sl
10005f96:	6873      	ldr	r3, [r6, #4]
10005f98:	3b01      	subs	r3, #1
10005f9a:	6073      	str	r3, [r6, #4]
10005f9c:	2a01      	cmp	r2, #1
10005f9e:	d100      	bne.n	10005fa2 <__ssvfscanf_r+0xffa>
10005fa0:	e608      	b.n	10005bb4 <__ssvfscanf_r+0xc0c>
10005fa2:	6c3c      	ldr	r4, [r7, #64]	@ 0x40
10005fa4:	e00e      	b.n	10005fc4 <__ssvfscanf_r+0x101c>
10005fa6:	6832      	ldr	r2, [r6, #0]
10005fa8:	7813      	ldrb	r3, [r2, #0]
10005faa:	5ce3      	ldrb	r3, [r4, r3]
10005fac:	2b00      	cmp	r3, #0
10005fae:	d100      	bne.n	10005fb2 <__ssvfscanf_r+0x100a>
10005fb0:	e600      	b.n	10005bb4 <__ssvfscanf_r+0xc0c>
10005fb2:	6873      	ldr	r3, [r6, #4]
10005fb4:	3201      	adds	r2, #1
10005fb6:	3b01      	subs	r3, #1
10005fb8:	3501      	adds	r5, #1
10005fba:	6073      	str	r3, [r6, #4]
10005fbc:	6032      	str	r2, [r6, #0]
10005fbe:	45aa      	cmp	sl, r5
10005fc0:	d100      	bne.n	10005fc4 <__ssvfscanf_r+0x101c>
10005fc2:	e5f7      	b.n	10005bb4 <__ssvfscanf_r+0xc0c>
10005fc4:	2b00      	cmp	r3, #0
10005fc6:	dcee      	bgt.n	10005fa6 <__ssvfscanf_r+0xffe>
10005fc8:	0031      	movs	r1, r6
10005fca:	6db8      	ldr	r0, [r7, #88]	@ 0x58
10005fcc:	f003 fc1c 	bl	10009808 <__ssrefill_r>
10005fd0:	2800      	cmp	r0, #0
10005fd2:	d0e8      	beq.n	10005fa6 <__ssvfscanf_r+0xffe>
10005fd4:	e5ee      	b.n	10005bb4 <__ssvfscanf_r+0xc0c>
10005fd6:	2300      	movs	r3, #0
10005fd8:	633b      	str	r3, [r7, #48]	@ 0x30
10005fda:	62bb      	str	r3, [r7, #40]	@ 0x28
10005fdc:	63bb      	str	r3, [r7, #56]	@ 0x38
10005fde:	3364      	adds	r3, #100	@ 0x64
10005fe0:	18fd      	adds	r5, r7, r3
10005fe2:	f7ff fb29 	bl	10005638 <__ssvfscanf_r+0x690>
10005fe6:	6bbb      	ldr	r3, [r7, #56]	@ 0x38
10005fe8:	4699      	mov	r9, r3
10005fea:	2300      	movs	r3, #0
10005fec:	469a      	mov	sl, r3
10005fee:	637b      	str	r3, [r7, #52]	@ 0x34
10005ff0:	633b      	str	r3, [r7, #48]	@ 0x30
10005ff2:	63bb      	str	r3, [r7, #56]	@ 0x38
10005ff4:	f7ff fa51 	bl	1000549a <__ssvfscanf_r+0x4f2>
10005ff8:	6dbb      	ldr	r3, [r7, #88]	@ 0x58
10005ffa:	4645      	mov	r5, r8
10005ffc:	2400      	movs	r4, #0
10005ffe:	4698      	mov	r8, r3
10006000:	e00a      	b.n	10006018 <__ssvfscanf_r+0x1070>
10006002:	18d2      	adds	r2, r2, r3
10006004:	0031      	movs	r1, r6
10006006:	4640      	mov	r0, r8
10006008:	6032      	str	r2, [r6, #0]
1000600a:	18e4      	adds	r4, r4, r3
1000600c:	1aed      	subs	r5, r5, r3
1000600e:	f003 fbfb 	bl	10009808 <__ssrefill_r>
10006012:	2800      	cmp	r0, #0
10006014:	d000      	beq.n	10006018 <__ssvfscanf_r+0x1070>
10006016:	e381      	b.n	1000671c <__ssvfscanf_r+0x1774>
10006018:	6873      	ldr	r3, [r6, #4]
1000601a:	6832      	ldr	r2, [r6, #0]
1000601c:	429d      	cmp	r5, r3
1000601e:	dcf0      	bgt.n	10006002 <__ssvfscanf_r+0x105a>
10006020:	46a8      	mov	r8, r5
10006022:	1b5b      	subs	r3, r3, r5
10006024:	4442      	add	r2, r8
10006026:	4444      	add	r4, r8
10006028:	6073      	str	r3, [r6, #4]
1000602a:	6032      	str	r2, [r6, #0]
1000602c:	e2bb      	b.n	100065a6 <__ssvfscanf_r+0x15fe>
1000602e:	2300      	movs	r3, #0
10006030:	469b      	mov	fp, r3
10006032:	643b      	str	r3, [r7, #64]	@ 0x40
10006034:	633b      	str	r3, [r7, #48]	@ 0x30
10006036:	3364      	adds	r3, #100	@ 0x64
10006038:	18fb      	adds	r3, r7, r3
1000603a:	4699      	mov	r9, r3
1000603c:	f7ff f8e7 	bl	1000520e <__ssvfscanf_r+0x266>
10006040:	2260      	movs	r2, #96	@ 0x60
10006042:	2320      	movs	r3, #32
10006044:	189b      	adds	r3, r3, r2
10006046:	19d8      	adds	r0, r3, r7
10006048:	f001 f838 	bl	100070bc <__sccl>
1000604c:	2340      	movs	r3, #64	@ 0x40
1000604e:	2501      	movs	r5, #1
10006050:	65f8      	str	r0, [r7, #92]	@ 0x5c
10006052:	431c      	orrs	r4, r3
10006054:	f7ff f88c 	bl	10005170 <__ssvfscanf_r+0x1c8>
10006058:	2388      	movs	r3, #136	@ 0x88
1000605a:	e762      	b.n	10005f22 <__ssvfscanf_r+0xf7a>
1000605c:	4b90      	ldr	r3, [pc, #576]	@ (100062a0 <__ssvfscanf_r+0x12f8>)
1000605e:	2503      	movs	r5, #3
10006060:	627b      	str	r3, [r7, #36]	@ 0x24
10006062:	230a      	movs	r3, #10
10006064:	65f9      	str	r1, [r7, #92]	@ 0x5c
10006066:	647b      	str	r3, [r7, #68]	@ 0x44
10006068:	f7ff f882 	bl	10005170 <__ssvfscanf_r+0x1c8>
1000606c:	0723      	lsls	r3, r4, #28
1000606e:	d001      	beq.n	10006074 <__ssvfscanf_r+0x10cc>
10006070:	f7ff f83f 	bl	100050f2 <__ssvfscanf_r+0x14a>
10006074:	6dfb      	ldr	r3, [r7, #92]	@ 0x5c
10006076:	785a      	ldrb	r2, [r3, #1]
10006078:	2302      	movs	r3, #2
1000607a:	2a6c      	cmp	r2, #108	@ 0x6c
1000607c:	d100      	bne.n	10006080 <__ssvfscanf_r+0x10d8>
1000607e:	e169      	b.n	10006354 <__ssvfscanf_r+0x13ac>
10006080:	2301      	movs	r3, #1
10006082:	65f9      	str	r1, [r7, #92]	@ 0x5c
10006084:	431c      	orrs	r4, r3
10006086:	f7ff f819 	bl	100050bc <__ssvfscanf_r+0x114>
1000608a:	238f      	movs	r3, #143	@ 0x8f
1000608c:	001a      	movs	r2, r3
1000608e:	4022      	ands	r2, r4
10006090:	4223      	tst	r3, r4
10006092:	d001      	beq.n	10006098 <__ssvfscanf_r+0x10f0>
10006094:	f7ff f82d 	bl	100050f2 <__ssvfscanf_r+0x14a>
10006098:	6cfb      	ldr	r3, [r7, #76]	@ 0x4c
1000609a:	2b00      	cmp	r3, #0
1000609c:	d100      	bne.n	100060a0 <__ssvfscanf_r+0x10f8>
1000609e:	e2b1      	b.n	10006604 <__ssvfscanf_r+0x165c>
100060a0:	2380      	movs	r3, #128	@ 0x80
100060a2:	431c      	orrs	r4, r3
100060a4:	f7ff f83b 	bl	1000511e <__ssvfscanf_r+0x176>
100060a8:	65f9      	str	r1, [r7, #92]	@ 0x5c
100060aa:	06e3      	lsls	r3, r4, #27
100060ac:	d501      	bpl.n	100060b2 <__ssvfscanf_r+0x110a>
100060ae:	f7fe ffab 	bl	10005008 <__ssvfscanf_r+0x60>
100060b2:	6bbb      	ldr	r3, [r7, #56]	@ 0x38
100060b4:	cb04      	ldmia	r3!, {r2}
100060b6:	0720      	lsls	r0, r4, #28
100060b8:	d400      	bmi.n	100060bc <__ssvfscanf_r+0x1114>
100060ba:	e22d      	b.n	10006518 <__ssvfscanf_r+0x1570>
100060bc:	6d78      	ldr	r0, [r7, #84]	@ 0x54
100060be:	7010      	strb	r0, [r2, #0]
100060c0:	63bb      	str	r3, [r7, #56]	@ 0x38
100060c2:	65f9      	str	r1, [r7, #92]	@ 0x5c
100060c4:	f7fe ffa0 	bl	10005008 <__ssvfscanf_r+0x60>
100060c8:	0723      	lsls	r3, r4, #28
100060ca:	d001      	beq.n	100060d0 <__ssvfscanf_r+0x1128>
100060cc:	f7ff f811 	bl	100050f2 <__ssvfscanf_r+0x14a>
100060d0:	6dfb      	ldr	r3, [r7, #92]	@ 0x5c
100060d2:	785a      	ldrb	r2, [r3, #1]
100060d4:	2a68      	cmp	r2, #104	@ 0x68
100060d6:	d100      	bne.n	100060da <__ssvfscanf_r+0x1132>
100060d8:	e13b      	b.n	10006352 <__ssvfscanf_r+0x13aa>
100060da:	2304      	movs	r3, #4
100060dc:	65f9      	str	r1, [r7, #92]	@ 0x5c
100060de:	431c      	orrs	r4, r3
100060e0:	f7fe ffec 	bl	100050bc <__ssvfscanf_r+0x114>
100060e4:	4b72      	ldr	r3, [pc, #456]	@ (100062b0 <__ssvfscanf_r+0x1308>)
100060e6:	2503      	movs	r5, #3
100060e8:	627b      	str	r3, [r7, #36]	@ 0x24
100060ea:	2300      	movs	r3, #0
100060ec:	65f9      	str	r1, [r7, #92]	@ 0x5c
100060ee:	647b      	str	r3, [r7, #68]	@ 0x44
100060f0:	f7ff f83e 	bl	10005170 <__ssvfscanf_r+0x1c8>
100060f4:	4653      	mov	r3, sl
100060f6:	4323      	orrs	r3, r4
100060f8:	469a      	mov	sl, r3
100060fa:	d001      	beq.n	10006100 <__ssvfscanf_r+0x1158>
100060fc:	f7fe fff9 	bl	100050f2 <__ssvfscanf_r+0x14a>
10006100:	6dfb      	ldr	r3, [r7, #92]	@ 0x5c
10006102:	2410      	movs	r4, #16
10006104:	785a      	ldrb	r2, [r3, #1]
10006106:	65f9      	str	r1, [r7, #92]	@ 0x5c
10006108:	f7fe ffd8 	bl	100050bc <__ssvfscanf_r+0x114>
1000610c:	4660      	mov	r0, ip
1000610e:	65f9      	str	r1, [r7, #92]	@ 0x5c
10006110:	f7fe ff99 	bl	10005046 <__ssvfscanf_r+0x9e>
10006114:	6873      	ldr	r3, [r6, #4]
10006116:	2500      	movs	r5, #0
10006118:	2b00      	cmp	r3, #0
1000611a:	dd01      	ble.n	10006120 <__ssvfscanf_r+0x1178>
1000611c:	f7ff fae4 	bl	100056e8 <__ssvfscanf_r+0x740>
10006120:	0031      	movs	r1, r6
10006122:	6db8      	ldr	r0, [r7, #88]	@ 0x58
10006124:	f003 fb70 	bl	10009808 <__ssrefill_r>
10006128:	2800      	cmp	r0, #0
1000612a:	d101      	bne.n	10006130 <__ssvfscanf_r+0x1188>
1000612c:	f7ff fadc 	bl	100056e8 <__ssvfscanf_r+0x740>
10006130:	69fb      	ldr	r3, [r7, #28]
10006132:	623c      	str	r4, [r7, #32]
10006134:	4698      	mov	r8, r3
10006136:	1e2c      	subs	r4, r5, #0
10006138:	4655      	mov	r5, sl
1000613a:	d001      	beq.n	10006140 <__ssvfscanf_r+0x1198>
1000613c:	f7fe ffcf 	bl	100050de <__ssvfscanf_r+0x136>
10006140:	6b7b      	ldr	r3, [r7, #52]	@ 0x34
10006142:	2b00      	cmp	r3, #0
10006144:	d000      	beq.n	10006148 <__ssvfscanf_r+0x11a0>
10006146:	e41b      	b.n	10005980 <__ssvfscanf_r+0x9d8>
10006148:	602b      	str	r3, [r5, #0]
1000614a:	6bbb      	ldr	r3, [r7, #56]	@ 0x38
1000614c:	2b00      	cmp	r3, #0
1000614e:	d101      	bne.n	10006154 <__ssvfscanf_r+0x11ac>
10006150:	f7ff fc13 	bl	1000597a <__ssvfscanf_r+0x9d2>
10006154:	6abb      	ldr	r3, [r7, #40]	@ 0x28
10006156:	6b3a      	ldr	r2, [r7, #48]	@ 0x30
10006158:	1ae9      	subs	r1, r5, r3
1000615a:	108b      	asrs	r3, r1, #2
1000615c:	3301      	adds	r3, #1
1000615e:	429a      	cmp	r2, r3
10006160:	d801      	bhi.n	10006166 <__ssvfscanf_r+0x11be>
10006162:	f7ff fc0a 	bl	1000597a <__ssvfscanf_r+0x9d2>
10006166:	6bbc      	ldr	r4, [r7, #56]	@ 0x38
10006168:	3104      	adds	r1, #4
1000616a:	6820      	ldr	r0, [r4, #0]
1000616c:	f7fd f830 	bl	100031d0 <__wrap_realloc>
10006170:	2800      	cmp	r0, #0
10006172:	d101      	bne.n	10006178 <__ssvfscanf_r+0x11d0>
10006174:	f7ff fc01 	bl	1000597a <__ssvfscanf_r+0x9d2>
10006178:	6020      	str	r0, [r4, #0]
1000617a:	f7ff fbfe 	bl	1000597a <__ssvfscanf_r+0x9d2>
1000617e:	4643      	mov	r3, r8
10006180:	681b      	ldr	r3, [r3, #0]
10006182:	2b04      	cmp	r3, #4
10006184:	d001      	beq.n	1000618a <__ssvfscanf_r+0x11e2>
10006186:	f7ff fa8e 	bl	100056a6 <__ssvfscanf_r+0x6fe>
1000618a:	f7ff fa90 	bl	100056ae <__ssvfscanf_r+0x706>
1000618e:	0031      	movs	r1, r6
10006190:	6db8      	ldr	r0, [r7, #88]	@ 0x58
10006192:	f003 fb39 	bl	10009808 <__ssrefill_r>
10006196:	2800      	cmp	r0, #0
10006198:	d100      	bne.n	1000619c <__ssvfscanf_r+0x11f4>
1000619a:	e674      	b.n	10005e86 <__ssvfscanf_r+0xede>
1000619c:	6bbb      	ldr	r3, [r7, #56]	@ 0x38
1000619e:	4655      	mov	r5, sl
100061a0:	469b      	mov	fp, r3
100061a2:	4648      	mov	r0, r9
100061a4:	4554      	cmp	r4, sl
100061a6:	d101      	bne.n	100061ac <__ssvfscanf_r+0x1204>
100061a8:	f7fe ff99 	bl	100050de <__ssvfscanf_r+0x136>
100061ac:	1b63      	subs	r3, r4, r5
100061ae:	469a      	mov	sl, r3
100061b0:	e060      	b.n	10006274 <__ssvfscanf_r+0x12cc>
100061b2:	464b      	mov	r3, r9
100061b4:	005b      	lsls	r3, r3, #1
100061b6:	4650      	mov	r0, sl
100061b8:	0019      	movs	r1, r3
100061ba:	4699      	mov	r9, r3
100061bc:	f7fd f808 	bl	100031d0 <__wrap_realloc>
100061c0:	4682      	mov	sl, r0
100061c2:	2800      	cmp	r0, #0
100061c4:	d100      	bne.n	100061c8 <__ssvfscanf_r+0x1220>
100061c6:	e0f6      	b.n	100063b6 <__ssvfscanf_r+0x140e>
100061c8:	465c      	mov	r4, fp
100061ca:	4643      	mov	r3, r8
100061cc:	4454      	add	r4, sl
100061ce:	6018      	str	r0, [r3, #0]
100061d0:	e651      	b.n	10005e76 <__ssvfscanf_r+0xece>
100061d2:	46d9      	mov	r9, fp
100061d4:	f7ff f996 	bl	10005504 <__ssvfscanf_r+0x55c>
100061d8:	464d      	mov	r5, r9
100061da:	f7ff fa80 	bl	100056de <__ssvfscanf_r+0x736>
100061de:	6ab8      	ldr	r0, [r7, #40]	@ 0x28
100061e0:	00d1      	lsls	r1, r2, #3
100061e2:	f7fc fff5 	bl	100031d0 <__wrap_realloc>
100061e6:	62b8      	str	r0, [r7, #40]	@ 0x28
100061e8:	2800      	cmp	r0, #0
100061ea:	d100      	bne.n	100061ee <__ssvfscanf_r+0x1246>
100061ec:	e0e3      	b.n	100063b6 <__ssvfscanf_r+0x140e>
100061ee:	0002      	movs	r2, r0
100061f0:	6b3b      	ldr	r3, [r7, #48]	@ 0x30
100061f2:	4442      	add	r2, r8
100061f4:	4692      	mov	sl, r2
100061f6:	6bba      	ldr	r2, [r7, #56]	@ 0x38
100061f8:	005b      	lsls	r3, r3, #1
100061fa:	6010      	str	r0, [r2, #0]
100061fc:	633b      	str	r3, [r7, #48]	@ 0x30
100061fe:	f7ff fa6e 	bl	100056de <__ssvfscanf_r+0x736>
10006202:	6b38      	ldr	r0, [r7, #48]	@ 0x30
10006204:	00d1      	lsls	r1, r2, #3
10006206:	f7fc ffe3 	bl	100031d0 <__wrap_realloc>
1000620a:	6338      	str	r0, [r7, #48]	@ 0x30
1000620c:	2800      	cmp	r0, #0
1000620e:	d100      	bne.n	10006212 <__ssvfscanf_r+0x126a>
10006210:	e0d1      	b.n	100063b6 <__ssvfscanf_r+0x140e>
10006212:	0002      	movs	r2, r0
10006214:	6b7b      	ldr	r3, [r7, #52]	@ 0x34
10006216:	444a      	add	r2, r9
10006218:	4692      	mov	sl, r2
1000621a:	6bba      	ldr	r2, [r7, #56]	@ 0x38
1000621c:	005b      	lsls	r3, r3, #1
1000621e:	6010      	str	r0, [r2, #0]
10006220:	637b      	str	r3, [r7, #52]	@ 0x34
10006222:	f7ff f96a 	bl	100054fa <__ssvfscanf_r+0x552>
10006226:	687b      	ldr	r3, [r7, #4]
10006228:	464c      	mov	r4, r9
1000622a:	469a      	mov	sl, r3
1000622c:	6d7b      	ldr	r3, [r7, #84]	@ 0x54
1000622e:	69f9      	ldr	r1, [r7, #28]
10006230:	4698      	mov	r8, r3
10006232:	68bb      	ldr	r3, [r7, #8]
10006234:	4640      	mov	r0, r8
10006236:	4699      	mov	r9, r3
10006238:	464a      	mov	r2, r9
1000623a:	4b1e      	ldr	r3, [pc, #120]	@ (100062b4 <__ssvfscanf_r+0x130c>)
1000623c:	401a      	ands	r2, r3
1000623e:	4691      	mov	r9, r2
10006240:	002a      	movs	r2, r5
10006242:	f003 f94b 	bl	100094dc <stpncpy>
10006246:	2301      	movs	r3, #1
10006248:	425b      	negs	r3, r3
1000624a:	469c      	mov	ip, r3
1000624c:	6b3b      	ldr	r3, [r7, #48]	@ 0x30
1000624e:	4680      	mov	r8, r0
10006250:	44e2      	add	sl, ip
10006252:	61bb      	str	r3, [r7, #24]
10006254:	f7ff fb25 	bl	100058a2 <__ssvfscanf_r+0x8fa>
10006258:	2300      	movs	r3, #0
1000625a:	60fb      	str	r3, [r7, #12]
1000625c:	f7ff faa1 	bl	100057a2 <__ssvfscanf_r+0x7fa>
10006260:	4655      	mov	r5, sl
10006262:	6bbb      	ldr	r3, [r7, #56]	@ 0x38
10006264:	4648      	mov	r0, r9
10006266:	469b      	mov	fp, r3
10006268:	1b63      	subs	r3, r4, r5
1000626a:	469a      	mov	sl, r3
1000626c:	42ac      	cmp	r4, r5
1000626e:	d101      	bne.n	10006274 <__ssvfscanf_r+0x12cc>
10006270:	f7fe ff3f 	bl	100050f2 <__ssvfscanf_r+0x14a>
10006274:	2300      	movs	r3, #0
10006276:	7023      	strb	r3, [r4, #0]
10006278:	4643      	mov	r3, r8
1000627a:	2b00      	cmp	r3, #0
1000627c:	d004      	beq.n	10006288 <__ssvfscanf_r+0x12e0>
1000627e:	4653      	mov	r3, sl
10006280:	1c59      	adds	r1, r3, #1
10006282:	4288      	cmp	r0, r1
10006284:	d900      	bls.n	10006288 <__ssvfscanf_r+0x12e0>
10006286:	e23f      	b.n	10006708 <__ssvfscanf_r+0x1760>
10006288:	6cbb      	ldr	r3, [r7, #72]	@ 0x48
1000628a:	3301      	adds	r3, #1
1000628c:	64bb      	str	r3, [r7, #72]	@ 0x48
1000628e:	6d7b      	ldr	r3, [r7, #84]	@ 0x54
10006290:	4453      	add	r3, sl
10006292:	657b      	str	r3, [r7, #84]	@ 0x54
10006294:	465b      	mov	r3, fp
10006296:	63bb      	str	r3, [r7, #56]	@ 0x38
10006298:	f7fe feb6 	bl	10005008 <__ssvfscanf_r+0x60>
1000629c:	fffffa7f 	.word	0xfffffa7f
100062a0:	10008f01 	.word	0x10008f01
100062a4:	00000273 	.word	0x00000273
100062a8:	00000272 	.word	0x00000272
100062ac:	1000b234 	.word	0x1000b234
100062b0:	10008765 	.word	0x10008765
100062b4:	fffffd7f 	.word	0xfffffd7f
100062b8:	0031      	movs	r1, r6
100062ba:	6db8      	ldr	r0, [r7, #88]	@ 0x58
100062bc:	f003 faa4 	bl	10009808 <__ssrefill_r>
100062c0:	2800      	cmp	r0, #0
100062c2:	d100      	bne.n	100062c6 <__ssvfscanf_r+0x131e>
100062c4:	e537      	b.n	10005d36 <__ssvfscanf_r+0xd8e>
100062c6:	465b      	mov	r3, fp
100062c8:	1b5d      	subs	r5, r3, r5
100062ca:	6d7b      	ldr	r3, [r7, #84]	@ 0x54
100062cc:	465c      	mov	r4, fp
100062ce:	469c      	mov	ip, r3
100062d0:	44ac      	add	ip, r5
100062d2:	4663      	mov	r3, ip
100062d4:	1c69      	adds	r1, r5, #1
100062d6:	657b      	str	r3, [r7, #84]	@ 0x54
100062d8:	2300      	movs	r3, #0
100062da:	7023      	strb	r3, [r4, #0]
100062dc:	464b      	mov	r3, r9
100062de:	2b00      	cmp	r3, #0
100062e0:	d101      	bne.n	100062e6 <__ssvfscanf_r+0x133e>
100062e2:	f7ff f81d 	bl	10005320 <__ssvfscanf_r+0x378>
100062e6:	6c3b      	ldr	r3, [r7, #64]	@ 0x40
100062e8:	4299      	cmp	r1, r3
100062ea:	d301      	bcc.n	100062f0 <__ssvfscanf_r+0x1348>
100062ec:	f7ff f818 	bl	10005320 <__ssvfscanf_r+0x378>
100062f0:	464b      	mov	r3, r9
100062f2:	6818      	ldr	r0, [r3, #0]
100062f4:	f7fc ff6c 	bl	100031d0 <__wrap_realloc>
100062f8:	2800      	cmp	r0, #0
100062fa:	d101      	bne.n	10006300 <__ssvfscanf_r+0x1358>
100062fc:	f7ff f810 	bl	10005320 <__ssvfscanf_r+0x378>
10006300:	464b      	mov	r3, r9
10006302:	6018      	str	r0, [r3, #0]
10006304:	f7ff f80c 	bl	10005320 <__ssvfscanf_r+0x378>
10006308:	4643      	mov	r3, r8
1000630a:	2b02      	cmp	r3, #2
1000630c:	d800      	bhi.n	10006310 <__ssvfscanf_r+0x1368>
1000630e:	e28b      	b.n	10006828 <__ssvfscanf_r+0x1880>
10006310:	002c      	movs	r4, r5
10006312:	2b03      	cmp	r3, #3
10006314:	d101      	bne.n	1000631a <__ssvfscanf_r+0x1372>
10006316:	f7ff fae4 	bl	100058e2 <__ssvfscanf_r+0x93a>
1000631a:	0033      	movs	r3, r6
1000631c:	4646      	mov	r6, r8
1000631e:	4698      	mov	r8, r3
10006320:	3c01      	subs	r4, #1
10006322:	4642      	mov	r2, r8
10006324:	7821      	ldrb	r1, [r4, #0]
10006326:	6db8      	ldr	r0, [r7, #88]	@ 0x58
10006328:	f003 fa30 	bl	1000978c <_sungetc_r>
1000632c:	19a3      	adds	r3, r4, r6
1000632e:	1b5b      	subs	r3, r3, r5
10006330:	b2db      	uxtb	r3, r3
10006332:	2b03      	cmp	r3, #3
10006334:	d1f4      	bne.n	10006320 <__ssvfscanf_r+0x1378>
10006336:	4643      	mov	r3, r8
10006338:	46b0      	mov	r8, r6
1000633a:	001e      	movs	r6, r3
1000633c:	4643      	mov	r3, r8
1000633e:	3b04      	subs	r3, #4
10006340:	b2db      	uxtb	r3, r3
10006342:	43da      	mvns	r2, r3
10006344:	18ad      	adds	r5, r5, r2
10006346:	6d7a      	ldr	r2, [r7, #84]	@ 0x54
10006348:	3a01      	subs	r2, #1
1000634a:	1ad3      	subs	r3, r2, r3
1000634c:	657b      	str	r3, [r7, #84]	@ 0x54
1000634e:	f7ff fac8 	bl	100058e2 <__ssvfscanf_r+0x93a>
10006352:	2308      	movs	r3, #8
10006354:	431c      	orrs	r4, r3
10006356:	6dfb      	ldr	r3, [r7, #92]	@ 0x5c
10006358:	789a      	ldrb	r2, [r3, #2]
1000635a:	3302      	adds	r3, #2
1000635c:	65fb      	str	r3, [r7, #92]	@ 0x5c
1000635e:	f7fe fead 	bl	100050bc <__ssvfscanf_r+0x114>
10006362:	6bbb      	ldr	r3, [r7, #56]	@ 0x38
10006364:	681b      	ldr	r3, [r3, #0]
10006366:	469a      	mov	sl, r3
10006368:	464b      	mov	r3, r9
1000636a:	079b      	lsls	r3, r3, #30
1000636c:	d400      	bmi.n	10006370 <__ssvfscanf_r+0x13c8>
1000636e:	e0bf      	b.n	100064f0 <__ssvfscanf_r+0x1548>
10006370:	4653      	mov	r3, sl
10006372:	601c      	str	r4, [r3, #0]
10006374:	605d      	str	r5, [r3, #4]
10006376:	f7ff fb00 	bl	1000597a <__ssvfscanf_r+0x9d2>
1000637a:	9600      	str	r6, [sp, #0]
1000637c:	4643      	mov	r3, r8
1000637e:	2201      	movs	r2, #1
10006380:	4651      	mov	r1, sl
10006382:	6db8      	ldr	r0, [r7, #88]	@ 0x58
10006384:	f003 fa60 	bl	10009848 <_sfread_r>
10006388:	1e04      	subs	r4, r0, #0
1000638a:	d000      	beq.n	1000638e <__ssvfscanf_r+0x13e6>
1000638c:	e518      	b.n	10005dc0 <__ssvfscanf_r+0xe18>
1000638e:	f7fe fea6 	bl	100050de <__ssvfscanf_r+0x136>
10006392:	4ad9      	ldr	r2, [pc, #868]	@ (100066f8 <__ssvfscanf_r+0x1750>)
10006394:	4293      	cmp	r3, r2
10006396:	d814      	bhi.n	100063c2 <__ssvfscanf_r+0x141a>
10006398:	3308      	adds	r3, #8
1000639a:	b29b      	uxth	r3, r3
1000639c:	0099      	lsls	r1, r3, #2
1000639e:	4698      	mov	r8, r3
100063a0:	6cfb      	ldr	r3, [r7, #76]	@ 0x4c
100063a2:	6818      	ldr	r0, [r3, #0]
100063a4:	f7fc ff14 	bl	100031d0 <__wrap_realloc>
100063a8:	6cfb      	ldr	r3, [r7, #76]	@ 0x4c
100063aa:	2800      	cmp	r0, #0
100063ac:	d007      	beq.n	100063be <__ssvfscanf_r+0x1416>
100063ae:	4642      	mov	r2, r8
100063b0:	6018      	str	r0, [r3, #0]
100063b2:	809a      	strh	r2, [r3, #4]
100063b4:	e490      	b.n	10005cd8 <__ssvfscanf_r+0xd30>
100063b6:	6cfb      	ldr	r3, [r7, #76]	@ 0x4c
100063b8:	2b00      	cmp	r3, #0
100063ba:	d100      	bne.n	100063be <__ssvfscanf_r+0x1416>
100063bc:	e22f      	b.n	1000681e <__ssvfscanf_r+0x1876>
100063be:	88db      	ldrh	r3, [r3, #6]
100063c0:	643b      	str	r3, [r7, #64]	@ 0x40
100063c2:	6cfb      	ldr	r3, [r7, #76]	@ 0x4c
100063c4:	6818      	ldr	r0, [r3, #0]
100063c6:	6c3b      	ldr	r3, [r7, #64]	@ 0x40
100063c8:	2b00      	cmp	r3, #0
100063ca:	d00e      	beq.n	100063ea <__ssvfscanf_r+0x1442>
100063cc:	0005      	movs	r5, r0
100063ce:	2400      	movs	r4, #0
100063d0:	2600      	movs	r6, #0
100063d2:	4681      	mov	r9, r0
100063d4:	4698      	mov	r8, r3
100063d6:	682b      	ldr	r3, [r5, #0]
100063d8:	3401      	adds	r4, #1
100063da:	6818      	ldr	r0, [r3, #0]
100063dc:	f7fc ff0a 	bl	100031f4 <__wrap_free>
100063e0:	cd08      	ldmia	r5!, {r3}
100063e2:	601e      	str	r6, [r3, #0]
100063e4:	45a0      	cmp	r8, r4
100063e6:	dcf6      	bgt.n	100063d6 <__ssvfscanf_r+0x142e>
100063e8:	4648      	mov	r0, r9
100063ea:	2301      	movs	r3, #1
100063ec:	425b      	negs	r3, r3
100063ee:	64bb      	str	r3, [r7, #72]	@ 0x48
100063f0:	f7fe fe84 	bl	100050fc <__ssvfscanf_r+0x154>
100063f4:	6c3b      	ldr	r3, [r7, #64]	@ 0x40
100063f6:	623d      	str	r5, [r7, #32]
100063f8:	469b      	mov	fp, r3
100063fa:	6abb      	ldr	r3, [r7, #40]	@ 0x28
100063fc:	4699      	mov	r9, r3
100063fe:	6bbb      	ldr	r3, [r7, #56]	@ 0x38
10006400:	2b00      	cmp	r3, #0
10006402:	d007      	beq.n	10006414 <__ssvfscanf_r+0x146c>
10006404:	4653      	mov	r3, sl
10006406:	6b3a      	ldr	r2, [r7, #48]	@ 0x30
10006408:	1a99      	subs	r1, r3, r2
1000640a:	6b7a      	ldr	r2, [r7, #52]	@ 0x34
1000640c:	108b      	asrs	r3, r1, #2
1000640e:	429a      	cmp	r2, r3
10006410:	d900      	bls.n	10006414 <__ssvfscanf_r+0x146c>
10006412:	e0e1      	b.n	100065d8 <__ssvfscanf_r+0x1630>
10006414:	465b      	mov	r3, fp
10006416:	425a      	negs	r2, r3
10006418:	4153      	adcs	r3, r2
1000641a:	6cba      	ldr	r2, [r7, #72]	@ 0x48
1000641c:	4694      	mov	ip, r2
1000641e:	449c      	add	ip, r3
10006420:	4663      	mov	r3, ip
10006422:	64bb      	str	r3, [r7, #72]	@ 0x48
10006424:	464b      	mov	r3, r9
10006426:	63bb      	str	r3, [r7, #56]	@ 0x38
10006428:	f7fe fdee 	bl	10005008 <__ssvfscanf_r+0x60>
1000642c:	68fb      	ldr	r3, [r7, #12]
1000642e:	3b01      	subs	r3, #1
10006430:	60fb      	str	r3, [r7, #12]
10006432:	f7ff fa36 	bl	100058a2 <__ssvfscanf_r+0x8fa>
10006436:	2101      	movs	r1, #1
10006438:	e74e      	b.n	100062d8 <__ssvfscanf_r+0x1330>
1000643a:	4aaf      	ldr	r2, [pc, #700]	@ (100066f8 <__ssvfscanf_r+0x1750>)
1000643c:	4293      	cmp	r3, r2
1000643e:	d8c0      	bhi.n	100063c2 <__ssvfscanf_r+0x141a>
10006440:	3308      	adds	r3, #8
10006442:	b29d      	uxth	r5, r3
10006444:	6cfb      	ldr	r3, [r7, #76]	@ 0x4c
10006446:	00a9      	lsls	r1, r5, #2
10006448:	6818      	ldr	r0, [r3, #0]
1000644a:	f7fc fec1 	bl	100031d0 <__wrap_realloc>
1000644e:	6cfb      	ldr	r3, [r7, #76]	@ 0x4c
10006450:	2800      	cmp	r0, #0
10006452:	d0b4      	beq.n	100063be <__ssvfscanf_r+0x1416>
10006454:	6018      	str	r0, [r3, #0]
10006456:	809d      	strh	r5, [r3, #4]
10006458:	e4dd      	b.n	10005e16 <__ssvfscanf_r+0xe6e>
1000645a:	4ba7      	ldr	r3, [pc, #668]	@ (100066f8 <__ssvfscanf_r+0x1750>)
1000645c:	429c      	cmp	r4, r3
1000645e:	d8b0      	bhi.n	100063c2 <__ssvfscanf_r+0x141a>
10006460:	6cfb      	ldr	r3, [r7, #76]	@ 0x4c
10006462:	3408      	adds	r4, #8
10006464:	b2a4      	uxth	r4, r4
10006466:	6818      	ldr	r0, [r3, #0]
10006468:	00a1      	lsls	r1, r4, #2
1000646a:	f7fc feb1 	bl	100031d0 <__wrap_realloc>
1000646e:	6cfb      	ldr	r3, [r7, #76]	@ 0x4c
10006470:	2800      	cmp	r0, #0
10006472:	d0a4      	beq.n	100063be <__ssvfscanf_r+0x1416>
10006474:	6018      	str	r0, [r3, #0]
10006476:	809c      	strh	r4, [r3, #4]
10006478:	f7fe febc 	bl	100051f4 <__ssvfscanf_r+0x24c>
1000647c:	4b9e      	ldr	r3, [pc, #632]	@ (100066f8 <__ssvfscanf_r+0x1750>)
1000647e:	429c      	cmp	r4, r3
10006480:	d89f      	bhi.n	100063c2 <__ssvfscanf_r+0x141a>
10006482:	6cfb      	ldr	r3, [r7, #76]	@ 0x4c
10006484:	3408      	adds	r4, #8
10006486:	b2a4      	uxth	r4, r4
10006488:	6818      	ldr	r0, [r3, #0]
1000648a:	00a1      	lsls	r1, r4, #2
1000648c:	f7fc fea0 	bl	100031d0 <__wrap_realloc>
10006490:	6cfb      	ldr	r3, [r7, #76]	@ 0x4c
10006492:	2800      	cmp	r0, #0
10006494:	d093      	beq.n	100063be <__ssvfscanf_r+0x1416>
10006496:	6018      	str	r0, [r3, #0]
10006498:	809c      	strh	r4, [r3, #4]
1000649a:	f7ff f8c3 	bl	10005624 <__ssvfscanf_r+0x67c>
1000649e:	4a96      	ldr	r2, [pc, #600]	@ (100066f8 <__ssvfscanf_r+0x1750>)
100064a0:	4293      	cmp	r3, r2
100064a2:	d88e      	bhi.n	100063c2 <__ssvfscanf_r+0x141a>
100064a4:	3308      	adds	r3, #8
100064a6:	b29c      	uxth	r4, r3
100064a8:	6cfb      	ldr	r3, [r7, #76]	@ 0x4c
100064aa:	00a1      	lsls	r1, r4, #2
100064ac:	6818      	ldr	r0, [r3, #0]
100064ae:	f7fc fe8f 	bl	100031d0 <__wrap_realloc>
100064b2:	6cfb      	ldr	r3, [r7, #76]	@ 0x4c
100064b4:	2800      	cmp	r0, #0
100064b6:	d082      	beq.n	100063be <__ssvfscanf_r+0x1416>
100064b8:	6018      	str	r0, [r3, #0]
100064ba:	809c      	strh	r4, [r3, #4]
100064bc:	f7fe ffe2 	bl	10005484 <__ssvfscanf_r+0x4dc>
100064c0:	0763      	lsls	r3, r4, #29
100064c2:	d477      	bmi.n	100065b4 <__ssvfscanf_r+0x160c>
100064c4:	07e3      	lsls	r3, r4, #31
100064c6:	d500      	bpl.n	100064ca <__ssvfscanf_r+0x1522>
100064c8:	e144      	b.n	10006754 <__ssvfscanf_r+0x17ac>
100064ca:	07a4      	lsls	r4, r4, #30
100064cc:	d400      	bmi.n	100064d0 <__ssvfscanf_r+0x1528>
100064ce:	e141      	b.n	10006754 <__ssvfscanf_r+0x17ac>
100064d0:	4b8a      	ldr	r3, [pc, #552]	@ (100066fc <__ssvfscanf_r+0x1754>)
100064d2:	6a7a      	ldr	r2, [r7, #36]	@ 0x24
100064d4:	429a      	cmp	r2, r3
100064d6:	d100      	bne.n	100064da <__ssvfscanf_r+0x1532>
100064d8:	e1b7      	b.n	1000684a <__ssvfscanf_r+0x18a2>
100064da:	2200      	movs	r2, #0
100064dc:	6c7b      	ldr	r3, [r7, #68]	@ 0x44
100064de:	6ab9      	ldr	r1, [r7, #40]	@ 0x28
100064e0:	6db8      	ldr	r0, [r7, #88]	@ 0x58
100064e2:	f002 fef9 	bl	100092d8 <_strtoll_r>
100064e6:	6bbb      	ldr	r3, [r7, #56]	@ 0x38
100064e8:	681b      	ldr	r3, [r3, #0]
100064ea:	c303      	stmia	r3!, {r0, r1}
100064ec:	f7ff fb59 	bl	10005ba2 <__ssvfscanf_r+0xbfa>
100064f0:	0002      	movs	r2, r0
100064f2:	000b      	movs	r3, r1
100064f4:	f7fc f973 	bl	100027de <__wrap___aeabi_dcmpun>
100064f8:	2800      	cmp	r0, #0
100064fa:	d176      	bne.n	100065ea <__ssvfscanf_r+0x1642>
100064fc:	0020      	movs	r0, r4
100064fe:	0029      	movs	r1, r5
10006500:	f7fc f9fe 	bl	10002900 <__wrap___aeabi_d2f>
10006504:	4653      	mov	r3, sl
10006506:	6018      	str	r0, [r3, #0]
10006508:	f7ff fa37 	bl	1000597a <__ssvfscanf_r+0x9d2>
1000650c:	2318      	movs	r3, #24
1000650e:	2260      	movs	r2, #96	@ 0x60
10006510:	189b      	adds	r3, r3, r2
10006512:	19dd      	adds	r5, r3, r7
10006514:	f7fe fea6 	bl	10005264 <__ssvfscanf_r+0x2bc>
10006518:	0760      	lsls	r0, r4, #29
1000651a:	d400      	bmi.n	1000651e <__ssvfscanf_r+0x1576>
1000651c:	e103      	b.n	10006726 <__ssvfscanf_r+0x177e>
1000651e:	6d79      	ldr	r1, [r7, #84]	@ 0x54
10006520:	63bb      	str	r3, [r7, #56]	@ 0x38
10006522:	8011      	strh	r1, [r2, #0]
10006524:	f7fe fd70 	bl	10005008 <__ssvfscanf_r+0x60>
10006528:	4a73      	ldr	r2, [pc, #460]	@ (100066f8 <__ssvfscanf_r+0x1750>)
1000652a:	4293      	cmp	r3, r2
1000652c:	d900      	bls.n	10006530 <__ssvfscanf_r+0x1588>
1000652e:	e748      	b.n	100063c2 <__ssvfscanf_r+0x141a>
10006530:	3308      	adds	r3, #8
10006532:	b29b      	uxth	r3, r3
10006534:	0099      	lsls	r1, r3, #2
10006536:	4699      	mov	r9, r3
10006538:	6cfb      	ldr	r3, [r7, #76]	@ 0x4c
1000653a:	6818      	ldr	r0, [r3, #0]
1000653c:	f7fc fe48 	bl	100031d0 <__wrap_realloc>
10006540:	6cfb      	ldr	r3, [r7, #76]	@ 0x4c
10006542:	2800      	cmp	r0, #0
10006544:	d100      	bne.n	10006548 <__ssvfscanf_r+0x15a0>
10006546:	e73a      	b.n	100063be <__ssvfscanf_r+0x1416>
10006548:	464a      	mov	r2, r9
1000654a:	6018      	str	r0, [r3, #0]
1000654c:	809a      	strh	r2, [r3, #4]
1000654e:	e41a      	b.n	10005d86 <__ssvfscanf_r+0xdde>
10006550:	6832      	ldr	r2, [r6, #0]
10006552:	496b      	ldr	r1, [pc, #428]	@ (10006700 <__ssvfscanf_r+0x1758>)
10006554:	7813      	ldrb	r3, [r2, #0]
10006556:	4688      	mov	r8, r1
10006558:	5ccb      	ldrb	r3, [r1, r3]
1000655a:	071b      	lsls	r3, r3, #28
1000655c:	d501      	bpl.n	10006562 <__ssvfscanf_r+0x15ba>
1000655e:	f7fe fd53 	bl	10005008 <__ssvfscanf_r+0x60>
10006562:	3201      	adds	r2, #1
10006564:	6032      	str	r2, [r6, #0]
10006566:	4652      	mov	r2, sl
10006568:	6873      	ldr	r3, [r6, #4]
1000656a:	2401      	movs	r4, #1
1000656c:	3b01      	subs	r3, #1
1000656e:	2508      	movs	r5, #8
10006570:	6073      	str	r3, [r6, #4]
10006572:	2a01      	cmp	r2, #1
10006574:	d10f      	bne.n	10006596 <__ssvfscanf_r+0x15ee>
10006576:	e16f      	b.n	10006858 <__ssvfscanf_r+0x18b0>
10006578:	4641      	mov	r1, r8
1000657a:	6832      	ldr	r2, [r6, #0]
1000657c:	7813      	ldrb	r3, [r2, #0]
1000657e:	5ccb      	ldrb	r3, [r1, r3]
10006580:	421d      	tst	r5, r3
10006582:	d110      	bne.n	100065a6 <__ssvfscanf_r+0x15fe>
10006584:	6873      	ldr	r3, [r6, #4]
10006586:	3201      	adds	r2, #1
10006588:	3b01      	subs	r3, #1
1000658a:	3401      	adds	r4, #1
1000658c:	6073      	str	r3, [r6, #4]
1000658e:	6032      	str	r2, [r6, #0]
10006590:	45a2      	cmp	sl, r4
10006592:	d100      	bne.n	10006596 <__ssvfscanf_r+0x15ee>
10006594:	e0f9      	b.n	1000678a <__ssvfscanf_r+0x17e2>
10006596:	2b00      	cmp	r3, #0
10006598:	dcee      	bgt.n	10006578 <__ssvfscanf_r+0x15d0>
1000659a:	0031      	movs	r1, r6
1000659c:	6db8      	ldr	r0, [r7, #88]	@ 0x58
1000659e:	f003 f933 	bl	10009808 <__ssrefill_r>
100065a2:	2800      	cmp	r0, #0
100065a4:	d0e8      	beq.n	10006578 <__ssvfscanf_r+0x15d0>
100065a6:	6d7b      	ldr	r3, [r7, #84]	@ 0x54
100065a8:	469c      	mov	ip, r3
100065aa:	44a4      	add	ip, r4
100065ac:	4663      	mov	r3, ip
100065ae:	657b      	str	r3, [r7, #84]	@ 0x54
100065b0:	f7fe fd2a 	bl	10005008 <__ssvfscanf_r+0x60>
100065b4:	6bbb      	ldr	r3, [r7, #56]	@ 0x38
100065b6:	681b      	ldr	r3, [r3, #0]
100065b8:	8018      	strh	r0, [r3, #0]
100065ba:	f7ff faf2 	bl	10005ba2 <__ssvfscanf_r+0xbfa>
100065be:	465b      	mov	r3, fp
100065c0:	3104      	adds	r1, #4
100065c2:	6818      	ldr	r0, [r3, #0]
100065c4:	f7fc fe04 	bl	100031d0 <__wrap_realloc>
100065c8:	2800      	cmp	r0, #0
100065ca:	d101      	bne.n	100065d0 <__ssvfscanf_r+0x1628>
100065cc:	f7fe fea8 	bl	10005320 <__ssvfscanf_r+0x378>
100065d0:	465b      	mov	r3, fp
100065d2:	6018      	str	r0, [r3, #0]
100065d4:	f7fe fea4 	bl	10005320 <__ssvfscanf_r+0x378>
100065d8:	6bbc      	ldr	r4, [r7, #56]	@ 0x38
100065da:	6820      	ldr	r0, [r4, #0]
100065dc:	f7fc fdf8 	bl	100031d0 <__wrap_realloc>
100065e0:	2800      	cmp	r0, #0
100065e2:	d100      	bne.n	100065e6 <__ssvfscanf_r+0x163e>
100065e4:	e716      	b.n	10006414 <__ssvfscanf_r+0x146c>
100065e6:	6020      	str	r0, [r4, #0]
100065e8:	e714      	b.n	10006414 <__ssvfscanf_r+0x146c>
100065ea:	4846      	ldr	r0, [pc, #280]	@ (10006704 <__ssvfscanf_r+0x175c>)
100065ec:	f000 fda6 	bl	1000713c <nanf>
100065f0:	4653      	mov	r3, sl
100065f2:	6018      	str	r0, [r3, #0]
100065f4:	f7ff f9c1 	bl	1000597a <__ssvfscanf_r+0x9d2>
100065f8:	2300      	movs	r3, #0
100065fa:	0014      	movs	r4, r2
100065fc:	4699      	mov	r9, r3
100065fe:	643b      	str	r3, [r7, #64]	@ 0x40
10006600:	f7ff fb73 	bl	10005cea <__ssvfscanf_r+0xd42>
10006604:	b082      	sub	sp, #8
10006606:	ab02      	add	r3, sp, #8
10006608:	64fb      	str	r3, [r7, #76]	@ 0x4c
1000660a:	9202      	str	r2, [sp, #8]
1000660c:	9203      	str	r2, [sp, #12]
1000660e:	e547      	b.n	100060a0 <__ssvfscanf_r+0x10f8>
10006610:	69fb      	ldr	r3, [r7, #28]
10006612:	4655      	mov	r5, sl
10006614:	4698      	mov	r8, r3
10006616:	623c      	str	r4, [r7, #32]
10006618:	e592      	b.n	10006140 <__ssvfscanf_r+0x1198>
1000661a:	6a3b      	ldr	r3, [r7, #32]
1000661c:	3302      	adds	r3, #2
1000661e:	d100      	bne.n	10006622 <__ssvfscanf_r+0x167a>
10006620:	e0ad      	b.n	1000677e <__ssvfscanf_r+0x17d6>
10006622:	464b      	mov	r3, r9
10006624:	6818      	ldr	r0, [r3, #0]
10006626:	f002 ff41 	bl	100094ac <iswspace>
1000662a:	2800      	cmp	r0, #0
1000662c:	d000      	beq.n	10006630 <__ssvfscanf_r+0x1688>
1000662e:	e0b1      	b.n	10006794 <__ssvfscanf_r+0x17ec>
10006630:	6d7b      	ldr	r3, [r7, #84]	@ 0x54
10006632:	469c      	mov	ip, r3
10006634:	44a4      	add	ip, r4
10006636:	4663      	mov	r3, ip
10006638:	657b      	str	r3, [r7, #84]	@ 0x54
1000663a:	6a3b      	ldr	r3, [r7, #32]
1000663c:	2b03      	cmp	r3, #3
1000663e:	d001      	beq.n	10006644 <__ssvfscanf_r+0x169c>
10006640:	f7fe fe32 	bl	100052a8 <__ssvfscanf_r+0x300>
10006644:	682b      	ldr	r3, [r5, #0]
10006646:	2b04      	cmp	r3, #4
10006648:	d001      	beq.n	1000664e <__ssvfscanf_r+0x16a6>
1000664a:	f7fe fe2d 	bl	100052a8 <__ssvfscanf_r+0x300>
1000664e:	f7fe fe2f 	bl	100052b0 <__ssvfscanf_r+0x308>
10006652:	005b      	lsls	r3, r3, #1
10006654:	0028      	movs	r0, r5
10006656:	0019      	movs	r1, r3
10006658:	643b      	str	r3, [r7, #64]	@ 0x40
1000665a:	f7fc fdb9 	bl	100031d0 <__wrap_realloc>
1000665e:	1e05      	subs	r5, r0, #0
10006660:	d100      	bne.n	10006664 <__ssvfscanf_r+0x16bc>
10006662:	e6a8      	b.n	100063b6 <__ssvfscanf_r+0x140e>
10006664:	464b      	mov	r3, r9
10006666:	4482      	add	sl, r0
10006668:	46d3      	mov	fp, sl
1000666a:	6018      	str	r0, [r3, #0]
1000666c:	f7ff fb5b 	bl	10005d26 <__ssvfscanf_r+0xd7e>
10006670:	693d      	ldr	r5, [r7, #16]
10006672:	230a      	movs	r3, #10
10006674:	2200      	movs	r2, #0
10006676:	6db8      	ldr	r0, [r7, #88]	@ 0x58
10006678:	1c69      	adds	r1, r5, #1
1000667a:	f002 f873 	bl	10008764 <_strtol_r>
1000667e:	697b      	ldr	r3, [r7, #20]
10006680:	1ac2      	subs	r2, r0, r3
10006682:	e45e      	b.n	10005f42 <__ssvfscanf_r+0xf9a>
10006684:	2500      	movs	r5, #0
10006686:	f7fe fe2a 	bl	100052de <__ssvfscanf_r+0x336>
1000668a:	2300      	movs	r3, #0
1000668c:	0014      	movs	r4, r2
1000668e:	0018      	movs	r0, r3
10006690:	4698      	mov	r8, r3
10006692:	f7ff fbc9 	bl	10005e28 <__ssvfscanf_r+0xe80>
10006696:	6bbb      	ldr	r3, [r7, #56]	@ 0x38
10006698:	469a      	mov	sl, r3
1000669a:	2300      	movs	r3, #0
1000669c:	637b      	str	r3, [r7, #52]	@ 0x34
1000669e:	633b      	str	r3, [r7, #48]	@ 0x30
100066a0:	63bb      	str	r3, [r7, #56]	@ 0x38
100066a2:	f7fe fefa 	bl	1000549a <__ssvfscanf_r+0x4f2>
100066a6:	63bb      	str	r3, [r7, #56]	@ 0x38
100066a8:	2300      	movs	r3, #0
100066aa:	4691      	mov	r9, r2
100066ac:	469b      	mov	fp, r3
100066ae:	643b      	str	r3, [r7, #64]	@ 0x40
100066b0:	633b      	str	r3, [r7, #48]	@ 0x30
100066b2:	f7fe fdac 	bl	1000520e <__ssvfscanf_r+0x266>
100066b6:	2300      	movs	r3, #0
100066b8:	6bbd      	ldr	r5, [r7, #56]	@ 0x38
100066ba:	633b      	str	r3, [r7, #48]	@ 0x30
100066bc:	62bb      	str	r3, [r7, #40]	@ 0x28
100066be:	63bb      	str	r3, [r7, #56]	@ 0x38
100066c0:	f7fe ffba 	bl	10005638 <__ssvfscanf_r+0x690>
100066c4:	69fb      	ldr	r3, [r7, #28]
100066c6:	4655      	mov	r5, sl
100066c8:	4698      	mov	r8, r3
100066ca:	464b      	mov	r3, r9
100066cc:	623c      	str	r4, [r7, #32]
100066ce:	2b00      	cmp	r3, #0
100066d0:	d100      	bne.n	100066d4 <__ssvfscanf_r+0x172c>
100066d2:	e535      	b.n	10006140 <__ssvfscanf_r+0x1198>
100066d4:	464c      	mov	r4, r9
100066d6:	46d1      	mov	r9, sl
100066d8:	6dbd      	ldr	r5, [r7, #88]	@ 0x58
100066da:	2390      	movs	r3, #144	@ 0x90
100066dc:	2260      	movs	r2, #96	@ 0x60
100066de:	005b      	lsls	r3, r3, #1
100066e0:	189b      	adds	r3, r3, r2
100066e2:	3c01      	subs	r4, #1
100066e4:	19db      	adds	r3, r3, r7
100066e6:	0032      	movs	r2, r6
100066e8:	0028      	movs	r0, r5
100066ea:	5d19      	ldrb	r1, [r3, r4]
100066ec:	f003 f84e 	bl	1000978c <_sungetc_r>
100066f0:	2c00      	cmp	r4, #0
100066f2:	d1f2      	bne.n	100066da <__ssvfscanf_r+0x1732>
100066f4:	464d      	mov	r5, r9
100066f6:	e523      	b.n	10006140 <__ssvfscanf_r+0x1198>
100066f8:	0000fff6 	.word	0x0000fff6
100066fc:	10008f01 	.word	0x10008f01
10006700:	1000b675 	.word	0x1000b675
10006704:	1000a73c 	.word	0x1000a73c
10006708:	4643      	mov	r3, r8
1000670a:	6818      	ldr	r0, [r3, #0]
1000670c:	f7fc fd60 	bl	100031d0 <__wrap_realloc>
10006710:	2800      	cmp	r0, #0
10006712:	d100      	bne.n	10006716 <__ssvfscanf_r+0x176e>
10006714:	e5b8      	b.n	10006288 <__ssvfscanf_r+0x12e0>
10006716:	4643      	mov	r3, r8
10006718:	6018      	str	r0, [r3, #0]
1000671a:	e5b5      	b.n	10006288 <__ssvfscanf_r+0x12e0>
1000671c:	2c00      	cmp	r4, #0
1000671e:	d000      	beq.n	10006722 <__ssvfscanf_r+0x177a>
10006720:	e741      	b.n	100065a6 <__ssvfscanf_r+0x15fe>
10006722:	f7fe fcdc 	bl	100050de <__ssvfscanf_r+0x136>
10006726:	07e0      	lsls	r0, r4, #31
10006728:	d42c      	bmi.n	10006784 <__ssvfscanf_r+0x17dc>
1000672a:	07a4      	lsls	r4, r4, #30
1000672c:	d52a      	bpl.n	10006784 <__ssvfscanf_r+0x17dc>
1000672e:	6d78      	ldr	r0, [r7, #84]	@ 0x54
10006730:	6010      	str	r0, [r2, #0]
10006732:	17c0      	asrs	r0, r0, #31
10006734:	6050      	str	r0, [r2, #4]
10006736:	e4c3      	b.n	100060c0 <__ssvfscanf_r+0x1118>
10006738:	0031      	movs	r1, r6
1000673a:	6db8      	ldr	r0, [r7, #88]	@ 0x58
1000673c:	f003 f864 	bl	10009808 <__ssrefill_r>
10006740:	2800      	cmp	r0, #0
10006742:	d101      	bne.n	10006748 <__ssvfscanf_r+0x17a0>
10006744:	f7fe fdd0 	bl	100052e8 <__ssvfscanf_r+0x340>
10006748:	2d00      	cmp	r5, #0
1000674a:	d001      	beq.n	10006750 <__ssvfscanf_r+0x17a8>
1000674c:	f7fe fcc7 	bl	100050de <__ssvfscanf_r+0x136>
10006750:	f7fe fdd3 	bl	100052fa <__ssvfscanf_r+0x352>
10006754:	6bbb      	ldr	r3, [r7, #56]	@ 0x38
10006756:	681b      	ldr	r3, [r3, #0]
10006758:	6018      	str	r0, [r3, #0]
1000675a:	f7ff fa22 	bl	10005ba2 <__ssvfscanf_r+0xbfa>
1000675e:	464a      	mov	r2, r9
10006760:	4b45      	ldr	r3, [pc, #276]	@ (10006878 <__ssvfscanf_r+0x18d0>)
10006762:	401a      	ands	r2, r3
10006764:	2301      	movs	r3, #1
10006766:	4691      	mov	r9, r2
10006768:	469b      	mov	fp, r3
1000676a:	f7ff f891 	bl	10005890 <__ssvfscanf_r+0x8e8>
1000676e:	464a      	mov	r2, r9
10006770:	4b41      	ldr	r3, [pc, #260]	@ (10006878 <__ssvfscanf_r+0x18d0>)
10006772:	401a      	ands	r2, r3
10006774:	2301      	movs	r3, #1
10006776:	4691      	mov	r9, r2
10006778:	643b      	str	r3, [r7, #64]	@ 0x40
1000677a:	f7ff f889 	bl	10005890 <__ssvfscanf_r+0x8e8>
1000677e:	0025      	movs	r5, r4
10006780:	f7fe fdad 	bl	100052de <__ssvfscanf_r+0x336>
10006784:	6d78      	ldr	r0, [r7, #84]	@ 0x54
10006786:	6010      	str	r0, [r2, #0]
10006788:	e49a      	b.n	100060c0 <__ssvfscanf_r+0x1118>
1000678a:	6d7b      	ldr	r3, [r7, #84]	@ 0x54
1000678c:	4453      	add	r3, sl
1000678e:	657b      	str	r3, [r7, #84]	@ 0x54
10006790:	f7fe fc3a 	bl	10005008 <__ssvfscanf_r+0x60>
10006794:	2c00      	cmp	r4, #0
10006796:	d101      	bne.n	1000679c <__ssvfscanf_r+0x17f4>
10006798:	f7fe fdaf 	bl	100052fa <__ssvfscanf_r+0x352>
1000679c:	6dbb      	ldr	r3, [r7, #88]	@ 0x58
1000679e:	6abd      	ldr	r5, [r7, #40]	@ 0x28
100067a0:	4698      	mov	r8, r3
100067a2:	3c01      	subs	r4, #1
100067a4:	0032      	movs	r2, r6
100067a6:	4640      	mov	r0, r8
100067a8:	5d29      	ldrb	r1, [r5, r4]
100067aa:	f002 ffef 	bl	1000978c <_sungetc_r>
100067ae:	2c00      	cmp	r4, #0
100067b0:	d1f7      	bne.n	100067a2 <__ssvfscanf_r+0x17fa>
100067b2:	f7fe fda2 	bl	100052fa <__ssvfscanf_r+0x352>
100067b6:	6abb      	ldr	r3, [r7, #40]	@ 0x28
100067b8:	002c      	movs	r4, r5
100067ba:	429d      	cmp	r5, r3
100067bc:	d801      	bhi.n	100067c2 <__ssvfscanf_r+0x181a>
100067be:	f7fe fcb8 	bl	10005132 <__ssvfscanf_r+0x18a>
100067c2:	0035      	movs	r5, r6
100067c4:	001e      	movs	r6, r3
100067c6:	3c01      	subs	r4, #1
100067c8:	002a      	movs	r2, r5
100067ca:	7821      	ldrb	r1, [r4, #0]
100067cc:	6db8      	ldr	r0, [r7, #88]	@ 0x58
100067ce:	f002 ffdd 	bl	1000978c <_sungetc_r>
100067d2:	42b4      	cmp	r4, r6
100067d4:	d1f7      	bne.n	100067c6 <__ssvfscanf_r+0x181e>
100067d6:	f7fe fc8c 	bl	100050f2 <__ssvfscanf_r+0x14a>
100067da:	6b38      	ldr	r0, [r7, #48]	@ 0x30
100067dc:	00d1      	lsls	r1, r2, #3
100067de:	f7fc fcf7 	bl	100031d0 <__wrap_realloc>
100067e2:	6338      	str	r0, [r7, #48]	@ 0x30
100067e4:	2800      	cmp	r0, #0
100067e6:	d100      	bne.n	100067ea <__ssvfscanf_r+0x1842>
100067e8:	e5e5      	b.n	100063b6 <__ssvfscanf_r+0x140e>
100067ea:	4681      	mov	r9, r0
100067ec:	465a      	mov	r2, fp
100067ee:	6c3b      	ldr	r3, [r7, #64]	@ 0x40
100067f0:	44a1      	add	r9, r4
100067f2:	005b      	lsls	r3, r3, #1
100067f4:	6010      	str	r0, [r2, #0]
100067f6:	643b      	str	r3, [r7, #64]	@ 0x40
100067f8:	f7fe fd71 	bl	100052de <__ssvfscanf_r+0x336>
100067fc:	6abb      	ldr	r3, [r7, #40]	@ 0x28
100067fe:	002c      	movs	r4, r5
10006800:	429d      	cmp	r5, r3
10006802:	d801      	bhi.n	10006808 <__ssvfscanf_r+0x1860>
10006804:	f7fe fc95 	bl	10005132 <__ssvfscanf_r+0x18a>
10006808:	3c01      	subs	r4, #1
1000680a:	0032      	movs	r2, r6
1000680c:	7821      	ldrb	r1, [r4, #0]
1000680e:	6db8      	ldr	r0, [r7, #88]	@ 0x58
10006810:	f002 ffbc 	bl	1000978c <_sungetc_r>
10006814:	6abb      	ldr	r3, [r7, #40]	@ 0x28
10006816:	429c      	cmp	r4, r3
10006818:	d1f6      	bne.n	10006808 <__ssvfscanf_r+0x1860>
1000681a:	f7fe fc6a 	bl	100050f2 <__ssvfscanf_r+0x14a>
1000681e:	2301      	movs	r3, #1
10006820:	425b      	negs	r3, r3
10006822:	64bb      	str	r3, [r7, #72]	@ 0x48
10006824:	f7fe fc6e 	bl	10005104 <__ssvfscanf_r+0x15c>
10006828:	6aba      	ldr	r2, [r7, #40]	@ 0x28
1000682a:	002c      	movs	r4, r5
1000682c:	4295      	cmp	r5, r2
1000682e:	d801      	bhi.n	10006834 <__ssvfscanf_r+0x188c>
10006830:	f7fe fc7f 	bl	10005132 <__ssvfscanf_r+0x18a>
10006834:	3c01      	subs	r4, #1
10006836:	0032      	movs	r2, r6
10006838:	7821      	ldrb	r1, [r4, #0]
1000683a:	6db8      	ldr	r0, [r7, #88]	@ 0x58
1000683c:	f002 ffa6 	bl	1000978c <_sungetc_r>
10006840:	6abb      	ldr	r3, [r7, #40]	@ 0x28
10006842:	429c      	cmp	r4, r3
10006844:	d1f6      	bne.n	10006834 <__ssvfscanf_r+0x188c>
10006846:	f7fe fc54 	bl	100050f2 <__ssvfscanf_r+0x14a>
1000684a:	2200      	movs	r2, #0
1000684c:	6c7b      	ldr	r3, [r7, #68]	@ 0x44
1000684e:	6ab9      	ldr	r1, [r7, #40]	@ 0x28
10006850:	6db8      	ldr	r0, [r7, #88]	@ 0x58
10006852:	f002 fe27 	bl	100094a4 <_strtoull_r>
10006856:	e646      	b.n	100064e6 <__ssvfscanf_r+0x153e>
10006858:	6d7b      	ldr	r3, [r7, #84]	@ 0x54
1000685a:	3301      	adds	r3, #1
1000685c:	657b      	str	r3, [r7, #84]	@ 0x54
1000685e:	f7fe fbd3 	bl	10005008 <__ssvfscanf_r+0x60>
10006862:	6cbb      	ldr	r3, [r7, #72]	@ 0x48
10006864:	2b00      	cmp	r3, #0
10006866:	d004      	beq.n	10006872 <__ssvfscanf_r+0x18ca>
10006868:	89b3      	ldrh	r3, [r6, #12]
1000686a:	065b      	lsls	r3, r3, #25
1000686c:	d401      	bmi.n	10006872 <__ssvfscanf_r+0x18ca>
1000686e:	f7fe fc43 	bl	100050f8 <__ssvfscanf_r+0x150>
10006872:	6cfb      	ldr	r3, [r7, #76]	@ 0x4c
10006874:	e5a3      	b.n	100063be <__ssvfscanf_r+0x1416>
10006876:	46c0      	nop			@ (mov r8, r8)
10006878:	fffff87f 	.word	0xfffff87f

1000687c <malloc>:
1000687c:	b510      	push	{r4, lr}
1000687e:	4b03      	ldr	r3, [pc, #12]	@ (1000688c <malloc+0x10>)
10006880:	0001      	movs	r1, r0
10006882:	6818      	ldr	r0, [r3, #0]
10006884:	f000 f80e 	bl	100068a4 <_malloc_r>
10006888:	bd10      	pop	{r4, pc}
1000688a:	46c0      	nop			@ (mov r8, r8)
1000688c:	2000076c 	.word	0x2000076c

10006890 <free>:
10006890:	b510      	push	{r4, lr}
10006892:	4b03      	ldr	r3, [pc, #12]	@ (100068a0 <free+0x10>)
10006894:	0001      	movs	r1, r0
10006896:	6818      	ldr	r0, [r3, #0]
10006898:	f001 fdce 	bl	10008438 <_free_r>
1000689c:	bd10      	pop	{r4, pc}
1000689e:	46c0      	nop			@ (mov r8, r8)
100068a0:	2000076c 	.word	0x2000076c

100068a4 <_malloc_r>:
100068a4:	b5f0      	push	{r4, r5, r6, r7, lr}
100068a6:	464e      	mov	r6, r9
100068a8:	4645      	mov	r5, r8
100068aa:	46de      	mov	lr, fp
100068ac:	4657      	mov	r7, sl
100068ae:	b5e0      	push	{r5, r6, r7, lr}
100068b0:	000d      	movs	r5, r1
100068b2:	350b      	adds	r5, #11
100068b4:	0006      	movs	r6, r0
100068b6:	b085      	sub	sp, #20
100068b8:	2d16      	cmp	r5, #22
100068ba:	d827      	bhi.n	1000690c <_malloc_r+0x68>
100068bc:	2910      	cmp	r1, #16
100068be:	d900      	bls.n	100068c2 <_malloc_r+0x1e>
100068c0:	e0da      	b.n	10006a78 <_malloc_r+0x1d4>
100068c2:	f000 fb5d 	bl	10006f80 <__malloc_lock>
100068c6:	2510      	movs	r5, #16
100068c8:	2318      	movs	r3, #24
100068ca:	2102      	movs	r1, #2
100068cc:	4fc7      	ldr	r7, [pc, #796]	@ (10006bec <_malloc_r+0x348>)
100068ce:	18fb      	adds	r3, r7, r3
100068d0:	001a      	movs	r2, r3
100068d2:	685c      	ldr	r4, [r3, #4]
100068d4:	3a08      	subs	r2, #8
100068d6:	4294      	cmp	r4, r2
100068d8:	d100      	bne.n	100068dc <_malloc_r+0x38>
100068da:	e146      	b.n	10006b6a <_malloc_r+0x2c6>
100068dc:	2203      	movs	r2, #3
100068de:	6863      	ldr	r3, [r4, #4]
100068e0:	68a1      	ldr	r1, [r4, #8]
100068e2:	4393      	bics	r3, r2
100068e4:	68e2      	ldr	r2, [r4, #12]
100068e6:	60ca      	str	r2, [r1, #12]
100068e8:	6091      	str	r1, [r2, #8]
100068ea:	2101      	movs	r1, #1
100068ec:	18e3      	adds	r3, r4, r3
100068ee:	685a      	ldr	r2, [r3, #4]
100068f0:	0030      	movs	r0, r6
100068f2:	430a      	orrs	r2, r1
100068f4:	605a      	str	r2, [r3, #4]
100068f6:	f000 fb4b 	bl	10006f90 <__malloc_unlock>
100068fa:	0020      	movs	r0, r4
100068fc:	3008      	adds	r0, #8
100068fe:	b005      	add	sp, #20
10006900:	bcf0      	pop	{r4, r5, r6, r7}
10006902:	46bb      	mov	fp, r7
10006904:	46b2      	mov	sl, r6
10006906:	46a9      	mov	r9, r5
10006908:	46a0      	mov	r8, r4
1000690a:	bdf0      	pop	{r4, r5, r6, r7, pc}
1000690c:	2307      	movs	r3, #7
1000690e:	439d      	bics	r5, r3
10006910:	d500      	bpl.n	10006914 <_malloc_r+0x70>
10006912:	e0b1      	b.n	10006a78 <_malloc_r+0x1d4>
10006914:	42a9      	cmp	r1, r5
10006916:	d900      	bls.n	1000691a <_malloc_r+0x76>
10006918:	e0ae      	b.n	10006a78 <_malloc_r+0x1d4>
1000691a:	f000 fb31 	bl	10006f80 <__malloc_lock>
1000691e:	23fc      	movs	r3, #252	@ 0xfc
10006920:	005b      	lsls	r3, r3, #1
10006922:	429d      	cmp	r5, r3
10006924:	d200      	bcs.n	10006928 <_malloc_r+0x84>
10006926:	e19a      	b.n	10006c5e <_malloc_r+0x3ba>
10006928:	0a69      	lsrs	r1, r5, #9
1000692a:	d100      	bne.n	1000692e <_malloc_r+0x8a>
1000692c:	e0a8      	b.n	10006a80 <_malloc_r+0x1dc>
1000692e:	2904      	cmp	r1, #4
10006930:	d900      	bls.n	10006934 <_malloc_r+0x90>
10006932:	e14f      	b.n	10006bd4 <_malloc_r+0x330>
10006934:	2338      	movs	r3, #56	@ 0x38
10006936:	4698      	mov	r8, r3
10006938:	09a9      	lsrs	r1, r5, #6
1000693a:	4488      	add	r8, r1
1000693c:	3139      	adds	r1, #57	@ 0x39
1000693e:	00cb      	lsls	r3, r1, #3
10006940:	2208      	movs	r2, #8
10006942:	4252      	negs	r2, r2
10006944:	4694      	mov	ip, r2
10006946:	4fa9      	ldr	r7, [pc, #676]	@ (10006bec <_malloc_r+0x348>)
10006948:	18fb      	adds	r3, r7, r3
1000694a:	449c      	add	ip, r3
1000694c:	4663      	mov	r3, ip
1000694e:	68dc      	ldr	r4, [r3, #12]
10006950:	45a4      	cmp	ip, r4
10006952:	d014      	beq.n	1000697e <_malloc_r+0xda>
10006954:	2303      	movs	r3, #3
10006956:	4699      	mov	r9, r3
10006958:	000b      	movs	r3, r1
1000695a:	4661      	mov	r1, ip
1000695c:	469c      	mov	ip, r3
1000695e:	e007      	b.n	10006970 <_malloc_r+0xcc>
10006960:	68e0      	ldr	r0, [r4, #12]
10006962:	2a00      	cmp	r2, #0
10006964:	db00      	blt.n	10006968 <_malloc_r+0xc4>
10006966:	e0fa      	b.n	10006b5e <_malloc_r+0x2ba>
10006968:	4281      	cmp	r1, r0
1000696a:	d100      	bne.n	1000696e <_malloc_r+0xca>
1000696c:	e0fb      	b.n	10006b66 <_malloc_r+0x2c2>
1000696e:	0004      	movs	r4, r0
10006970:	464a      	mov	r2, r9
10006972:	6863      	ldr	r3, [r4, #4]
10006974:	4393      	bics	r3, r2
10006976:	1b5a      	subs	r2, r3, r5
10006978:	2a0f      	cmp	r2, #15
1000697a:	ddf1      	ble.n	10006960 <_malloc_r+0xbc>
1000697c:	4641      	mov	r1, r8
1000697e:	003a      	movs	r2, r7
10006980:	693c      	ldr	r4, [r7, #16]
10006982:	3208      	adds	r2, #8
10006984:	4294      	cmp	r4, r2
10006986:	d100      	bne.n	1000698a <_malloc_r+0xe6>
10006988:	e0d8      	b.n	10006b3c <_malloc_r+0x298>
1000698a:	2003      	movs	r0, #3
1000698c:	6863      	ldr	r3, [r4, #4]
1000698e:	4383      	bics	r3, r0
10006990:	1b58      	subs	r0, r3, r5
10006992:	280f      	cmp	r0, #15
10006994:	dd00      	ble.n	10006998 <_malloc_r+0xf4>
10006996:	e166      	b.n	10006c66 <_malloc_r+0x3c2>
10006998:	613a      	str	r2, [r7, #16]
1000699a:	617a      	str	r2, [r7, #20]
1000699c:	2800      	cmp	r0, #0
1000699e:	daa4      	bge.n	100068ea <_malloc_r+0x46>
100069a0:	687a      	ldr	r2, [r7, #4]
100069a2:	4690      	mov	r8, r2
100069a4:	2280      	movs	r2, #128	@ 0x80
100069a6:	0092      	lsls	r2, r2, #2
100069a8:	4293      	cmp	r3, r2
100069aa:	d300      	bcc.n	100069ae <_malloc_r+0x10a>
100069ac:	e0e3      	b.n	10006b76 <_malloc_r+0x2d2>
100069ae:	08da      	lsrs	r2, r3, #3
100069b0:	0958      	lsrs	r0, r3, #5
100069b2:	2301      	movs	r3, #1
100069b4:	4083      	lsls	r3, r0
100069b6:	4640      	mov	r0, r8
100069b8:	4318      	orrs	r0, r3
100069ba:	4680      	mov	r8, r0
100069bc:	00d3      	lsls	r3, r2, #3
100069be:	19db      	adds	r3, r3, r7
100069c0:	689a      	ldr	r2, [r3, #8]
100069c2:	6078      	str	r0, [r7, #4]
100069c4:	60e3      	str	r3, [r4, #12]
100069c6:	60a2      	str	r2, [r4, #8]
100069c8:	609c      	str	r4, [r3, #8]
100069ca:	60d4      	str	r4, [r2, #12]
100069cc:	2001      	movs	r0, #1
100069ce:	108b      	asrs	r3, r1, #2
100069d0:	4098      	lsls	r0, r3
100069d2:	4540      	cmp	r0, r8
100069d4:	d85c      	bhi.n	10006a90 <_malloc_r+0x1ec>
100069d6:	4643      	mov	r3, r8
100069d8:	4203      	tst	r3, r0
100069da:	d10a      	bne.n	100069f2 <_malloc_r+0x14e>
100069dc:	2303      	movs	r3, #3
100069de:	4399      	bics	r1, r3
100069e0:	4643      	mov	r3, r8
100069e2:	0040      	lsls	r0, r0, #1
100069e4:	3104      	adds	r1, #4
100069e6:	4203      	tst	r3, r0
100069e8:	d103      	bne.n	100069f2 <_malloc_r+0x14e>
100069ea:	0040      	lsls	r0, r0, #1
100069ec:	3104      	adds	r1, #4
100069ee:	4203      	tst	r3, r0
100069f0:	d0fb      	beq.n	100069ea <_malloc_r+0x146>
100069f2:	2303      	movs	r3, #3
100069f4:	46b3      	mov	fp, r6
100069f6:	469c      	mov	ip, r3
100069f8:	000e      	movs	r6, r1
100069fa:	46b8      	mov	r8, r7
100069fc:	9001      	str	r0, [sp, #4]
100069fe:	00f0      	lsls	r0, r6, #3
10006a00:	4440      	add	r0, r8
10006a02:	0001      	movs	r1, r0
10006a04:	46b2      	mov	sl, r6
10006a06:	68cb      	ldr	r3, [r1, #12]
10006a08:	e00b      	b.n	10006a22 <_malloc_r+0x17e>
10006a0a:	4664      	mov	r4, ip
10006a0c:	685a      	ldr	r2, [r3, #4]
10006a0e:	001f      	movs	r7, r3
10006a10:	43a2      	bics	r2, r4
10006a12:	68db      	ldr	r3, [r3, #12]
10006a14:	1b54      	subs	r4, r2, r5
10006a16:	2c0f      	cmp	r4, #15
10006a18:	dd00      	ble.n	10006a1c <_malloc_r+0x178>
10006a1a:	e0f3      	b.n	10006c04 <_malloc_r+0x360>
10006a1c:	2c00      	cmp	r4, #0
10006a1e:	db00      	blt.n	10006a22 <_malloc_r+0x17e>
10006a20:	e10d      	b.n	10006c3e <_malloc_r+0x39a>
10006a22:	4299      	cmp	r1, r3
10006a24:	d1f1      	bne.n	10006a0a <_malloc_r+0x166>
10006a26:	2301      	movs	r3, #1
10006a28:	4699      	mov	r9, r3
10006a2a:	44ca      	add	sl, r9
10006a2c:	4653      	mov	r3, sl
10006a2e:	3108      	adds	r1, #8
10006a30:	079b      	lsls	r3, r3, #30
10006a32:	d1e8      	bne.n	10006a06 <_malloc_r+0x162>
10006a34:	2203      	movs	r2, #3
10006a36:	e005      	b.n	10006a44 <_malloc_r+0x1a0>
10006a38:	6803      	ldr	r3, [r0, #0]
10006a3a:	3808      	subs	r0, #8
10006a3c:	3e01      	subs	r6, #1
10006a3e:	4283      	cmp	r3, r0
10006a40:	d000      	beq.n	10006a44 <_malloc_r+0x1a0>
10006a42:	e20a      	b.n	10006e5a <_malloc_r+0x5b6>
10006a44:	4232      	tst	r2, r6
10006a46:	d1f7      	bne.n	10006a38 <_malloc_r+0x194>
10006a48:	4643      	mov	r3, r8
10006a4a:	9a01      	ldr	r2, [sp, #4]
10006a4c:	685b      	ldr	r3, [r3, #4]
10006a4e:	4393      	bics	r3, r2
10006a50:	4642      	mov	r2, r8
10006a52:	6053      	str	r3, [r2, #4]
10006a54:	9a01      	ldr	r2, [sp, #4]
10006a56:	0052      	lsls	r2, r2, #1
10006a58:	9201      	str	r2, [sp, #4]
10006a5a:	429a      	cmp	r2, r3
10006a5c:	d816      	bhi.n	10006a8c <_malloc_r+0x1e8>
10006a5e:	2a00      	cmp	r2, #0
10006a60:	d106      	bne.n	10006a70 <_malloc_r+0x1cc>
10006a62:	e013      	b.n	10006a8c <_malloc_r+0x1e8>
10006a64:	2204      	movs	r2, #4
10006a66:	4691      	mov	r9, r2
10006a68:	9a01      	ldr	r2, [sp, #4]
10006a6a:	44ca      	add	sl, r9
10006a6c:	0052      	lsls	r2, r2, #1
10006a6e:	9201      	str	r2, [sp, #4]
10006a70:	4213      	tst	r3, r2
10006a72:	d0f7      	beq.n	10006a64 <_malloc_r+0x1c0>
10006a74:	4656      	mov	r6, sl
10006a76:	e7c2      	b.n	100069fe <_malloc_r+0x15a>
10006a78:	230c      	movs	r3, #12
10006a7a:	2000      	movs	r0, #0
10006a7c:	6033      	str	r3, [r6, #0]
10006a7e:	e73e      	b.n	100068fe <_malloc_r+0x5a>
10006a80:	2380      	movs	r3, #128	@ 0x80
10006a82:	223f      	movs	r2, #63	@ 0x3f
10006a84:	2140      	movs	r1, #64	@ 0x40
10006a86:	4690      	mov	r8, r2
10006a88:	009b      	lsls	r3, r3, #2
10006a8a:	e759      	b.n	10006940 <_malloc_r+0x9c>
10006a8c:	465e      	mov	r6, fp
10006a8e:	4647      	mov	r7, r8
10006a90:	2203      	movs	r2, #3
10006a92:	68bc      	ldr	r4, [r7, #8]
10006a94:	6863      	ldr	r3, [r4, #4]
10006a96:	4393      	bics	r3, r2
10006a98:	4699      	mov	r9, r3
10006a9a:	42ab      	cmp	r3, r5
10006a9c:	d302      	bcc.n	10006aa4 <_malloc_r+0x200>
10006a9e:	1b5b      	subs	r3, r3, r5
10006aa0:	2b0f      	cmp	r3, #15
10006aa2:	dc4e      	bgt.n	10006b42 <_malloc_r+0x29e>
10006aa4:	0023      	movs	r3, r4
10006aa6:	444b      	add	r3, r9
10006aa8:	9302      	str	r3, [sp, #8]
10006aaa:	4b51      	ldr	r3, [pc, #324]	@ (10006bf0 <_malloc_r+0x34c>)
10006aac:	2008      	movs	r0, #8
10006aae:	681b      	ldr	r3, [r3, #0]
10006ab0:	3310      	adds	r3, #16
10006ab2:	195b      	adds	r3, r3, r5
10006ab4:	9301      	str	r3, [sp, #4]
10006ab6:	f000 fa11 	bl	10006edc <sysconf>
10006aba:	494e      	ldr	r1, [pc, #312]	@ (10006bf4 <_malloc_r+0x350>)
10006abc:	9003      	str	r0, [sp, #12]
10006abe:	680b      	ldr	r3, [r1, #0]
10006ac0:	468b      	mov	fp, r1
10006ac2:	3301      	adds	r3, #1
10006ac4:	d006      	beq.n	10006ad4 <_malloc_r+0x230>
10006ac6:	4684      	mov	ip, r0
10006ac8:	9b01      	ldr	r3, [sp, #4]
10006aca:	4242      	negs	r2, r0
10006acc:	3b01      	subs	r3, #1
10006ace:	4463      	add	r3, ip
10006ad0:	4013      	ands	r3, r2
10006ad2:	9301      	str	r3, [sp, #4]
10006ad4:	0030      	movs	r0, r6
10006ad6:	9901      	ldr	r1, [sp, #4]
10006ad8:	f002 fd6e 	bl	100095b8 <_sbrk_r>
10006adc:	0003      	movs	r3, r0
10006ade:	4680      	mov	r8, r0
10006ae0:	3301      	adds	r3, #1
10006ae2:	d100      	bne.n	10006ae6 <_malloc_r+0x242>
10006ae4:	e0dd      	b.n	10006ca2 <_malloc_r+0x3fe>
10006ae6:	9b02      	ldr	r3, [sp, #8]
10006ae8:	4283      	cmp	r3, r0
10006aea:	d900      	bls.n	10006aee <_malloc_r+0x24a>
10006aec:	e0d7      	b.n	10006c9e <_malloc_r+0x3fa>
10006aee:	9a01      	ldr	r2, [sp, #4]
10006af0:	4b41      	ldr	r3, [pc, #260]	@ (10006bf8 <_malloc_r+0x354>)
10006af2:	4694      	mov	ip, r2
10006af4:	6819      	ldr	r1, [r3, #0]
10006af6:	469a      	mov	sl, r3
10006af8:	4461      	add	r1, ip
10006afa:	9a03      	ldr	r2, [sp, #12]
10006afc:	6019      	str	r1, [r3, #0]
10006afe:	9b02      	ldr	r3, [sp, #8]
10006b00:	0008      	movs	r0, r1
10006b02:	3a01      	subs	r2, #1
10006b04:	4543      	cmp	r3, r8
10006b06:	d000      	beq.n	10006b0a <_malloc_r+0x266>
10006b08:	e0ea      	b.n	10006ce0 <_malloc_r+0x43c>
10006b0a:	4643      	mov	r3, r8
10006b0c:	4213      	tst	r3, r2
10006b0e:	d000      	beq.n	10006b12 <_malloc_r+0x26e>
10006b10:	e0e6      	b.n	10006ce0 <_malloc_r+0x43c>
10006b12:	68bb      	ldr	r3, [r7, #8]
10006b14:	4698      	mov	r8, r3
10006b16:	4663      	mov	r3, ip
10006b18:	444b      	add	r3, r9
10006b1a:	001a      	movs	r2, r3
10006b1c:	2301      	movs	r3, #1
10006b1e:	431a      	orrs	r2, r3
10006b20:	4643      	mov	r3, r8
10006b22:	605a      	str	r2, [r3, #4]
10006b24:	4b35      	ldr	r3, [pc, #212]	@ (10006bfc <_malloc_r+0x358>)
10006b26:	6818      	ldr	r0, [r3, #0]
10006b28:	4288      	cmp	r0, r1
10006b2a:	d200      	bcs.n	10006b2e <_malloc_r+0x28a>
10006b2c:	6019      	str	r1, [r3, #0]
10006b2e:	4b34      	ldr	r3, [pc, #208]	@ (10006c00 <_malloc_r+0x35c>)
10006b30:	6818      	ldr	r0, [r3, #0]
10006b32:	4288      	cmp	r0, r1
10006b34:	d200      	bcs.n	10006b38 <_malloc_r+0x294>
10006b36:	6019      	str	r1, [r3, #0]
10006b38:	4644      	mov	r4, r8
10006b3a:	e0b4      	b.n	10006ca6 <_malloc_r+0x402>
10006b3c:	687b      	ldr	r3, [r7, #4]
10006b3e:	4698      	mov	r8, r3
10006b40:	e744      	b.n	100069cc <_malloc_r+0x128>
10006b42:	2201      	movs	r2, #1
10006b44:	0029      	movs	r1, r5
10006b46:	4313      	orrs	r3, r2
10006b48:	4311      	orrs	r1, r2
10006b4a:	1965      	adds	r5, r4, r5
10006b4c:	6061      	str	r1, [r4, #4]
10006b4e:	0030      	movs	r0, r6
10006b50:	60bd      	str	r5, [r7, #8]
10006b52:	606b      	str	r3, [r5, #4]
10006b54:	f000 fa1c 	bl	10006f90 <__malloc_unlock>
10006b58:	0020      	movs	r0, r4
10006b5a:	3008      	adds	r0, #8
10006b5c:	e6cf      	b.n	100068fe <_malloc_r+0x5a>
10006b5e:	68a2      	ldr	r2, [r4, #8]
10006b60:	60d0      	str	r0, [r2, #12]
10006b62:	6082      	str	r2, [r0, #8]
10006b64:	e6c1      	b.n	100068ea <_malloc_r+0x46>
10006b66:	4661      	mov	r1, ip
10006b68:	e709      	b.n	1000697e <_malloc_r+0xda>
10006b6a:	68dc      	ldr	r4, [r3, #12]
10006b6c:	3102      	adds	r1, #2
10006b6e:	42a3      	cmp	r3, r4
10006b70:	d100      	bne.n	10006b74 <_malloc_r+0x2d0>
10006b72:	e704      	b.n	1000697e <_malloc_r+0xda>
10006b74:	e6b2      	b.n	100068dc <_malloc_r+0x38>
10006b76:	0a5a      	lsrs	r2, r3, #9
10006b78:	2a04      	cmp	r2, #4
10006b7a:	d800      	bhi.n	10006b7e <_malloc_r+0x2da>
10006b7c:	e088      	b.n	10006c90 <_malloc_r+0x3ec>
10006b7e:	2a14      	cmp	r2, #20
10006b80:	d900      	bls.n	10006b84 <_malloc_r+0x2e0>
10006b82:	e10f      	b.n	10006da4 <_malloc_r+0x500>
10006b84:	0010      	movs	r0, r2
10006b86:	305b      	adds	r0, #91	@ 0x5b
10006b88:	4682      	mov	sl, r0
10006b8a:	325c      	adds	r2, #92	@ 0x5c
10006b8c:	00d2      	lsls	r2, r2, #3
10006b8e:	2008      	movs	r0, #8
10006b90:	4240      	negs	r0, r0
10006b92:	4684      	mov	ip, r0
10006b94:	18ba      	adds	r2, r7, r2
10006b96:	4494      	add	ip, r2
10006b98:	4662      	mov	r2, ip
10006b9a:	6892      	ldr	r2, [r2, #8]
10006b9c:	300b      	adds	r0, #11
10006b9e:	4681      	mov	r9, r0
10006ba0:	4594      	cmp	ip, r2
10006ba2:	d100      	bne.n	10006ba6 <_malloc_r+0x302>
10006ba4:	e0e5      	b.n	10006d72 <_malloc_r+0x4ce>
10006ba6:	0008      	movs	r0, r1
10006ba8:	46a2      	mov	sl, r4
10006baa:	4661      	mov	r1, ip
10006bac:	4684      	mov	ip, r0
10006bae:	e002      	b.n	10006bb6 <_malloc_r+0x312>
10006bb0:	6892      	ldr	r2, [r2, #8]
10006bb2:	4291      	cmp	r1, r2
10006bb4:	d004      	beq.n	10006bc0 <_malloc_r+0x31c>
10006bb6:	464c      	mov	r4, r9
10006bb8:	6850      	ldr	r0, [r2, #4]
10006bba:	43a0      	bics	r0, r4
10006bbc:	4298      	cmp	r0, r3
10006bbe:	d8f7      	bhi.n	10006bb0 <_malloc_r+0x30c>
10006bc0:	68d3      	ldr	r3, [r2, #12]
10006bc2:	4661      	mov	r1, ip
10006bc4:	4654      	mov	r4, sl
10006bc6:	469c      	mov	ip, r3
10006bc8:	4663      	mov	r3, ip
10006bca:	60a2      	str	r2, [r4, #8]
10006bcc:	60e3      	str	r3, [r4, #12]
10006bce:	609c      	str	r4, [r3, #8]
10006bd0:	60d4      	str	r4, [r2, #12]
10006bd2:	e6fb      	b.n	100069cc <_malloc_r+0x128>
10006bd4:	2914      	cmp	r1, #20
10006bd6:	d973      	bls.n	10006cc0 <_malloc_r+0x41c>
10006bd8:	2954      	cmp	r1, #84	@ 0x54
10006bda:	d900      	bls.n	10006bde <_malloc_r+0x33a>
10006bdc:	e0eb      	b.n	10006db6 <_malloc_r+0x512>
10006bde:	236e      	movs	r3, #110	@ 0x6e
10006be0:	4698      	mov	r8, r3
10006be2:	0b29      	lsrs	r1, r5, #12
10006be4:	4488      	add	r8, r1
10006be6:	316f      	adds	r1, #111	@ 0x6f
10006be8:	00cb      	lsls	r3, r1, #3
10006bea:	e6a9      	b.n	10006940 <_malloc_r+0x9c>
10006bec:	200001f8 	.word	0x200001f8
10006bf0:	20000c5c 	.word	0x20000c5c
10006bf4:	200001f0 	.word	0x200001f0
10006bf8:	20000c2c 	.word	0x20000c2c
10006bfc:	20000c54 	.word	0x20000c54
10006c00:	20000c58 	.word	0x20000c58
10006c04:	46ba      	mov	sl, r7
10006c06:	2001      	movs	r0, #1
10006c08:	4651      	mov	r1, sl
10006c0a:	4684      	mov	ip, r0
10006c0c:	1949      	adds	r1, r1, r5
10006c0e:	4305      	orrs	r5, r0
10006c10:	4650      	mov	r0, sl
10006c12:	6045      	str	r5, [r0, #4]
10006c14:	6885      	ldr	r5, [r0, #8]
10006c16:	4647      	mov	r7, r8
10006c18:	4660      	mov	r0, ip
10006c1a:	60eb      	str	r3, [r5, #12]
10006c1c:	465e      	mov	r6, fp
10006c1e:	609d      	str	r5, [r3, #8]
10006c20:	4653      	mov	r3, sl
10006c22:	6139      	str	r1, [r7, #16]
10006c24:	6179      	str	r1, [r7, #20]
10006c26:	4320      	orrs	r0, r4
10006c28:	3708      	adds	r7, #8
10006c2a:	6048      	str	r0, [r1, #4]
10006c2c:	60cf      	str	r7, [r1, #12]
10006c2e:	0030      	movs	r0, r6
10006c30:	608f      	str	r7, [r1, #8]
10006c32:	509c      	str	r4, [r3, r2]
10006c34:	f000 f9ac 	bl	10006f90 <__malloc_unlock>
10006c38:	4650      	mov	r0, sl
10006c3a:	3008      	adds	r0, #8
10006c3c:	e65f      	b.n	100068fe <_malloc_r+0x5a>
10006c3e:	46ba      	mov	sl, r7
10006c40:	2001      	movs	r0, #1
10006c42:	465e      	mov	r6, fp
10006c44:	4452      	add	r2, sl
10006c46:	6851      	ldr	r1, [r2, #4]
10006c48:	4301      	orrs	r1, r0
10006c4a:	6051      	str	r1, [r2, #4]
10006c4c:	68ba      	ldr	r2, [r7, #8]
10006c4e:	0030      	movs	r0, r6
10006c50:	60d3      	str	r3, [r2, #12]
10006c52:	609a      	str	r2, [r3, #8]
10006c54:	f000 f99c 	bl	10006f90 <__malloc_unlock>
10006c58:	0038      	movs	r0, r7
10006c5a:	3008      	adds	r0, #8
10006c5c:	e64f      	b.n	100068fe <_malloc_r+0x5a>
10006c5e:	002b      	movs	r3, r5
10006c60:	08e9      	lsrs	r1, r5, #3
10006c62:	3308      	adds	r3, #8
10006c64:	e632      	b.n	100068cc <_malloc_r+0x28>
10006c66:	1961      	adds	r1, r4, r5
10006c68:	4688      	mov	r8, r1
10006c6a:	2101      	movs	r1, #1
10006c6c:	468c      	mov	ip, r1
10006c6e:	430d      	orrs	r5, r1
10006c70:	4641      	mov	r1, r8
10006c72:	6065      	str	r5, [r4, #4]
10006c74:	6139      	str	r1, [r7, #16]
10006c76:	6179      	str	r1, [r7, #20]
10006c78:	60ca      	str	r2, [r1, #12]
10006c7a:	608a      	str	r2, [r1, #8]
10006c7c:	4662      	mov	r2, ip
10006c7e:	4302      	orrs	r2, r0
10006c80:	604a      	str	r2, [r1, #4]
10006c82:	50e0      	str	r0, [r4, r3]
10006c84:	0030      	movs	r0, r6
10006c86:	f000 f983 	bl	10006f90 <__malloc_unlock>
10006c8a:	0020      	movs	r0, r4
10006c8c:	3008      	adds	r0, #8
10006c8e:	e636      	b.n	100068fe <_malloc_r+0x5a>
10006c90:	099a      	lsrs	r2, r3, #6
10006c92:	0010      	movs	r0, r2
10006c94:	3239      	adds	r2, #57	@ 0x39
10006c96:	3038      	adds	r0, #56	@ 0x38
10006c98:	4682      	mov	sl, r0
10006c9a:	00d2      	lsls	r2, r2, #3
10006c9c:	e777      	b.n	10006b8e <_malloc_r+0x2ea>
10006c9e:	42bc      	cmp	r4, r7
10006ca0:	d014      	beq.n	10006ccc <_malloc_r+0x428>
10006ca2:	68bc      	ldr	r4, [r7, #8]
10006ca4:	6862      	ldr	r2, [r4, #4]
10006ca6:	2303      	movs	r3, #3
10006ca8:	439a      	bics	r2, r3
10006caa:	1b53      	subs	r3, r2, r5
10006cac:	42aa      	cmp	r2, r5
10006cae:	d302      	bcc.n	10006cb6 <_malloc_r+0x412>
10006cb0:	2b0f      	cmp	r3, #15
10006cb2:	dd00      	ble.n	10006cb6 <_malloc_r+0x412>
10006cb4:	e745      	b.n	10006b42 <_malloc_r+0x29e>
10006cb6:	0030      	movs	r0, r6
10006cb8:	f000 f96a 	bl	10006f90 <__malloc_unlock>
10006cbc:	2000      	movs	r0, #0
10006cbe:	e61e      	b.n	100068fe <_malloc_r+0x5a>
10006cc0:	235b      	movs	r3, #91	@ 0x5b
10006cc2:	4698      	mov	r8, r3
10006cc4:	4488      	add	r8, r1
10006cc6:	315c      	adds	r1, #92	@ 0x5c
10006cc8:	00cb      	lsls	r3, r1, #3
10006cca:	e639      	b.n	10006940 <_malloc_r+0x9c>
10006ccc:	4b64      	ldr	r3, [pc, #400]	@ (10006e60 <_malloc_r+0x5bc>)
10006cce:	469a      	mov	sl, r3
10006cd0:	6818      	ldr	r0, [r3, #0]
10006cd2:	9b01      	ldr	r3, [sp, #4]
10006cd4:	469c      	mov	ip, r3
10006cd6:	4653      	mov	r3, sl
10006cd8:	4460      	add	r0, ip
10006cda:	6018      	str	r0, [r3, #0]
10006cdc:	9b03      	ldr	r3, [sp, #12]
10006cde:	1e5a      	subs	r2, r3, #1
10006ce0:	465b      	mov	r3, fp
10006ce2:	681b      	ldr	r3, [r3, #0]
10006ce4:	3301      	adds	r3, #1
10006ce6:	d071      	beq.n	10006dcc <_malloc_r+0x528>
10006ce8:	4643      	mov	r3, r8
10006cea:	9902      	ldr	r1, [sp, #8]
10006cec:	1a5b      	subs	r3, r3, r1
10006cee:	4651      	mov	r1, sl
10006cf0:	181b      	adds	r3, r3, r0
10006cf2:	600b      	str	r3, [r1, #0]
10006cf4:	2307      	movs	r3, #7
10006cf6:	4641      	mov	r1, r8
10006cf8:	4640      	mov	r0, r8
10006cfa:	4019      	ands	r1, r3
10006cfc:	9102      	str	r1, [sp, #8]
10006cfe:	4218      	tst	r0, r3
10006d00:	d040      	beq.n	10006d84 <_malloc_r+0x4e0>
10006d02:	9803      	ldr	r0, [sp, #12]
10006d04:	3301      	adds	r3, #1
10006d06:	4684      	mov	ip, r0
10006d08:	1a5b      	subs	r3, r3, r1
10006d0a:	9901      	ldr	r1, [sp, #4]
10006d0c:	4498      	add	r8, r3
10006d0e:	4441      	add	r1, r8
10006d10:	9101      	str	r1, [sp, #4]
10006d12:	4463      	add	r3, ip
10006d14:	4011      	ands	r1, r2
10006d16:	1a5b      	subs	r3, r3, r1
10006d18:	401a      	ands	r2, r3
10006d1a:	0011      	movs	r1, r2
10006d1c:	0030      	movs	r0, r6
10006d1e:	4693      	mov	fp, r2
10006d20:	f002 fc4a 	bl	100095b8 <_sbrk_r>
10006d24:	1c43      	adds	r3, r0, #1
10006d26:	d078      	beq.n	10006e1a <_malloc_r+0x576>
10006d28:	4643      	mov	r3, r8
10006d2a:	1ac0      	subs	r0, r0, r3
10006d2c:	0003      	movs	r3, r0
10006d2e:	445b      	add	r3, fp
10006d30:	9301      	str	r3, [sp, #4]
10006d32:	4653      	mov	r3, sl
10006d34:	6819      	ldr	r1, [r3, #0]
10006d36:	2001      	movs	r0, #1
10006d38:	4459      	add	r1, fp
10006d3a:	6019      	str	r1, [r3, #0]
10006d3c:	4643      	mov	r3, r8
10006d3e:	9a01      	ldr	r2, [sp, #4]
10006d40:	60bb      	str	r3, [r7, #8]
10006d42:	4302      	orrs	r2, r0
10006d44:	605a      	str	r2, [r3, #4]
10006d46:	42bc      	cmp	r4, r7
10006d48:	d100      	bne.n	10006d4c <_malloc_r+0x4a8>
10006d4a:	e6eb      	b.n	10006b24 <_malloc_r+0x280>
10006d4c:	464b      	mov	r3, r9
10006d4e:	2b0f      	cmp	r3, #15
10006d50:	d940      	bls.n	10006dd4 <_malloc_r+0x530>
10006d52:	2207      	movs	r2, #7
10006d54:	3b0c      	subs	r3, #12
10006d56:	4393      	bics	r3, r2
10006d58:	6862      	ldr	r2, [r4, #4]
10006d5a:	4002      	ands	r2, r0
10006d5c:	2005      	movs	r0, #5
10006d5e:	431a      	orrs	r2, r3
10006d60:	6062      	str	r2, [r4, #4]
10006d62:	18e2      	adds	r2, r4, r3
10006d64:	6050      	str	r0, [r2, #4]
10006d66:	6090      	str	r0, [r2, #8]
10006d68:	2b0f      	cmp	r3, #15
10006d6a:	d84b      	bhi.n	10006e04 <_malloc_r+0x560>
10006d6c:	4643      	mov	r3, r8
10006d6e:	685a      	ldr	r2, [r3, #4]
10006d70:	e6d8      	b.n	10006b24 <_malloc_r+0x280>
10006d72:	4653      	mov	r3, sl
10006d74:	1098      	asrs	r0, r3, #2
10006d76:	2301      	movs	r3, #1
10006d78:	4083      	lsls	r3, r0
10006d7a:	4640      	mov	r0, r8
10006d7c:	4318      	orrs	r0, r3
10006d7e:	4680      	mov	r8, r0
10006d80:	6078      	str	r0, [r7, #4]
10006d82:	e721      	b.n	10006bc8 <_malloc_r+0x324>
10006d84:	9b01      	ldr	r3, [sp, #4]
10006d86:	9903      	ldr	r1, [sp, #12]
10006d88:	4443      	add	r3, r8
10006d8a:	4013      	ands	r3, r2
10006d8c:	1acb      	subs	r3, r1, r3
10006d8e:	401a      	ands	r2, r3
10006d90:	0011      	movs	r1, r2
10006d92:	0030      	movs	r0, r6
10006d94:	4693      	mov	fp, r2
10006d96:	f002 fc0f 	bl	100095b8 <_sbrk_r>
10006d9a:	1c43      	adds	r3, r0, #1
10006d9c:	d1c4      	bne.n	10006d28 <_malloc_r+0x484>
10006d9e:	2300      	movs	r3, #0
10006da0:	469b      	mov	fp, r3
10006da2:	e7c6      	b.n	10006d32 <_malloc_r+0x48e>
10006da4:	2a54      	cmp	r2, #84	@ 0x54
10006da6:	d818      	bhi.n	10006dda <_malloc_r+0x536>
10006da8:	0b1a      	lsrs	r2, r3, #12
10006daa:	0010      	movs	r0, r2
10006dac:	326f      	adds	r2, #111	@ 0x6f
10006dae:	306e      	adds	r0, #110	@ 0x6e
10006db0:	4682      	mov	sl, r0
10006db2:	00d2      	lsls	r2, r2, #3
10006db4:	e6eb      	b.n	10006b8e <_malloc_r+0x2ea>
10006db6:	23aa      	movs	r3, #170	@ 0xaa
10006db8:	005b      	lsls	r3, r3, #1
10006dba:	4299      	cmp	r1, r3
10006dbc:	d818      	bhi.n	10006df0 <_malloc_r+0x54c>
10006dbe:	3bdd      	subs	r3, #221	@ 0xdd
10006dc0:	4698      	mov	r8, r3
10006dc2:	0be9      	lsrs	r1, r5, #15
10006dc4:	4488      	add	r8, r1
10006dc6:	3178      	adds	r1, #120	@ 0x78
10006dc8:	00cb      	lsls	r3, r1, #3
10006dca:	e5b9      	b.n	10006940 <_malloc_r+0x9c>
10006dcc:	465b      	mov	r3, fp
10006dce:	4641      	mov	r1, r8
10006dd0:	6019      	str	r1, [r3, #0]
10006dd2:	e78f      	b.n	10006cf4 <_malloc_r+0x450>
10006dd4:	4643      	mov	r3, r8
10006dd6:	6058      	str	r0, [r3, #4]
10006dd8:	e76d      	b.n	10006cb6 <_malloc_r+0x412>
10006dda:	20aa      	movs	r0, #170	@ 0xaa
10006ddc:	0040      	lsls	r0, r0, #1
10006dde:	4282      	cmp	r2, r0
10006de0:	d826      	bhi.n	10006e30 <_malloc_r+0x58c>
10006de2:	0bda      	lsrs	r2, r3, #15
10006de4:	0010      	movs	r0, r2
10006de6:	3278      	adds	r2, #120	@ 0x78
10006de8:	3077      	adds	r0, #119	@ 0x77
10006dea:	4682      	mov	sl, r0
10006dec:	00d2      	lsls	r2, r2, #3
10006dee:	e6ce      	b.n	10006b8e <_malloc_r+0x2ea>
10006df0:	4b1c      	ldr	r3, [pc, #112]	@ (10006e64 <_malloc_r+0x5c0>)
10006df2:	4299      	cmp	r1, r3
10006df4:	d826      	bhi.n	10006e44 <_malloc_r+0x5a0>
10006df6:	237c      	movs	r3, #124	@ 0x7c
10006df8:	4698      	mov	r8, r3
10006dfa:	0ca9      	lsrs	r1, r5, #18
10006dfc:	4488      	add	r8, r1
10006dfe:	317d      	adds	r1, #125	@ 0x7d
10006e00:	00cb      	lsls	r3, r1, #3
10006e02:	e59d      	b.n	10006940 <_malloc_r+0x9c>
10006e04:	0021      	movs	r1, r4
10006e06:	0030      	movs	r0, r6
10006e08:	3108      	adds	r1, #8
10006e0a:	f001 fb15 	bl	10008438 <_free_r>
10006e0e:	4653      	mov	r3, sl
10006e10:	6819      	ldr	r1, [r3, #0]
10006e12:	68bb      	ldr	r3, [r7, #8]
10006e14:	4698      	mov	r8, r3
10006e16:	685a      	ldr	r2, [r3, #4]
10006e18:	e684      	b.n	10006b24 <_malloc_r+0x280>
10006e1a:	9a01      	ldr	r2, [sp, #4]
10006e1c:	9b02      	ldr	r3, [sp, #8]
10006e1e:	4694      	mov	ip, r2
10006e20:	4642      	mov	r2, r8
10006e22:	3b08      	subs	r3, #8
10006e24:	4463      	add	r3, ip
10006e26:	1a9b      	subs	r3, r3, r2
10006e28:	9301      	str	r3, [sp, #4]
10006e2a:	2300      	movs	r3, #0
10006e2c:	469b      	mov	fp, r3
10006e2e:	e780      	b.n	10006d32 <_malloc_r+0x48e>
10006e30:	480c      	ldr	r0, [pc, #48]	@ (10006e64 <_malloc_r+0x5c0>)
10006e32:	4282      	cmp	r2, r0
10006e34:	d80c      	bhi.n	10006e50 <_malloc_r+0x5ac>
10006e36:	0c9a      	lsrs	r2, r3, #18
10006e38:	0010      	movs	r0, r2
10006e3a:	327d      	adds	r2, #125	@ 0x7d
10006e3c:	307c      	adds	r0, #124	@ 0x7c
10006e3e:	4682      	mov	sl, r0
10006e40:	00d2      	lsls	r2, r2, #3
10006e42:	e6a4      	b.n	10006b8e <_malloc_r+0x2ea>
10006e44:	23fe      	movs	r3, #254	@ 0xfe
10006e46:	227e      	movs	r2, #126	@ 0x7e
10006e48:	217f      	movs	r1, #127	@ 0x7f
10006e4a:	4690      	mov	r8, r2
10006e4c:	009b      	lsls	r3, r3, #2
10006e4e:	e577      	b.n	10006940 <_malloc_r+0x9c>
10006e50:	22fe      	movs	r2, #254	@ 0xfe
10006e52:	207e      	movs	r0, #126	@ 0x7e
10006e54:	0092      	lsls	r2, r2, #2
10006e56:	4682      	mov	sl, r0
10006e58:	e699      	b.n	10006b8e <_malloc_r+0x2ea>
10006e5a:	4643      	mov	r3, r8
10006e5c:	685b      	ldr	r3, [r3, #4]
10006e5e:	e5f9      	b.n	10006a54 <_malloc_r+0x1b0>
10006e60:	20000c2c 	.word	0x20000c2c
10006e64:	00000554 	.word	0x00000554

10006e68 <_mbrtowc_r>:
10006e68:	b570      	push	{r4, r5, r6, lr}
10006e6a:	b082      	sub	sp, #8
10006e6c:	9c06      	ldr	r4, [sp, #24]
10006e6e:	0005      	movs	r5, r0
10006e70:	2c00      	cmp	r4, #0
10006e72:	d00b      	beq.n	10006e8c <_mbrtowc_r+0x24>
10006e74:	26e4      	movs	r6, #228	@ 0xe4
10006e76:	480f      	ldr	r0, [pc, #60]	@ (10006eb4 <_mbrtowc_r+0x4c>)
10006e78:	5986      	ldr	r6, [r0, r6]
10006e7a:	2a00      	cmp	r2, #0
10006e7c:	d00d      	beq.n	10006e9a <_mbrtowc_r+0x32>
10006e7e:	0028      	movs	r0, r5
10006e80:	9400      	str	r4, [sp, #0]
10006e82:	47b0      	blx	r6
10006e84:	1c43      	adds	r3, r0, #1
10006e86:	d010      	beq.n	10006eaa <_mbrtowc_r+0x42>
10006e88:	b002      	add	sp, #8
10006e8a:	bd70      	pop	{r4, r5, r6, pc}
10006e8c:	0004      	movs	r4, r0
10006e8e:	26e4      	movs	r6, #228	@ 0xe4
10006e90:	4808      	ldr	r0, [pc, #32]	@ (10006eb4 <_mbrtowc_r+0x4c>)
10006e92:	34f4      	adds	r4, #244	@ 0xf4
10006e94:	5986      	ldr	r6, [r0, r6]
10006e96:	2a00      	cmp	r2, #0
10006e98:	d1f1      	bne.n	10006e7e <_mbrtowc_r+0x16>
10006e9a:	2301      	movs	r3, #1
10006e9c:	2100      	movs	r1, #0
10006e9e:	0028      	movs	r0, r5
10006ea0:	4a05      	ldr	r2, [pc, #20]	@ (10006eb8 <_mbrtowc_r+0x50>)
10006ea2:	9400      	str	r4, [sp, #0]
10006ea4:	47b0      	blx	r6
10006ea6:	1c43      	adds	r3, r0, #1
10006ea8:	d1ee      	bne.n	10006e88 <_mbrtowc_r+0x20>
10006eaa:	2300      	movs	r3, #0
10006eac:	6023      	str	r3, [r4, #0]
10006eae:	338a      	adds	r3, #138	@ 0x8a
10006eb0:	602b      	str	r3, [r5, #0]
10006eb2:	e7e9      	b.n	10006e88 <_mbrtowc_r+0x20>
10006eb4:	20000600 	.word	0x20000600
10006eb8:	1000a73c 	.word	0x1000a73c

10006ebc <__retarget_lock_acquire_recursive>:
10006ebc:	4770      	bx	lr
10006ebe:	46c0      	nop			@ (mov r8, r8)

10006ec0 <__retarget_lock_release_recursive>:
10006ec0:	4770      	bx	lr
10006ec2:	46c0      	nop			@ (mov r8, r8)

10006ec4 <__locale_mb_cur_max>:
10006ec4:	2294      	movs	r2, #148	@ 0x94
10006ec6:	4b02      	ldr	r3, [pc, #8]	@ (10006ed0 <__locale_mb_cur_max+0xc>)
10006ec8:	0052      	lsls	r2, r2, #1
10006eca:	5c98      	ldrb	r0, [r3, r2]
10006ecc:	4770      	bx	lr
10006ece:	46c0      	nop			@ (mov r8, r8)
10006ed0:	20000600 	.word	0x20000600

10006ed4 <_localeconv_r>:
10006ed4:	4800      	ldr	r0, [pc, #0]	@ (10006ed8 <_localeconv_r+0x4>)
10006ed6:	4770      	bx	lr
10006ed8:	200006f0 	.word	0x200006f0

10006edc <sysconf>:
10006edc:	2380      	movs	r3, #128	@ 0x80
10006ede:	b510      	push	{r4, lr}
10006ee0:	015b      	lsls	r3, r3, #5
10006ee2:	2808      	cmp	r0, #8
10006ee4:	d101      	bne.n	10006eea <sysconf+0xe>
10006ee6:	0018      	movs	r0, r3
10006ee8:	bd10      	pop	{r4, pc}
10006eea:	f002 fb77 	bl	100095dc <__errno>
10006eee:	2316      	movs	r3, #22
10006ef0:	6003      	str	r3, [r0, #0]
10006ef2:	3b17      	subs	r3, #23
10006ef4:	e7f7      	b.n	10006ee6 <sysconf+0xa>
10006ef6:	46c0      	nop			@ (mov r8, r8)

10006ef8 <strcmp>:
10006ef8:	4602      	mov	r2, r0
10006efa:	b570      	push	{r4, r5, r6, lr}
10006efc:	430a      	orrs	r2, r1
10006efe:	0792      	lsls	r2, r2, #30
10006f00:	d12a      	bne.n	10006f58 <strcmp+0x60>
10006f02:	4d1e      	ldr	r5, [pc, #120]	@ (10006f7c <strcmp+0x84>)
10006f04:	01ee      	lsls	r6, r5, #7
10006f06:	c804      	ldmia	r0!, {r2}
10006f08:	c908      	ldmia	r1!, {r3}
10006f0a:	1b54      	subs	r4, r2, r5
10006f0c:	4394      	bics	r4, r2
10006f0e:	4034      	ands	r4, r6
10006f10:	d017      	beq.n	10006f42 <strcmp+0x4a>
10006f12:	b2d0      	uxtb	r0, r2
10006f14:	b2d9      	uxtb	r1, r3
10006f16:	1a40      	subs	r0, r0, r1
10006f18:	0621      	lsls	r1, r4, #24
10006f1a:	4301      	orrs	r1, r0
10006f1c:	d110      	bne.n	10006f40 <strcmp+0x48>
10006f1e:	b290      	uxth	r0, r2
10006f20:	b299      	uxth	r1, r3
10006f22:	1a40      	subs	r0, r0, r1
10006f24:	0421      	lsls	r1, r4, #16
10006f26:	4301      	orrs	r1, r0
10006f28:	d10a      	bne.n	10006f40 <strcmp+0x48>
10006f2a:	0210      	lsls	r0, r2, #8
10006f2c:	0219      	lsls	r1, r3, #8
10006f2e:	0a00      	lsrs	r0, r0, #8
10006f30:	0a09      	lsrs	r1, r1, #8
10006f32:	1a40      	subs	r0, r0, r1
10006f34:	0221      	lsls	r1, r4, #8
10006f36:	4301      	orrs	r1, r0
10006f38:	d102      	bne.n	10006f40 <strcmp+0x48>
10006f3a:	0e10      	lsrs	r0, r2, #24
10006f3c:	0e19      	lsrs	r1, r3, #24
10006f3e:	1a40      	subs	r0, r0, r1
10006f40:	bd70      	pop	{r4, r5, r6, pc}
10006f42:	429a      	cmp	r2, r3
10006f44:	d0df      	beq.n	10006f06 <strcmp+0xe>
10006f46:	ba10      	rev	r0, r2
10006f48:	ba19      	rev	r1, r3
10006f4a:	4288      	cmp	r0, r1
10006f4c:	d901      	bls.n	10006f52 <strcmp+0x5a>
10006f4e:	2001      	movs	r0, #1
10006f50:	bd70      	pop	{r4, r5, r6, pc}
10006f52:	2000      	movs	r0, #0
10006f54:	43c0      	mvns	r0, r0
10006f56:	bd70      	pop	{r4, r5, r6, pc}
10006f58:	7802      	ldrb	r2, [r0, #0]
10006f5a:	780b      	ldrb	r3, [r1, #0]
10006f5c:	3001      	adds	r0, #1
10006f5e:	3101      	adds	r1, #1
10006f60:	2a00      	cmp	r2, #0
10006f62:	d009      	beq.n	10006f78 <strcmp+0x80>
10006f64:	429a      	cmp	r2, r3
10006f66:	d107      	bne.n	10006f78 <strcmp+0x80>
10006f68:	7802      	ldrb	r2, [r0, #0]
10006f6a:	780b      	ldrb	r3, [r1, #0]
10006f6c:	3001      	adds	r0, #1
10006f6e:	3101      	adds	r1, #1
10006f70:	2a00      	cmp	r2, #0
10006f72:	d001      	beq.n	10006f78 <strcmp+0x80>
10006f74:	429a      	cmp	r2, r3
10006f76:	d0ef      	beq.n	10006f58 <strcmp+0x60>
10006f78:	1ad0      	subs	r0, r2, r3
10006f7a:	bd70      	pop	{r4, r5, r6, pc}
10006f7c:	01010101 	.word	0x01010101

10006f80 <__malloc_lock>:
10006f80:	b510      	push	{r4, lr}
10006f82:	4802      	ldr	r0, [pc, #8]	@ (10006f8c <__malloc_lock+0xc>)
10006f84:	f7ff ff9a 	bl	10006ebc <__retarget_lock_acquire_recursive>
10006f88:	bd10      	pop	{r4, pc}
10006f8a:	46c0      	nop			@ (mov r8, r8)
10006f8c:	20000c28 	.word	0x20000c28

10006f90 <__malloc_unlock>:
10006f90:	b510      	push	{r4, lr}
10006f92:	4802      	ldr	r0, [pc, #8]	@ (10006f9c <__malloc_unlock+0xc>)
10006f94:	f7ff ff94 	bl	10006ec0 <__retarget_lock_release_recursive>
10006f98:	bd10      	pop	{r4, pc}
10006f9a:	46c0      	nop			@ (mov r8, r8)
10006f9c:	20000c28 	.word	0x20000c28

10006fa0 <_calloc_r>:
10006fa0:	b570      	push	{r4, r5, r6, lr}
10006fa2:	0c0b      	lsrs	r3, r1, #16
10006fa4:	2400      	movs	r4, #0
10006fa6:	0c15      	lsrs	r5, r2, #16
10006fa8:	2b00      	cmp	r3, #0
10006faa:	d128      	bne.n	10006ffe <_calloc_r+0x5e>
10006fac:	2d00      	cmp	r5, #0
10006fae:	d13c      	bne.n	1000702a <_calloc_r+0x8a>
10006fb0:	b28b      	uxth	r3, r1
10006fb2:	b291      	uxth	r1, r2
10006fb4:	4359      	muls	r1, r3
10006fb6:	f7ff fc75 	bl	100068a4 <_malloc_r>
10006fba:	1e05      	subs	r5, r0, #0
10006fbc:	d033      	beq.n	10007026 <_calloc_r+0x86>
10006fbe:	0003      	movs	r3, r0
10006fc0:	3b08      	subs	r3, #8
10006fc2:	685a      	ldr	r2, [r3, #4]
10006fc4:	2303      	movs	r3, #3
10006fc6:	439a      	bics	r2, r3
10006fc8:	3a04      	subs	r2, #4
10006fca:	2a24      	cmp	r2, #36	@ 0x24
10006fcc:	d812      	bhi.n	10006ff4 <_calloc_r+0x54>
10006fce:	0003      	movs	r3, r0
10006fd0:	2a13      	cmp	r2, #19
10006fd2:	d90a      	bls.n	10006fea <_calloc_r+0x4a>
10006fd4:	6004      	str	r4, [r0, #0]
10006fd6:	6044      	str	r4, [r0, #4]
10006fd8:	3308      	adds	r3, #8
10006fda:	2a1b      	cmp	r2, #27
10006fdc:	d905      	bls.n	10006fea <_calloc_r+0x4a>
10006fde:	6084      	str	r4, [r0, #8]
10006fe0:	60c4      	str	r4, [r0, #12]
10006fe2:	2a24      	cmp	r2, #36	@ 0x24
10006fe4:	d02a      	beq.n	1000703c <_calloc_r+0x9c>
10006fe6:	0003      	movs	r3, r0
10006fe8:	3310      	adds	r3, #16
10006fea:	2200      	movs	r2, #0
10006fec:	601a      	str	r2, [r3, #0]
10006fee:	605a      	str	r2, [r3, #4]
10006ff0:	609a      	str	r2, [r3, #8]
10006ff2:	e002      	b.n	10006ffa <_calloc_r+0x5a>
10006ff4:	2100      	movs	r1, #0
10006ff6:	f7fc f909 	bl	1000320c <__wrap_memset>
10006ffa:	0028      	movs	r0, r5
10006ffc:	bd70      	pop	{r4, r5, r6, pc}
10006ffe:	2d00      	cmp	r5, #0
10007000:	d116      	bne.n	10007030 <_calloc_r+0x90>
10007002:	1c15      	adds	r5, r2, #0
10007004:	b289      	uxth	r1, r1
10007006:	b292      	uxth	r2, r2
10007008:	434a      	muls	r2, r1
1000700a:	b2ad      	uxth	r5, r5
1000700c:	b29b      	uxth	r3, r3
1000700e:	436b      	muls	r3, r5
10007010:	0c11      	lsrs	r1, r2, #16
10007012:	185b      	adds	r3, r3, r1
10007014:	0c19      	lsrs	r1, r3, #16
10007016:	d10b      	bne.n	10007030 <_calloc_r+0x90>
10007018:	0419      	lsls	r1, r3, #16
1000701a:	b292      	uxth	r2, r2
1000701c:	4311      	orrs	r1, r2
1000701e:	f7ff fc41 	bl	100068a4 <_malloc_r>
10007022:	1e05      	subs	r5, r0, #0
10007024:	d1cb      	bne.n	10006fbe <_calloc_r+0x1e>
10007026:	2500      	movs	r5, #0
10007028:	e7e7      	b.n	10006ffa <_calloc_r+0x5a>
1000702a:	1c2b      	adds	r3, r5, #0
1000702c:	1c0d      	adds	r5, r1, #0
1000702e:	e7e9      	b.n	10007004 <_calloc_r+0x64>
10007030:	f002 fad4 	bl	100095dc <__errno>
10007034:	230c      	movs	r3, #12
10007036:	2500      	movs	r5, #0
10007038:	6003      	str	r3, [r0, #0]
1000703a:	e7de      	b.n	10006ffa <_calloc_r+0x5a>
1000703c:	0003      	movs	r3, r0
1000703e:	6104      	str	r4, [r0, #16]
10007040:	3318      	adds	r3, #24
10007042:	6144      	str	r4, [r0, #20]
10007044:	e7d1      	b.n	10006fea <_calloc_r+0x4a>
10007046:	46c0      	nop			@ (mov r8, r8)

10007048 <realloc>:
10007048:	0003      	movs	r3, r0
1000704a:	b510      	push	{r4, lr}
1000704c:	000a      	movs	r2, r1
1000704e:	4903      	ldr	r1, [pc, #12]	@ (1000705c <realloc+0x14>)
10007050:	6808      	ldr	r0, [r1, #0]
10007052:	0019      	movs	r1, r3
10007054:	f000 f876 	bl	10007144 <_realloc_r>
10007058:	bd10      	pop	{r4, pc}
1000705a:	46c0      	nop			@ (mov r8, r8)
1000705c:	2000076c 	.word	0x2000076c

10007060 <strlen>:
10007060:	b510      	push	{r4, lr}
10007062:	0783      	lsls	r3, r0, #30
10007064:	d00a      	beq.n	1000707c <strlen+0x1c>
10007066:	0003      	movs	r3, r0
10007068:	2103      	movs	r1, #3
1000706a:	e002      	b.n	10007072 <strlen+0x12>
1000706c:	3301      	adds	r3, #1
1000706e:	420b      	tst	r3, r1
10007070:	d005      	beq.n	1000707e <strlen+0x1e>
10007072:	781a      	ldrb	r2, [r3, #0]
10007074:	2a00      	cmp	r2, #0
10007076:	d1f9      	bne.n	1000706c <strlen+0xc>
10007078:	1a18      	subs	r0, r3, r0
1000707a:	bd10      	pop	{r4, pc}
1000707c:	0003      	movs	r3, r0
1000707e:	6819      	ldr	r1, [r3, #0]
10007080:	4a0c      	ldr	r2, [pc, #48]	@ (100070b4 <strlen+0x54>)
10007082:	4c0d      	ldr	r4, [pc, #52]	@ (100070b8 <strlen+0x58>)
10007084:	188a      	adds	r2, r1, r2
10007086:	438a      	bics	r2, r1
10007088:	4222      	tst	r2, r4
1000708a:	d10f      	bne.n	100070ac <strlen+0x4c>
1000708c:	6859      	ldr	r1, [r3, #4]
1000708e:	4a09      	ldr	r2, [pc, #36]	@ (100070b4 <strlen+0x54>)
10007090:	3304      	adds	r3, #4
10007092:	188a      	adds	r2, r1, r2
10007094:	438a      	bics	r2, r1
10007096:	4222      	tst	r2, r4
10007098:	d108      	bne.n	100070ac <strlen+0x4c>
1000709a:	6859      	ldr	r1, [r3, #4]
1000709c:	4a05      	ldr	r2, [pc, #20]	@ (100070b4 <strlen+0x54>)
1000709e:	3304      	adds	r3, #4
100070a0:	188a      	adds	r2, r1, r2
100070a2:	438a      	bics	r2, r1
100070a4:	4222      	tst	r2, r4
100070a6:	d0f1      	beq.n	1000708c <strlen+0x2c>
100070a8:	e000      	b.n	100070ac <strlen+0x4c>
100070aa:	3301      	adds	r3, #1
100070ac:	781a      	ldrb	r2, [r3, #0]
100070ae:	2a00      	cmp	r2, #0
100070b0:	d1fb      	bne.n	100070aa <strlen+0x4a>
100070b2:	e7e1      	b.n	10007078 <strlen+0x18>
100070b4:	fefefeff 	.word	0xfefefeff
100070b8:	80808080 	.word	0x80808080

100070bc <__sccl>:
100070bc:	b570      	push	{r4, r5, r6, lr}
100070be:	780d      	ldrb	r5, [r1, #0]
100070c0:	0004      	movs	r4, r0
100070c2:	2d5e      	cmp	r5, #94	@ 0x5e
100070c4:	d01d      	beq.n	10007102 <__sccl+0x46>
100070c6:	1c48      	adds	r0, r1, #1
100070c8:	2600      	movs	r6, #0
100070ca:	2100      	movs	r1, #0
100070cc:	0023      	movs	r3, r4
100070ce:	1c62      	adds	r2, r4, #1
100070d0:	32ff      	adds	r2, #255	@ 0xff
100070d2:	7019      	strb	r1, [r3, #0]
100070d4:	3301      	adds	r3, #1
100070d6:	4293      	cmp	r3, r2
100070d8:	d1fb      	bne.n	100070d2 <__sccl+0x16>
100070da:	2d00      	cmp	r5, #0
100070dc:	d00f      	beq.n	100070fe <__sccl+0x42>
100070de:	2201      	movs	r2, #1
100070e0:	4072      	eors	r2, r6
100070e2:	5562      	strb	r2, [r4, r5]
100070e4:	7803      	ldrb	r3, [r0, #0]
100070e6:	1c46      	adds	r6, r0, #1
100070e8:	2b2d      	cmp	r3, #45	@ 0x2d
100070ea:	d00f      	beq.n	1000710c <__sccl+0x50>
100070ec:	2b5d      	cmp	r3, #93	@ 0x5d
100070ee:	d004      	beq.n	100070fa <__sccl+0x3e>
100070f0:	2b00      	cmp	r3, #0
100070f2:	d003      	beq.n	100070fc <__sccl+0x40>
100070f4:	001d      	movs	r5, r3
100070f6:	0030      	movs	r0, r6
100070f8:	e7f3      	b.n	100070e2 <__sccl+0x26>
100070fa:	0030      	movs	r0, r6
100070fc:	bd70      	pop	{r4, r5, r6, pc}
100070fe:	3801      	subs	r0, #1
10007100:	e7fc      	b.n	100070fc <__sccl+0x40>
10007102:	784d      	ldrb	r5, [r1, #1]
10007104:	1c88      	adds	r0, r1, #2
10007106:	2601      	movs	r6, #1
10007108:	2101      	movs	r1, #1
1000710a:	e7df      	b.n	100070cc <__sccl+0x10>
1000710c:	7841      	ldrb	r1, [r0, #1]
1000710e:	295d      	cmp	r1, #93	@ 0x5d
10007110:	d011      	beq.n	10007136 <__sccl+0x7a>
10007112:	428d      	cmp	r5, r1
10007114:	dc0f      	bgt.n	10007136 <__sccl+0x7a>
10007116:	002b      	movs	r3, r5
10007118:	3002      	adds	r0, #2
1000711a:	3301      	adds	r3, #1
1000711c:	54e2      	strb	r2, [r4, r3]
1000711e:	4299      	cmp	r1, r3
10007120:	dcfb      	bgt.n	1000711a <__sccl+0x5e>
10007122:	2300      	movs	r3, #0
10007124:	1c6e      	adds	r6, r5, #1
10007126:	428d      	cmp	r5, r1
10007128:	db01      	blt.n	1000712e <__sccl+0x72>
1000712a:	18f5      	adds	r5, r6, r3
1000712c:	e7da      	b.n	100070e4 <__sccl+0x28>
1000712e:	1b49      	subs	r1, r1, r5
10007130:	1e4b      	subs	r3, r1, #1
10007132:	18f5      	adds	r5, r6, r3
10007134:	e7d6      	b.n	100070e4 <__sccl+0x28>
10007136:	252d      	movs	r5, #45	@ 0x2d
10007138:	0030      	movs	r0, r6
1000713a:	e7d2      	b.n	100070e2 <__sccl+0x26>

1000713c <nanf>:
1000713c:	4800      	ldr	r0, [pc, #0]	@ (10007140 <nanf+0x4>)
1000713e:	4770      	bx	lr
10007140:	7fc00000 	.word	0x7fc00000

10007144 <_realloc_r>:
10007144:	b5f0      	push	{r4, r5, r6, r7, lr}
10007146:	4657      	mov	r7, sl
10007148:	464e      	mov	r6, r9
1000714a:	46de      	mov	lr, fp
1000714c:	4645      	mov	r5, r8
1000714e:	b5e0      	push	{r5, r6, r7, lr}
10007150:	000c      	movs	r4, r1
10007152:	0006      	movs	r6, r0
10007154:	0017      	movs	r7, r2
10007156:	b083      	sub	sp, #12
10007158:	2900      	cmp	r1, #0
1000715a:	d100      	bne.n	1000715e <_realloc_r+0x1a>
1000715c:	e0ac      	b.n	100072b8 <_realloc_r+0x174>
1000715e:	f7ff ff0f 	bl	10006f80 <__malloc_lock>
10007162:	2308      	movs	r3, #8
10007164:	425b      	negs	r3, r3
10007166:	4699      	mov	r9, r3
10007168:	44a1      	add	r9, r4
1000716a:	464b      	mov	r3, r9
1000716c:	685b      	ldr	r3, [r3, #4]
1000716e:	2203      	movs	r2, #3
10007170:	0019      	movs	r1, r3
10007172:	003d      	movs	r5, r7
10007174:	4391      	bics	r1, r2
10007176:	350b      	adds	r5, #11
10007178:	46ca      	mov	sl, r9
1000717a:	4688      	mov	r8, r1
1000717c:	2d16      	cmp	r5, #22
1000717e:	d867      	bhi.n	10007250 <_realloc_r+0x10c>
10007180:	2510      	movs	r5, #16
10007182:	42af      	cmp	r7, r5
10007184:	d867      	bhi.n	10007256 <_realloc_r+0x112>
10007186:	45a8      	cmp	r8, r5
10007188:	da6e      	bge.n	10007268 <_realloc_r+0x124>
1000718a:	4649      	mov	r1, r9
1000718c:	48c0      	ldr	r0, [pc, #768]	@ (10007490 <_realloc_r+0x34c>)
1000718e:	4441      	add	r1, r8
10007190:	684a      	ldr	r2, [r1, #4]
10007192:	9000      	str	r0, [sp, #0]
10007194:	6880      	ldr	r0, [r0, #8]
10007196:	4693      	mov	fp, r2
10007198:	4288      	cmp	r0, r1
1000719a:	d100      	bne.n	1000719e <_realloc_r+0x5a>
1000719c:	e0a0      	b.n	100072e0 <_realloc_r+0x19c>
1000719e:	2001      	movs	r0, #1
100071a0:	4684      	mov	ip, r0
100071a2:	0010      	movs	r0, r2
100071a4:	4662      	mov	r2, ip
100071a6:	4390      	bics	r0, r2
100071a8:	1808      	adds	r0, r1, r0
100071aa:	6840      	ldr	r0, [r0, #4]
100071ac:	4210      	tst	r0, r2
100071ae:	d000      	beq.n	100071b2 <_realloc_r+0x6e>
100071b0:	e077      	b.n	100072a2 <_realloc_r+0x15e>
100071b2:	465a      	mov	r2, fp
100071b4:	2003      	movs	r0, #3
100071b6:	4382      	bics	r2, r0
100071b8:	4693      	mov	fp, r2
100071ba:	44c3      	add	fp, r8
100071bc:	455d      	cmp	r5, fp
100071be:	dd4e      	ble.n	1000725e <_realloc_r+0x11a>
100071c0:	4660      	mov	r0, ip
100071c2:	4218      	tst	r0, r3
100071c4:	d112      	bne.n	100071ec <_realloc_r+0xa8>
100071c6:	464b      	mov	r3, r9
100071c8:	4648      	mov	r0, r9
100071ca:	681b      	ldr	r3, [r3, #0]
100071cc:	1ac3      	subs	r3, r0, r3
100071ce:	2003      	movs	r0, #3
100071d0:	469b      	mov	fp, r3
100071d2:	685b      	ldr	r3, [r3, #4]
100071d4:	4383      	bics	r3, r0
100071d6:	18d2      	adds	r2, r2, r3
100071d8:	4442      	add	r2, r8
100071da:	9200      	str	r2, [sp, #0]
100071dc:	4295      	cmp	r5, r2
100071de:	dc00      	bgt.n	100071e2 <_realloc_r+0x9e>
100071e0:	e0cc      	b.n	1000737c <_realloc_r+0x238>
100071e2:	4443      	add	r3, r8
100071e4:	9300      	str	r3, [sp, #0]
100071e6:	429d      	cmp	r5, r3
100071e8:	dc00      	bgt.n	100071ec <_realloc_r+0xa8>
100071ea:	e0cb      	b.n	10007384 <_realloc_r+0x240>
100071ec:	0039      	movs	r1, r7
100071ee:	0030      	movs	r0, r6
100071f0:	f7ff fb58 	bl	100068a4 <_malloc_r>
100071f4:	1e07      	subs	r7, r0, #0
100071f6:	d100      	bne.n	100071fa <_realloc_r+0xb6>
100071f8:	e11e      	b.n	10007438 <_realloc_r+0x2f4>
100071fa:	464b      	mov	r3, r9
100071fc:	2201      	movs	r2, #1
100071fe:	685b      	ldr	r3, [r3, #4]
10007200:	4393      	bics	r3, r2
10007202:	0002      	movs	r2, r0
10007204:	444b      	add	r3, r9
10007206:	3a08      	subs	r2, #8
10007208:	4293      	cmp	r3, r2
1000720a:	d100      	bne.n	1000720e <_realloc_r+0xca>
1000720c:	e0e3      	b.n	100073d6 <_realloc_r+0x292>
1000720e:	4642      	mov	r2, r8
10007210:	3a04      	subs	r2, #4
10007212:	2a24      	cmp	r2, #36	@ 0x24
10007214:	d900      	bls.n	10007218 <_realloc_r+0xd4>
10007216:	e0e3      	b.n	100073e0 <_realloc_r+0x29c>
10007218:	0003      	movs	r3, r0
1000721a:	0021      	movs	r1, r4
1000721c:	2a13      	cmp	r2, #19
1000721e:	d909      	bls.n	10007234 <_realloc_r+0xf0>
10007220:	6823      	ldr	r3, [r4, #0]
10007222:	6003      	str	r3, [r0, #0]
10007224:	6863      	ldr	r3, [r4, #4]
10007226:	6043      	str	r3, [r0, #4]
10007228:	2a1b      	cmp	r2, #27
1000722a:	d900      	bls.n	1000722e <_realloc_r+0xea>
1000722c:	e0dc      	b.n	100073e8 <_realloc_r+0x2a4>
1000722e:	0003      	movs	r3, r0
10007230:	3108      	adds	r1, #8
10007232:	3308      	adds	r3, #8
10007234:	680a      	ldr	r2, [r1, #0]
10007236:	601a      	str	r2, [r3, #0]
10007238:	684a      	ldr	r2, [r1, #4]
1000723a:	605a      	str	r2, [r3, #4]
1000723c:	688a      	ldr	r2, [r1, #8]
1000723e:	609a      	str	r2, [r3, #8]
10007240:	0030      	movs	r0, r6
10007242:	0021      	movs	r1, r4
10007244:	f001 f8f8 	bl	10008438 <_free_r>
10007248:	0030      	movs	r0, r6
1000724a:	f7ff fea1 	bl	10006f90 <__malloc_unlock>
1000724e:	e020      	b.n	10007292 <_realloc_r+0x14e>
10007250:	3204      	adds	r2, #4
10007252:	4395      	bics	r5, r2
10007254:	d595      	bpl.n	10007182 <_realloc_r+0x3e>
10007256:	230c      	movs	r3, #12
10007258:	2700      	movs	r7, #0
1000725a:	6033      	str	r3, [r6, #0]
1000725c:	e019      	b.n	10007292 <_realloc_r+0x14e>
1000725e:	46d8      	mov	r8, fp
10007260:	68cb      	ldr	r3, [r1, #12]
10007262:	688a      	ldr	r2, [r1, #8]
10007264:	60d3      	str	r3, [r2, #12]
10007266:	609a      	str	r2, [r3, #8]
10007268:	4643      	mov	r3, r8
1000726a:	1b5f      	subs	r7, r3, r5
1000726c:	4653      	mov	r3, sl
1000726e:	2201      	movs	r2, #1
10007270:	4650      	mov	r0, sl
10007272:	685b      	ldr	r3, [r3, #4]
10007274:	4440      	add	r0, r8
10007276:	4013      	ands	r3, r2
10007278:	2f0f      	cmp	r7, #15
1000727a:	d822      	bhi.n	100072c2 <_realloc_r+0x17e>
1000727c:	4641      	mov	r1, r8
1000727e:	430b      	orrs	r3, r1
10007280:	4651      	mov	r1, sl
10007282:	604b      	str	r3, [r1, #4]
10007284:	6843      	ldr	r3, [r0, #4]
10007286:	4313      	orrs	r3, r2
10007288:	6043      	str	r3, [r0, #4]
1000728a:	0030      	movs	r0, r6
1000728c:	f7ff fe80 	bl	10006f90 <__malloc_unlock>
10007290:	0027      	movs	r7, r4
10007292:	0038      	movs	r0, r7
10007294:	b003      	add	sp, #12
10007296:	bcf0      	pop	{r4, r5, r6, r7}
10007298:	46bb      	mov	fp, r7
1000729a:	46b2      	mov	sl, r6
1000729c:	46a9      	mov	r9, r5
1000729e:	46a0      	mov	r8, r4
100072a0:	bdf0      	pop	{r4, r5, r6, r7, pc}
100072a2:	421a      	tst	r2, r3
100072a4:	d1a2      	bne.n	100071ec <_realloc_r+0xa8>
100072a6:	464b      	mov	r3, r9
100072a8:	464a      	mov	r2, r9
100072aa:	681b      	ldr	r3, [r3, #0]
100072ac:	1ad3      	subs	r3, r2, r3
100072ae:	2203      	movs	r2, #3
100072b0:	469b      	mov	fp, r3
100072b2:	685b      	ldr	r3, [r3, #4]
100072b4:	4393      	bics	r3, r2
100072b6:	e794      	b.n	100071e2 <_realloc_r+0x9e>
100072b8:	0011      	movs	r1, r2
100072ba:	f7ff faf3 	bl	100068a4 <_malloc_r>
100072be:	0007      	movs	r7, r0
100072c0:	e7e7      	b.n	10007292 <_realloc_r+0x14e>
100072c2:	4651      	mov	r1, sl
100072c4:	432b      	orrs	r3, r5
100072c6:	1949      	adds	r1, r1, r5
100072c8:	4655      	mov	r5, sl
100072ca:	4317      	orrs	r7, r2
100072cc:	606b      	str	r3, [r5, #4]
100072ce:	604f      	str	r7, [r1, #4]
100072d0:	6843      	ldr	r3, [r0, #4]
100072d2:	3108      	adds	r1, #8
100072d4:	4313      	orrs	r3, r2
100072d6:	6043      	str	r3, [r0, #4]
100072d8:	0030      	movs	r0, r6
100072da:	f001 f8ad 	bl	10008438 <_free_r>
100072de:	e7d4      	b.n	1000728a <_realloc_r+0x146>
100072e0:	2103      	movs	r1, #3
100072e2:	438a      	bics	r2, r1
100072e4:	4694      	mov	ip, r2
100072e6:	0029      	movs	r1, r5
100072e8:	44c4      	add	ip, r8
100072ea:	3110      	adds	r1, #16
100072ec:	458c      	cmp	ip, r1
100072ee:	db00      	blt.n	100072f2 <_realloc_r+0x1ae>
100072f0:	e084      	b.n	100073fc <_realloc_r+0x2b8>
100072f2:	07db      	lsls	r3, r3, #31
100072f4:	d500      	bpl.n	100072f8 <_realloc_r+0x1b4>
100072f6:	e779      	b.n	100071ec <_realloc_r+0xa8>
100072f8:	464b      	mov	r3, r9
100072fa:	4648      	mov	r0, r9
100072fc:	681b      	ldr	r3, [r3, #0]
100072fe:	1ac3      	subs	r3, r0, r3
10007300:	2003      	movs	r0, #3
10007302:	469b      	mov	fp, r3
10007304:	685b      	ldr	r3, [r3, #4]
10007306:	4383      	bics	r3, r0
10007308:	18d2      	adds	r2, r2, r3
1000730a:	4442      	add	r2, r8
1000730c:	9201      	str	r2, [sp, #4]
1000730e:	4291      	cmp	r1, r2
10007310:	dd00      	ble.n	10007314 <_realloc_r+0x1d0>
10007312:	e766      	b.n	100071e2 <_realloc_r+0x9e>
10007314:	465b      	mov	r3, fp
10007316:	465a      	mov	r2, fp
10007318:	68db      	ldr	r3, [r3, #12]
1000731a:	6892      	ldr	r2, [r2, #8]
1000731c:	465f      	mov	r7, fp
1000731e:	60d3      	str	r3, [r2, #12]
10007320:	609a      	str	r2, [r3, #8]
10007322:	4642      	mov	r2, r8
10007324:	3a04      	subs	r2, #4
10007326:	3708      	adds	r7, #8
10007328:	2a24      	cmp	r2, #36	@ 0x24
1000732a:	d900      	bls.n	1000732e <_realloc_r+0x1ea>
1000732c:	e099      	b.n	10007462 <_realloc_r+0x31e>
1000732e:	003b      	movs	r3, r7
10007330:	2a13      	cmp	r2, #19
10007332:	d90a      	bls.n	1000734a <_realloc_r+0x206>
10007334:	4659      	mov	r1, fp
10007336:	6823      	ldr	r3, [r4, #0]
10007338:	608b      	str	r3, [r1, #8]
1000733a:	6863      	ldr	r3, [r4, #4]
1000733c:	60cb      	str	r3, [r1, #12]
1000733e:	2a1b      	cmp	r2, #27
10007340:	d900      	bls.n	10007344 <_realloc_r+0x200>
10007342:	e093      	b.n	1000746c <_realloc_r+0x328>
10007344:	465b      	mov	r3, fp
10007346:	3408      	adds	r4, #8
10007348:	3310      	adds	r3, #16
1000734a:	6822      	ldr	r2, [r4, #0]
1000734c:	601a      	str	r2, [r3, #0]
1000734e:	6862      	ldr	r2, [r4, #4]
10007350:	605a      	str	r2, [r3, #4]
10007352:	68a2      	ldr	r2, [r4, #8]
10007354:	609a      	str	r2, [r3, #8]
10007356:	465b      	mov	r3, fp
10007358:	2201      	movs	r2, #1
1000735a:	1959      	adds	r1, r3, r5
1000735c:	9b00      	ldr	r3, [sp, #0]
1000735e:	0030      	movs	r0, r6
10007360:	6099      	str	r1, [r3, #8]
10007362:	9b01      	ldr	r3, [sp, #4]
10007364:	1b5b      	subs	r3, r3, r5
10007366:	4313      	orrs	r3, r2
10007368:	604b      	str	r3, [r1, #4]
1000736a:	465b      	mov	r3, fp
1000736c:	685b      	ldr	r3, [r3, #4]
1000736e:	4013      	ands	r3, r2
10007370:	465a      	mov	r2, fp
10007372:	432b      	orrs	r3, r5
10007374:	6053      	str	r3, [r2, #4]
10007376:	f7ff fe0b 	bl	10006f90 <__malloc_unlock>
1000737a:	e78a      	b.n	10007292 <_realloc_r+0x14e>
1000737c:	68cb      	ldr	r3, [r1, #12]
1000737e:	688a      	ldr	r2, [r1, #8]
10007380:	60d3      	str	r3, [r2, #12]
10007382:	609a      	str	r2, [r3, #8]
10007384:	465b      	mov	r3, fp
10007386:	465a      	mov	r2, fp
10007388:	68db      	ldr	r3, [r3, #12]
1000738a:	6892      	ldr	r2, [r2, #8]
1000738c:	465f      	mov	r7, fp
1000738e:	60d3      	str	r3, [r2, #12]
10007390:	609a      	str	r2, [r3, #8]
10007392:	4642      	mov	r2, r8
10007394:	3a04      	subs	r2, #4
10007396:	3708      	adds	r7, #8
10007398:	2a24      	cmp	r2, #36	@ 0x24
1000739a:	d817      	bhi.n	100073cc <_realloc_r+0x288>
1000739c:	003b      	movs	r3, r7
1000739e:	2a13      	cmp	r2, #19
100073a0:	d909      	bls.n	100073b6 <_realloc_r+0x272>
100073a2:	4659      	mov	r1, fp
100073a4:	6823      	ldr	r3, [r4, #0]
100073a6:	608b      	str	r3, [r1, #8]
100073a8:	6863      	ldr	r3, [r4, #4]
100073aa:	60cb      	str	r3, [r1, #12]
100073ac:	2a1b      	cmp	r2, #27
100073ae:	d839      	bhi.n	10007424 <_realloc_r+0x2e0>
100073b0:	465b      	mov	r3, fp
100073b2:	3408      	adds	r4, #8
100073b4:	3310      	adds	r3, #16
100073b6:	6822      	ldr	r2, [r4, #0]
100073b8:	601a      	str	r2, [r3, #0]
100073ba:	6862      	ldr	r2, [r4, #4]
100073bc:	605a      	str	r2, [r3, #4]
100073be:	68a2      	ldr	r2, [r4, #8]
100073c0:	609a      	str	r2, [r3, #8]
100073c2:	9b00      	ldr	r3, [sp, #0]
100073c4:	003c      	movs	r4, r7
100073c6:	4698      	mov	r8, r3
100073c8:	46da      	mov	sl, fp
100073ca:	e74d      	b.n	10007268 <_realloc_r+0x124>
100073cc:	0021      	movs	r1, r4
100073ce:	0038      	movs	r0, r7
100073d0:	f002 faae 	bl	10009930 <memmove>
100073d4:	e7f5      	b.n	100073c2 <_realloc_r+0x27e>
100073d6:	2203      	movs	r2, #3
100073d8:	685b      	ldr	r3, [r3, #4]
100073da:	4393      	bics	r3, r2
100073dc:	4498      	add	r8, r3
100073de:	e743      	b.n	10007268 <_realloc_r+0x124>
100073e0:	0021      	movs	r1, r4
100073e2:	f002 faa5 	bl	10009930 <memmove>
100073e6:	e72b      	b.n	10007240 <_realloc_r+0xfc>
100073e8:	68a3      	ldr	r3, [r4, #8]
100073ea:	6083      	str	r3, [r0, #8]
100073ec:	68e3      	ldr	r3, [r4, #12]
100073ee:	60c3      	str	r3, [r0, #12]
100073f0:	2a24      	cmp	r2, #36	@ 0x24
100073f2:	d026      	beq.n	10007442 <_realloc_r+0x2fe>
100073f4:	0003      	movs	r3, r0
100073f6:	3110      	adds	r1, #16
100073f8:	3310      	adds	r3, #16
100073fa:	e71b      	b.n	10007234 <_realloc_r+0xf0>
100073fc:	464b      	mov	r3, r9
100073fe:	1959      	adds	r1, r3, r5
10007400:	9b00      	ldr	r3, [sp, #0]
10007402:	2201      	movs	r2, #1
10007404:	6099      	str	r1, [r3, #8]
10007406:	4663      	mov	r3, ip
10007408:	1b5b      	subs	r3, r3, r5
1000740a:	4313      	orrs	r3, r2
1000740c:	604b      	str	r3, [r1, #4]
1000740e:	464b      	mov	r3, r9
10007410:	685b      	ldr	r3, [r3, #4]
10007412:	0030      	movs	r0, r6
10007414:	4013      	ands	r3, r2
10007416:	464a      	mov	r2, r9
10007418:	432b      	orrs	r3, r5
1000741a:	6053      	str	r3, [r2, #4]
1000741c:	f7ff fdb8 	bl	10006f90 <__malloc_unlock>
10007420:	0027      	movs	r7, r4
10007422:	e736      	b.n	10007292 <_realloc_r+0x14e>
10007424:	68a3      	ldr	r3, [r4, #8]
10007426:	610b      	str	r3, [r1, #16]
10007428:	68e3      	ldr	r3, [r4, #12]
1000742a:	614b      	str	r3, [r1, #20]
1000742c:	2a24      	cmp	r2, #36	@ 0x24
1000742e:	d010      	beq.n	10007452 <_realloc_r+0x30e>
10007430:	465b      	mov	r3, fp
10007432:	3410      	adds	r4, #16
10007434:	3318      	adds	r3, #24
10007436:	e7be      	b.n	100073b6 <_realloc_r+0x272>
10007438:	0030      	movs	r0, r6
1000743a:	f7ff fda9 	bl	10006f90 <__malloc_unlock>
1000743e:	2700      	movs	r7, #0
10007440:	e727      	b.n	10007292 <_realloc_r+0x14e>
10007442:	6923      	ldr	r3, [r4, #16]
10007444:	3118      	adds	r1, #24
10007446:	6103      	str	r3, [r0, #16]
10007448:	0003      	movs	r3, r0
1000744a:	6962      	ldr	r2, [r4, #20]
1000744c:	3318      	adds	r3, #24
1000744e:	6142      	str	r2, [r0, #20]
10007450:	e6f0      	b.n	10007234 <_realloc_r+0xf0>
10007452:	6923      	ldr	r3, [r4, #16]
10007454:	618b      	str	r3, [r1, #24]
10007456:	465b      	mov	r3, fp
10007458:	6962      	ldr	r2, [r4, #20]
1000745a:	3320      	adds	r3, #32
1000745c:	61ca      	str	r2, [r1, #28]
1000745e:	3418      	adds	r4, #24
10007460:	e7a9      	b.n	100073b6 <_realloc_r+0x272>
10007462:	0021      	movs	r1, r4
10007464:	0038      	movs	r0, r7
10007466:	f002 fa63 	bl	10009930 <memmove>
1000746a:	e774      	b.n	10007356 <_realloc_r+0x212>
1000746c:	68a3      	ldr	r3, [r4, #8]
1000746e:	610b      	str	r3, [r1, #16]
10007470:	68e3      	ldr	r3, [r4, #12]
10007472:	614b      	str	r3, [r1, #20]
10007474:	2a24      	cmp	r2, #36	@ 0x24
10007476:	d003      	beq.n	10007480 <_realloc_r+0x33c>
10007478:	465b      	mov	r3, fp
1000747a:	3410      	adds	r4, #16
1000747c:	3318      	adds	r3, #24
1000747e:	e764      	b.n	1000734a <_realloc_r+0x206>
10007480:	6923      	ldr	r3, [r4, #16]
10007482:	618b      	str	r3, [r1, #24]
10007484:	465b      	mov	r3, fp
10007486:	6962      	ldr	r2, [r4, #20]
10007488:	3320      	adds	r3, #32
1000748a:	61ca      	str	r2, [r1, #28]
1000748c:	3418      	adds	r4, #24
1000748e:	e75c      	b.n	1000734a <_realloc_r+0x206>
10007490:	200001f8 	.word	0x200001f8

10007494 <sulp>:
10007494:	b570      	push	{r4, r5, r6, lr}
10007496:	0016      	movs	r6, r2
10007498:	000d      	movs	r5, r1
1000749a:	f002 feb1 	bl	1000a200 <__ulp>
1000749e:	2e00      	cmp	r6, #0
100074a0:	d00d      	beq.n	100074be <sulp+0x2a>
100074a2:	236b      	movs	r3, #107	@ 0x6b
100074a4:	006a      	lsls	r2, r5, #1
100074a6:	0d52      	lsrs	r2, r2, #21
100074a8:	1a9b      	subs	r3, r3, r2
100074aa:	2b00      	cmp	r3, #0
100074ac:	dd07      	ble.n	100074be <sulp+0x2a>
100074ae:	2400      	movs	r4, #0
100074b0:	4a03      	ldr	r2, [pc, #12]	@ (100074c0 <sulp+0x2c>)
100074b2:	051b      	lsls	r3, r3, #20
100074b4:	189d      	adds	r5, r3, r2
100074b6:	002b      	movs	r3, r5
100074b8:	0022      	movs	r2, r4
100074ba:	f7fb f92a 	bl	10002712 <__wrap___aeabi_dmul>
100074be:	bd70      	pop	{r4, r5, r6, pc}
100074c0:	3ff00000 	.word	0x3ff00000

100074c4 <_strtod_l>:
100074c4:	b5f0      	push	{r4, r5, r6, r7, lr}
100074c6:	4645      	mov	r5, r8
100074c8:	46de      	mov	lr, fp
100074ca:	4657      	mov	r7, sl
100074cc:	464e      	mov	r6, r9
100074ce:	b5e0      	push	{r5, r6, r7, lr}
100074d0:	b09f      	sub	sp, #124	@ 0x7c
100074d2:	9207      	str	r2, [sp, #28]
100074d4:	2200      	movs	r2, #0
100074d6:	000c      	movs	r4, r1
100074d8:	921a      	str	r2, [sp, #104]	@ 0x68
100074da:	2100      	movs	r1, #0
100074dc:	2200      	movs	r2, #0
100074de:	4680      	mov	r8, r0
100074e0:	9104      	str	r1, [sp, #16]
100074e2:	9205      	str	r2, [sp, #20]
100074e4:	0021      	movs	r1, r4
100074e6:	9119      	str	r1, [sp, #100]	@ 0x64
100074e8:	780a      	ldrb	r2, [r1, #0]
100074ea:	000f      	movs	r7, r1
100074ec:	2a2d      	cmp	r2, #45	@ 0x2d
100074ee:	d803      	bhi.n	100074f8 <_strtod_l+0x34>
100074f0:	4db1      	ldr	r5, [pc, #708]	@ (100077b8 <_strtod_l+0x2f4>)
100074f2:	0090      	lsls	r0, r2, #2
100074f4:	5828      	ldr	r0, [r5, r0]
100074f6:	4687      	mov	pc, r0
100074f8:	2100      	movs	r1, #0
100074fa:	9108      	str	r1, [sp, #32]
100074fc:	2100      	movs	r1, #0
100074fe:	9109      	str	r1, [sp, #36]	@ 0x24
10007500:	2a30      	cmp	r2, #48	@ 0x30
10007502:	d100      	bne.n	10007506 <_strtod_l+0x42>
10007504:	e0b2      	b.n	1000766c <_strtod_l+0x1a8>
10007506:	0015      	movs	r5, r2
10007508:	2a2f      	cmp	r2, #47	@ 0x2f
1000750a:	d801      	bhi.n	10007510 <_strtod_l+0x4c>
1000750c:	f000 fd3f 	bl	10007f8e <_strtod_l+0xaca>
10007510:	2300      	movs	r3, #0
10007512:	46a4      	mov	ip, r4
10007514:	0038      	movs	r0, r7
10007516:	2600      	movs	r6, #0
10007518:	0019      	movs	r1, r3
1000751a:	001c      	movs	r4, r3
1000751c:	e00b      	b.n	10007536 <_strtod_l+0x72>
1000751e:	008b      	lsls	r3, r1, #2
10007520:	3001      	adds	r0, #1
10007522:	185b      	adds	r3, r3, r1
10007524:	9019      	str	r0, [sp, #100]	@ 0x64
10007526:	7805      	ldrb	r5, [r0, #0]
10007528:	005b      	lsls	r3, r3, #1
1000752a:	1899      	adds	r1, r3, r2
1000752c:	3930      	subs	r1, #48	@ 0x30
1000752e:	002a      	movs	r2, r5
10007530:	3601      	adds	r6, #1
10007532:	2d2f      	cmp	r5, #47	@ 0x2f
10007534:	dd0f      	ble.n	10007556 <_strtod_l+0x92>
10007536:	2d39      	cmp	r5, #57	@ 0x39
10007538:	dc37      	bgt.n	100075aa <_strtod_l+0xe6>
1000753a:	2e08      	cmp	r6, #8
1000753c:	ddef      	ble.n	1000751e <_strtod_l+0x5a>
1000753e:	00a3      	lsls	r3, r4, #2
10007540:	3001      	adds	r0, #1
10007542:	191b      	adds	r3, r3, r4
10007544:	9019      	str	r0, [sp, #100]	@ 0x64
10007546:	7805      	ldrb	r5, [r0, #0]
10007548:	005b      	lsls	r3, r3, #1
1000754a:	189c      	adds	r4, r3, r2
1000754c:	3c30      	subs	r4, #48	@ 0x30
1000754e:	002a      	movs	r2, r5
10007550:	3601      	adds	r6, #1
10007552:	2d2f      	cmp	r5, #47	@ 0x2f
10007554:	dcef      	bgt.n	10007536 <_strtod_l+0x72>
10007556:	4689      	mov	r9, r1
10007558:	2201      	movs	r2, #1
1000755a:	4998      	ldr	r1, [pc, #608]	@ (100077bc <_strtod_l+0x2f8>)
1000755c:	46a2      	mov	sl, r4
1000755e:	4664      	mov	r4, ip
10007560:	f7fd fcc4 	bl	10004eec <strncmp>
10007564:	2800      	cmp	r0, #0
10007566:	d000      	beq.n	1000756a <_strtod_l+0xa6>
10007568:	e094      	b.n	10007694 <_strtod_l+0x1d0>
1000756a:	9b19      	ldr	r3, [sp, #100]	@ 0x64
1000756c:	960d      	str	r6, [sp, #52]	@ 0x34
1000756e:	1c5a      	adds	r2, r3, #1
10007570:	9219      	str	r2, [sp, #100]	@ 0x64
10007572:	785d      	ldrb	r5, [r3, #1]
10007574:	2300      	movs	r3, #0
10007576:	9312      	str	r3, [sp, #72]	@ 0x48
10007578:	e050      	b.n	1000761c <_strtod_l+0x158>
1000757a:	3101      	adds	r1, #1
1000757c:	e7b3      	b.n	100074e6 <_strtod_l+0x22>
1000757e:	2200      	movs	r2, #0
10007580:	9208      	str	r2, [sp, #32]
10007582:	1c4f      	adds	r7, r1, #1
10007584:	9719      	str	r7, [sp, #100]	@ 0x64
10007586:	784a      	ldrb	r2, [r1, #1]
10007588:	2a00      	cmp	r2, #0
1000758a:	d1b7      	bne.n	100074fc <_strtod_l+0x38>
1000758c:	9b07      	ldr	r3, [sp, #28]
1000758e:	2600      	movs	r6, #0
10007590:	2700      	movs	r7, #0
10007592:	2b00      	cmp	r3, #0
10007594:	d000      	beq.n	10007598 <_strtod_l+0xd4>
10007596:	601c      	str	r4, [r3, #0]
10007598:	0030      	movs	r0, r6
1000759a:	0039      	movs	r1, r7
1000759c:	b01f      	add	sp, #124	@ 0x7c
1000759e:	bcf0      	pop	{r4, r5, r6, r7}
100075a0:	46bb      	mov	fp, r7
100075a2:	46b2      	mov	sl, r6
100075a4:	46a9      	mov	r9, r5
100075a6:	46a0      	mov	r8, r4
100075a8:	bdf0      	pop	{r4, r5, r6, r7, pc}
100075aa:	4689      	mov	r9, r1
100075ac:	2201      	movs	r2, #1
100075ae:	4983      	ldr	r1, [pc, #524]	@ (100077bc <_strtod_l+0x2f8>)
100075b0:	46a2      	mov	sl, r4
100075b2:	4664      	mov	r4, ip
100075b4:	f7fd fc9a 	bl	10004eec <strncmp>
100075b8:	2800      	cmp	r0, #0
100075ba:	d16b      	bne.n	10007694 <_strtod_l+0x1d0>
100075bc:	9a19      	ldr	r2, [sp, #100]	@ 0x64
100075be:	0013      	movs	r3, r2
100075c0:	3201      	adds	r2, #1
100075c2:	9219      	str	r2, [sp, #100]	@ 0x64
100075c4:	785d      	ldrb	r5, [r3, #1]
100075c6:	2e00      	cmp	r6, #0
100075c8:	d001      	beq.n	100075ce <_strtod_l+0x10a>
100075ca:	f000 fd6f 	bl	100080ac <_strtod_l+0xbe8>
100075ce:	2d30      	cmp	r5, #48	@ 0x30
100075d0:	d001      	beq.n	100075d6 <_strtod_l+0x112>
100075d2:	f000 fd01 	bl	10007fd8 <_strtod_l+0xb14>
100075d6:	0013      	movs	r3, r2
100075d8:	0018      	movs	r0, r3
100075da:	3301      	adds	r3, #1
100075dc:	9319      	str	r3, [sp, #100]	@ 0x64
100075de:	781d      	ldrb	r5, [r3, #0]
100075e0:	2d30      	cmp	r5, #48	@ 0x30
100075e2:	d0f9      	beq.n	100075d8 <_strtod_l+0x114>
100075e4:	1a80      	subs	r0, r0, r2
100075e6:	3001      	adds	r0, #1
100075e8:	002b      	movs	r3, r5
100075ea:	3b31      	subs	r3, #49	@ 0x31
100075ec:	2b08      	cmp	r3, #8
100075ee:	d900      	bls.n	100075f2 <_strtod_l+0x12e>
100075f0:	e351      	b.n	10007c96 <_strtod_l+0x7d2>
100075f2:	2330      	movs	r3, #48	@ 0x30
100075f4:	425b      	negs	r3, r3
100075f6:	469c      	mov	ip, r3
100075f8:	9f19      	ldr	r7, [sp, #100]	@ 0x64
100075fa:	1c43      	adds	r3, r0, #1
100075fc:	9312      	str	r3, [sp, #72]	@ 0x48
100075fe:	2300      	movs	r3, #0
10007600:	44ac      	add	ip, r5
10007602:	2601      	movs	r6, #1
10007604:	003d      	movs	r5, r7
10007606:	930d      	str	r3, [sp, #52]	@ 0x34
10007608:	464b      	mov	r3, r9
1000760a:	009b      	lsls	r3, r3, #2
1000760c:	444b      	add	r3, r9
1000760e:	005b      	lsls	r3, r3, #1
10007610:	4463      	add	r3, ip
10007612:	4699      	mov	r9, r3
10007614:	2000      	movs	r0, #0
10007616:	1c6b      	adds	r3, r5, #1
10007618:	9319      	str	r3, [sp, #100]	@ 0x64
1000761a:	786d      	ldrb	r5, [r5, #1]
1000761c:	002a      	movs	r2, r5
1000761e:	3a30      	subs	r2, #48	@ 0x30
10007620:	2a09      	cmp	r2, #9
10007622:	d900      	bls.n	10007626 <_strtod_l+0x162>
10007624:	e33b      	b.n	10007c9e <_strtod_l+0x7da>
10007626:	4694      	mov	ip, r2
10007628:	9d19      	ldr	r5, [sp, #100]	@ 0x64
1000762a:	3001      	adds	r0, #1
1000762c:	2a00      	cmp	r2, #0
1000762e:	d0f2      	beq.n	10007616 <_strtod_l+0x152>
10007630:	1983      	adds	r3, r0, r6
10007632:	469b      	mov	fp, r3
10007634:	1e59      	subs	r1, r3, #1
10007636:	2801      	cmp	r0, #1
10007638:	d101      	bne.n	1000763e <_strtod_l+0x17a>
1000763a:	f000 fe7c 	bl	10008336 <_strtod_l+0xe72>
1000763e:	464b      	mov	r3, r9
10007640:	4652      	mov	r2, sl
10007642:	4681      	mov	r9, r0
10007644:	46e2      	mov	sl, ip
10007646:	0018      	movs	r0, r3
10007648:	e006      	b.n	10007658 <_strtod_l+0x194>
1000764a:	0083      	lsls	r3, r0, #2
1000764c:	1818      	adds	r0, r3, r0
1000764e:	0040      	lsls	r0, r0, #1
10007650:	428e      	cmp	r6, r1
10007652:	d101      	bne.n	10007658 <_strtod_l+0x194>
10007654:	f000 fc7a 	bl	10007f4c <_strtod_l+0xa88>
10007658:	0033      	movs	r3, r6
1000765a:	3601      	adds	r6, #1
1000765c:	2b08      	cmp	r3, #8
1000765e:	d9f4      	bls.n	1000764a <_strtod_l+0x186>
10007660:	2e10      	cmp	r6, #16
10007662:	dcf5      	bgt.n	10007650 <_strtod_l+0x18c>
10007664:	0093      	lsls	r3, r2, #2
10007666:	189a      	adds	r2, r3, r2
10007668:	0052      	lsls	r2, r2, #1
1000766a:	e7f1      	b.n	10007650 <_strtod_l+0x18c>
1000766c:	787a      	ldrb	r2, [r7, #1]
1000766e:	3120      	adds	r1, #32
10007670:	438a      	bics	r2, r1
10007672:	1c7d      	adds	r5, r7, #1
10007674:	2a58      	cmp	r2, #88	@ 0x58
10007676:	d101      	bne.n	1000767c <_strtod_l+0x1b8>
10007678:	f000 fc0c 	bl	10007e94 <_strtod_l+0x9d0>
1000767c:	002f      	movs	r7, r5
1000767e:	9519      	str	r5, [sp, #100]	@ 0x64
10007680:	783a      	ldrb	r2, [r7, #0]
10007682:	3501      	adds	r5, #1
10007684:	2a30      	cmp	r2, #48	@ 0x30
10007686:	d0f9      	beq.n	1000767c <_strtod_l+0x1b8>
10007688:	2a00      	cmp	r2, #0
1000768a:	d100      	bne.n	1000768e <_strtod_l+0x1ca>
1000768c:	e2f3      	b.n	10007c76 <_strtod_l+0x7b2>
1000768e:	2301      	movs	r3, #1
10007690:	9309      	str	r3, [sp, #36]	@ 0x24
10007692:	e738      	b.n	10007506 <_strtod_l+0x42>
10007694:	2300      	movs	r3, #0
10007696:	2000      	movs	r0, #0
10007698:	2200      	movs	r2, #0
1000769a:	960d      	str	r6, [sp, #52]	@ 0x34
1000769c:	9312      	str	r3, [sp, #72]	@ 0x48
1000769e:	2320      	movs	r3, #32
100076a0:	0029      	movs	r1, r5
100076a2:	4399      	bics	r1, r3
100076a4:	000b      	movs	r3, r1
100076a6:	2100      	movs	r1, #0
100076a8:	910b      	str	r1, [sp, #44]	@ 0x2c
100076aa:	2b45      	cmp	r3, #69	@ 0x45
100076ac:	d029      	beq.n	10007702 <_strtod_l+0x23e>
100076ae:	2e00      	cmp	r6, #0
100076b0:	d000      	beq.n	100076b4 <_strtod_l+0x1f0>
100076b2:	e08b      	b.n	100077cc <_strtod_l+0x308>
100076b4:	9b09      	ldr	r3, [sp, #36]	@ 0x24
100076b6:	4318      	orrs	r0, r3
100076b8:	d000      	beq.n	100076bc <_strtod_l+0x1f8>
100076ba:	e2dc      	b.n	10007c76 <_strtod_l+0x7b2>
100076bc:	2a00      	cmp	r2, #0
100076be:	d000      	beq.n	100076c2 <_strtod_l+0x1fe>
100076c0:	e764      	b.n	1000758c <_strtod_l+0xc8>
100076c2:	2d69      	cmp	r5, #105	@ 0x69
100076c4:	d100      	bne.n	100076c8 <_strtod_l+0x204>
100076c6:	e30c      	b.n	10007ce2 <_strtod_l+0x81e>
100076c8:	dc18      	bgt.n	100076fc <_strtod_l+0x238>
100076ca:	2d49      	cmp	r5, #73	@ 0x49
100076cc:	d100      	bne.n	100076d0 <_strtod_l+0x20c>
100076ce:	e308      	b.n	10007ce2 <_strtod_l+0x81e>
100076d0:	2d4e      	cmp	r5, #78	@ 0x4e
100076d2:	d000      	beq.n	100076d6 <_strtod_l+0x212>
100076d4:	e75a      	b.n	1000758c <_strtod_l+0xc8>
100076d6:	493a      	ldr	r1, [pc, #232]	@ (100077c0 <_strtod_l+0x2fc>)
100076d8:	a819      	add	r0, sp, #100	@ 0x64
100076da:	f001 fc15 	bl	10008f08 <__match>
100076de:	2800      	cmp	r0, #0
100076e0:	d100      	bne.n	100076e4 <_strtod_l+0x220>
100076e2:	e753      	b.n	1000758c <_strtod_l+0xc8>
100076e4:	9b19      	ldr	r3, [sp, #100]	@ 0x64
100076e6:	781b      	ldrb	r3, [r3, #0]
100076e8:	2b28      	cmp	r3, #40	@ 0x28
100076ea:	d101      	bne.n	100076f0 <_strtod_l+0x22c>
100076ec:	f000 fd4c 	bl	10008188 <_strtod_l+0xcc4>
100076f0:	4834      	ldr	r0, [pc, #208]	@ (100077c4 <_strtod_l+0x300>)
100076f2:	f002 fee1 	bl	1000a4b8 <nan>
100076f6:	0006      	movs	r6, r0
100076f8:	000f      	movs	r7, r1
100076fa:	e2be      	b.n	10007c7a <_strtod_l+0x7b6>
100076fc:	2d6e      	cmp	r5, #110	@ 0x6e
100076fe:	d0ea      	beq.n	100076d6 <_strtod_l+0x212>
10007700:	e744      	b.n	1000758c <_strtod_l+0xc8>
10007702:	0033      	movs	r3, r6
10007704:	9909      	ldr	r1, [sp, #36]	@ 0x24
10007706:	4303      	orrs	r3, r0
10007708:	430b      	orrs	r3, r1
1000770a:	d100      	bne.n	1000770e <_strtod_l+0x24a>
1000770c:	e73e      	b.n	1000758c <_strtod_l+0xc8>
1000770e:	9c19      	ldr	r4, [sp, #100]	@ 0x64
10007710:	1c63      	adds	r3, r4, #1
10007712:	9319      	str	r3, [sp, #100]	@ 0x64
10007714:	7865      	ldrb	r5, [r4, #1]
10007716:	2d2b      	cmp	r5, #43	@ 0x2b
10007718:	d100      	bne.n	1000771c <_strtod_l+0x258>
1000771a:	e3ac      	b.n	10007e76 <_strtod_l+0x9b2>
1000771c:	2d2d      	cmp	r5, #45	@ 0x2d
1000771e:	d100      	bne.n	10007722 <_strtod_l+0x25e>
10007720:	e2c3      	b.n	10007caa <_strtod_l+0x7e6>
10007722:	2300      	movs	r3, #0
10007724:	930a      	str	r3, [sp, #40]	@ 0x28
10007726:	002b      	movs	r3, r5
10007728:	3b30      	subs	r3, #48	@ 0x30
1000772a:	2b09      	cmp	r3, #9
1000772c:	d900      	bls.n	10007730 <_strtod_l+0x26c>
1000772e:	e2b8      	b.n	10007ca2 <_strtod_l+0x7de>
10007730:	9919      	ldr	r1, [sp, #100]	@ 0x64
10007732:	2d30      	cmp	r5, #48	@ 0x30
10007734:	d10d      	bne.n	10007752 <_strtod_l+0x28e>
10007736:	1c4b      	adds	r3, r1, #1
10007738:	9319      	str	r3, [sp, #100]	@ 0x64
1000773a:	781d      	ldrb	r5, [r3, #0]
1000773c:	0019      	movs	r1, r3
1000773e:	3301      	adds	r3, #1
10007740:	2d30      	cmp	r5, #48	@ 0x30
10007742:	d0f9      	beq.n	10007738 <_strtod_l+0x274>
10007744:	2300      	movs	r3, #0
10007746:	930b      	str	r3, [sp, #44]	@ 0x2c
10007748:	002b      	movs	r3, r5
1000774a:	3b31      	subs	r3, #49	@ 0x31
1000774c:	2b08      	cmp	r3, #8
1000774e:	d8ae      	bhi.n	100076ae <_strtod_l+0x1ea>
10007750:	3301      	adds	r3, #1
10007752:	1c4d      	adds	r5, r1, #1
10007754:	9519      	str	r5, [sp, #100]	@ 0x64
10007756:	46ac      	mov	ip, r5
10007758:	784d      	ldrb	r5, [r1, #1]
1000775a:	930b      	str	r3, [sp, #44]	@ 0x2c
1000775c:	2d2f      	cmp	r5, #47	@ 0x2f
1000775e:	dc01      	bgt.n	10007764 <_strtod_l+0x2a0>
10007760:	f000 fc25 	bl	10007fae <_strtod_l+0xaea>
10007764:	960c      	str	r6, [sp, #48]	@ 0x30
10007766:	4666      	mov	r6, ip
10007768:	4693      	mov	fp, r2
1000776a:	9b0b      	ldr	r3, [sp, #44]	@ 0x2c
1000776c:	4662      	mov	r2, ip
1000776e:	468c      	mov	ip, r1
10007770:	0031      	movs	r1, r6
10007772:	e00a      	b.n	1000778a <_strtod_l+0x2c6>
10007774:	009e      	lsls	r6, r3, #2
10007776:	18f6      	adds	r6, r6, r3
10007778:	3201      	adds	r2, #1
1000777a:	0076      	lsls	r6, r6, #1
1000777c:	9219      	str	r2, [sp, #100]	@ 0x64
1000777e:	1973      	adds	r3, r6, r5
10007780:	784d      	ldrb	r5, [r1, #1]
10007782:	3b30      	subs	r3, #48	@ 0x30
10007784:	2d2f      	cmp	r5, #47	@ 0x2f
10007786:	dd02      	ble.n	1000778e <_strtod_l+0x2ca>
10007788:	0011      	movs	r1, r2
1000778a:	2d39      	cmp	r5, #57	@ 0x39
1000778c:	ddf2      	ble.n	10007774 <_strtod_l+0x2b0>
1000778e:	4661      	mov	r1, ip
10007790:	4694      	mov	ip, r2
10007792:	930b      	str	r3, [sp, #44]	@ 0x2c
10007794:	4663      	mov	r3, ip
10007796:	465a      	mov	r2, fp
10007798:	9e0c      	ldr	r6, [sp, #48]	@ 0x30
1000779a:	1a59      	subs	r1, r3, r1
1000779c:	2908      	cmp	r1, #8
1000779e:	dc01      	bgt.n	100077a4 <_strtod_l+0x2e0>
100077a0:	f000 fc05 	bl	10007fae <_strtod_l+0xaea>
100077a4:	4b08      	ldr	r3, [pc, #32]	@ (100077c8 <_strtod_l+0x304>)
100077a6:	930b      	str	r3, [sp, #44]	@ 0x2c
100077a8:	9b0a      	ldr	r3, [sp, #40]	@ 0x28
100077aa:	2b00      	cmp	r3, #0
100077ac:	d100      	bne.n	100077b0 <_strtod_l+0x2ec>
100077ae:	e77e      	b.n	100076ae <_strtod_l+0x1ea>
100077b0:	9b0b      	ldr	r3, [sp, #44]	@ 0x2c
100077b2:	425b      	negs	r3, r3
100077b4:	930b      	str	r3, [sp, #44]	@ 0x2c
100077b6:	e77a      	b.n	100076ae <_strtod_l+0x1ea>
100077b8:	1000b788 	.word	0x1000b788
100077bc:	1000b62c 	.word	0x1000b62c
100077c0:	1000b784 	.word	0x1000b784
100077c4:	1000a73c 	.word	0x1000a73c
100077c8:	00004e1f 	.word	0x00004e1f
100077cc:	9b0b      	ldr	r3, [sp, #44]	@ 0x2c
100077ce:	9a12      	ldr	r2, [sp, #72]	@ 0x48
100077d0:	1a9b      	subs	r3, r3, r2
100077d2:	930c      	str	r3, [sp, #48]	@ 0x30
100077d4:	9b0d      	ldr	r3, [sp, #52]	@ 0x34
100077d6:	2b00      	cmp	r3, #0
100077d8:	d100      	bne.n	100077dc <_strtod_l+0x318>
100077da:	960d      	str	r6, [sp, #52]	@ 0x34
100077dc:	0034      	movs	r4, r6
100077de:	2e10      	cmp	r6, #16
100077e0:	dd00      	ble.n	100077e4 <_strtod_l+0x320>
100077e2:	2410      	movs	r4, #16
100077e4:	4648      	mov	r0, r9
100077e6:	f7fb f807 	bl	100027f8 <__wrap___aeabi_ui2d>
100077ea:	9004      	str	r0, [sp, #16]
100077ec:	9105      	str	r1, [sp, #20]
100077ee:	2e09      	cmp	r6, #9
100077f0:	dd18      	ble.n	10007824 <_strtod_l+0x360>
100077f2:	0022      	movs	r2, r4
100077f4:	4b56      	ldr	r3, [pc, #344]	@ (10007950 <_strtod_l+0x48c>)
100077f6:	3a09      	subs	r2, #9
100077f8:	00d2      	lsls	r2, r2, #3
100077fa:	189b      	adds	r3, r3, r2
100077fc:	681a      	ldr	r2, [r3, #0]
100077fe:	685b      	ldr	r3, [r3, #4]
10007800:	f7fa ff87 	bl	10002712 <__wrap___aeabi_dmul>
10007804:	9004      	str	r0, [sp, #16]
10007806:	9105      	str	r1, [sp, #20]
10007808:	4650      	mov	r0, sl
1000780a:	f7fa fff5 	bl	100027f8 <__wrap___aeabi_ui2d>
1000780e:	0002      	movs	r2, r0
10007810:	000b      	movs	r3, r1
10007812:	9804      	ldr	r0, [sp, #16]
10007814:	9905      	ldr	r1, [sp, #20]
10007816:	f7fa ff55 	bl	100026c4 <__wrap___aeabi_dadd>
1000781a:	9004      	str	r0, [sp, #16]
1000781c:	9105      	str	r1, [sp, #20]
1000781e:	2e0f      	cmp	r6, #15
10007820:	dd00      	ble.n	10007824 <_strtod_l+0x360>
10007822:	e1c6      	b.n	10007bb2 <_strtod_l+0x6ee>
10007824:	9b0c      	ldr	r3, [sp, #48]	@ 0x30
10007826:	2b00      	cmp	r3, #0
10007828:	d100      	bne.n	1000782c <_strtod_l+0x368>
1000782a:	e327      	b.n	10007e7c <_strtod_l+0x9b8>
1000782c:	9b0c      	ldr	r3, [sp, #48]	@ 0x30
1000782e:	2b00      	cmp	r3, #0
10007830:	dc00      	bgt.n	10007834 <_strtod_l+0x370>
10007832:	e240      	b.n	10007cb6 <_strtod_l+0x7f2>
10007834:	2b16      	cmp	r3, #22
10007836:	dc00      	bgt.n	1000783a <_strtod_l+0x376>
10007838:	e3c1      	b.n	10007fbe <_strtod_l+0xafa>
1000783a:	2325      	movs	r3, #37	@ 0x25
1000783c:	9a0c      	ldr	r2, [sp, #48]	@ 0x30
1000783e:	1b9b      	subs	r3, r3, r6
10007840:	4293      	cmp	r3, r2
10007842:	db01      	blt.n	10007848 <_strtod_l+0x384>
10007844:	f000 fc1c 	bl	10008080 <_strtod_l+0xbbc>
10007848:	4694      	mov	ip, r2
1000784a:	1b34      	subs	r4, r6, r4
1000784c:	4464      	add	r4, ip
1000784e:	230f      	movs	r3, #15
10007850:	001a      	movs	r2, r3
10007852:	4022      	ands	r2, r4
10007854:	4223      	tst	r3, r4
10007856:	d00a      	beq.n	1000786e <_strtod_l+0x3aa>
10007858:	4b3d      	ldr	r3, [pc, #244]	@ (10007950 <_strtod_l+0x48c>)
1000785a:	00d2      	lsls	r2, r2, #3
1000785c:	1899      	adds	r1, r3, r2
1000785e:	6808      	ldr	r0, [r1, #0]
10007860:	6849      	ldr	r1, [r1, #4]
10007862:	9a04      	ldr	r2, [sp, #16]
10007864:	9b05      	ldr	r3, [sp, #20]
10007866:	f7fa ff54 	bl	10002712 <__wrap___aeabi_dmul>
1000786a:	9004      	str	r0, [sp, #16]
1000786c:	9105      	str	r1, [sp, #20]
1000786e:	230f      	movs	r3, #15
10007870:	439c      	bics	r4, r3
10007872:	1e23      	subs	r3, r4, #0
10007874:	d04f      	beq.n	10007916 <_strtod_l+0x452>
10007876:	229a      	movs	r2, #154	@ 0x9a
10007878:	0052      	lsls	r2, r2, #1
1000787a:	4294      	cmp	r4, r2
1000787c:	dd00      	ble.n	10007880 <_strtod_l+0x3bc>
1000787e:	e382      	b.n	10007f86 <_strtod_l+0xac2>
10007880:	1124      	asrs	r4, r4, #4
10007882:	2b1f      	cmp	r3, #31
10007884:	dc01      	bgt.n	1000788a <_strtod_l+0x3c6>
10007886:	f000 fcd5 	bl	10008234 <_strtod_l+0xd70>
1000788a:	9804      	ldr	r0, [sp, #16]
1000788c:	9905      	ldr	r1, [sp, #20]
1000788e:	2200      	movs	r2, #0
10007890:	4692      	mov	sl, r2
10007892:	3201      	adds	r2, #1
10007894:	4693      	mov	fp, r2
10007896:	4652      	mov	r2, sl
10007898:	4b2e      	ldr	r3, [pc, #184]	@ (10007954 <_strtod_l+0x490>)
1000789a:	46b2      	mov	sl, r6
1000789c:	001d      	movs	r5, r3
1000789e:	9309      	str	r3, [sp, #36]	@ 0x24
100078a0:	0016      	movs	r6, r2
100078a2:	2300      	movs	r3, #0
100078a4:	465a      	mov	r2, fp
100078a6:	4222      	tst	r2, r4
100078a8:	d004      	beq.n	100078b4 <_strtod_l+0x3f0>
100078aa:	682a      	ldr	r2, [r5, #0]
100078ac:	686b      	ldr	r3, [r5, #4]
100078ae:	f7fa ff30 	bl	10002712 <__wrap___aeabi_dmul>
100078b2:	2301      	movs	r3, #1
100078b4:	3601      	adds	r6, #1
100078b6:	1064      	asrs	r4, r4, #1
100078b8:	3508      	adds	r5, #8
100078ba:	2c01      	cmp	r4, #1
100078bc:	d1f2      	bne.n	100078a4 <_strtod_l+0x3e0>
100078be:	0032      	movs	r2, r6
100078c0:	4656      	mov	r6, sl
100078c2:	4692      	mov	sl, r2
100078c4:	2b00      	cmp	r3, #0
100078c6:	d001      	beq.n	100078cc <_strtod_l+0x408>
100078c8:	9004      	str	r0, [sp, #16]
100078ca:	9105      	str	r1, [sp, #20]
100078cc:	4a22      	ldr	r2, [pc, #136]	@ (10007958 <_strtod_l+0x494>)
100078ce:	9b05      	ldr	r3, [sp, #20]
100078d0:	4694      	mov	ip, r2
100078d2:	4463      	add	r3, ip
100078d4:	9305      	str	r3, [sp, #20]
100078d6:	4653      	mov	r3, sl
100078d8:	00d9      	lsls	r1, r3, #3
100078da:	9b09      	ldr	r3, [sp, #36]	@ 0x24
100078dc:	469c      	mov	ip, r3
100078de:	9a04      	ldr	r2, [sp, #16]
100078e0:	9b05      	ldr	r3, [sp, #20]
100078e2:	4461      	add	r1, ip
100078e4:	6808      	ldr	r0, [r1, #0]
100078e6:	6849      	ldr	r1, [r1, #4]
100078e8:	f7fa ff13 	bl	10002712 <__wrap___aeabi_dmul>
100078ec:	4b1b      	ldr	r3, [pc, #108]	@ (1000795c <_strtod_l+0x498>)
100078ee:	4a1c      	ldr	r2, [pc, #112]	@ (10007960 <_strtod_l+0x49c>)
100078f0:	9004      	str	r0, [sp, #16]
100078f2:	9105      	str	r1, [sp, #20]
100078f4:	400b      	ands	r3, r1
100078f6:	4293      	cmp	r3, r2
100078f8:	d900      	bls.n	100078fc <_strtod_l+0x438>
100078fa:	e344      	b.n	10007f86 <_strtod_l+0xac2>
100078fc:	20d4      	movs	r0, #212	@ 0xd4
100078fe:	0480      	lsls	r0, r0, #18
10007900:	4684      	mov	ip, r0
10007902:	4a18      	ldr	r2, [pc, #96]	@ (10007964 <_strtod_l+0x4a0>)
10007904:	4461      	add	r1, ip
10007906:	9105      	str	r1, [sp, #20]
10007908:	4293      	cmp	r3, r2
1000790a:	d904      	bls.n	10007916 <_strtod_l+0x452>
1000790c:	2301      	movs	r3, #1
1000790e:	4c16      	ldr	r4, [pc, #88]	@ (10007968 <_strtod_l+0x4a4>)
10007910:	425b      	negs	r3, r3
10007912:	9304      	str	r3, [sp, #16]
10007914:	9405      	str	r4, [sp, #20]
10007916:	2300      	movs	r3, #0
10007918:	930a      	str	r3, [sp, #40]	@ 0x28
1000791a:	464b      	mov	r3, r9
1000791c:	0039      	movs	r1, r7
1000791e:	9300      	str	r3, [sp, #0]
10007920:	4640      	mov	r0, r8
10007922:	0033      	movs	r3, r6
10007924:	9a0d      	ldr	r2, [sp, #52]	@ 0x34
10007926:	f002 f8e1 	bl	10009aec <__s2b>
1000792a:	9013      	str	r0, [sp, #76]	@ 0x4c
1000792c:	2800      	cmp	r0, #0
1000792e:	d100      	bne.n	10007932 <_strtod_l+0x46e>
10007930:	e329      	b.n	10007f86 <_strtod_l+0xac2>
10007932:	990c      	ldr	r1, [sp, #48]	@ 0x30
10007934:	980b      	ldr	r0, [sp, #44]	@ 0x2c
10007936:	9b12      	ldr	r3, [sp, #72]	@ 0x48
10007938:	17ca      	asrs	r2, r1, #31
1000793a:	1a1b      	subs	r3, r3, r0
1000793c:	401a      	ands	r2, r3
1000793e:	43cb      	mvns	r3, r1
10007940:	17db      	asrs	r3, r3, #31
10007942:	4019      	ands	r1, r3
10007944:	2300      	movs	r3, #0
10007946:	920b      	str	r2, [sp, #44]	@ 0x2c
10007948:	4699      	mov	r9, r3
1000794a:	469b      	mov	fp, r3
1000794c:	9114      	str	r1, [sp, #80]	@ 0x50
1000794e:	e0f0      	b.n	10007b32 <_strtod_l+0x66e>
10007950:	10012590 	.word	0x10012590
10007954:	10012568 	.word	0x10012568
10007958:	fcb00000 	.word	0xfcb00000
1000795c:	7ff00000 	.word	0x7ff00000
10007960:	7ca00000 	.word	0x7ca00000
10007964:	7c900000 	.word	0x7c900000
10007968:	7fefffff 	.word	0x7fefffff
1000796c:	1ac9      	subs	r1, r1, r3
1000796e:	1a52      	subs	r2, r2, r1
10007970:	291f      	cmp	r1, #31
10007972:	dd00      	ble.n	10007976 <_strtod_l+0x4b2>
10007974:	e245      	b.n	10007e02 <_strtod_l+0x93e>
10007976:	2301      	movs	r3, #1
10007978:	408b      	lsls	r3, r1
1000797a:	9310      	str	r3, [sp, #64]	@ 0x40
1000797c:	2300      	movs	r3, #0
1000797e:	9315      	str	r3, [sp, #84]	@ 0x54
10007980:	18ab      	adds	r3, r5, r2
10007982:	469a      	mov	sl, r3
10007984:	9b0a      	ldr	r3, [sp, #40]	@ 0x28
10007986:	18a4      	adds	r4, r4, r2
10007988:	469c      	mov	ip, r3
1000798a:	002b      	movs	r3, r5
1000798c:	4464      	add	r4, ip
1000798e:	4555      	cmp	r5, sl
10007990:	dd00      	ble.n	10007994 <_strtod_l+0x4d0>
10007992:	4653      	mov	r3, sl
10007994:	42a3      	cmp	r3, r4
10007996:	dd00      	ble.n	1000799a <_strtod_l+0x4d6>
10007998:	0023      	movs	r3, r4
1000799a:	2b00      	cmp	r3, #0
1000799c:	dd04      	ble.n	100079a8 <_strtod_l+0x4e4>
1000799e:	4652      	mov	r2, sl
100079a0:	1ad2      	subs	r2, r2, r3
100079a2:	4692      	mov	sl, r2
100079a4:	1ae4      	subs	r4, r4, r3
100079a6:	1aed      	subs	r5, r5, r3
100079a8:	9b0b      	ldr	r3, [sp, #44]	@ 0x2c
100079aa:	2b00      	cmp	r3, #0
100079ac:	dd00      	ble.n	100079b0 <_strtod_l+0x4ec>
100079ae:	e1bc      	b.n	10007d2a <_strtod_l+0x866>
100079b0:	4653      	mov	r3, sl
100079b2:	2b00      	cmp	r3, #0
100079b4:	dd00      	ble.n	100079b8 <_strtod_l+0x4f4>
100079b6:	e1e9      	b.n	10007d8c <_strtod_l+0x8c8>
100079b8:	9b0c      	ldr	r3, [sp, #48]	@ 0x30
100079ba:	2b00      	cmp	r3, #0
100079bc:	dd00      	ble.n	100079c0 <_strtod_l+0x4fc>
100079be:	e215      	b.n	10007dec <_strtod_l+0x928>
100079c0:	2c00      	cmp	r4, #0
100079c2:	dd00      	ble.n	100079c6 <_strtod_l+0x502>
100079c4:	e206      	b.n	10007dd4 <_strtod_l+0x910>
100079c6:	2d00      	cmp	r5, #0
100079c8:	dd08      	ble.n	100079dc <_strtod_l+0x518>
100079ca:	4649      	mov	r1, r9
100079cc:	002a      	movs	r2, r5
100079ce:	4640      	mov	r0, r8
100079d0:	f002 faa8 	bl	10009f24 <__lshift>
100079d4:	4681      	mov	r9, r0
100079d6:	2800      	cmp	r0, #0
100079d8:	d100      	bne.n	100079dc <_strtod_l+0x518>
100079da:	e204      	b.n	10007de6 <_strtod_l+0x922>
100079dc:	4640      	mov	r0, r8
100079de:	991a      	ldr	r1, [sp, #104]	@ 0x68
100079e0:	9a09      	ldr	r2, [sp, #36]	@ 0x24
100079e2:	f002 fb3b 	bl	1000a05c <__mdiff>
100079e6:	4683      	mov	fp, r0
100079e8:	2800      	cmp	r0, #0
100079ea:	d100      	bne.n	100079ee <_strtod_l+0x52a>
100079ec:	e1fb      	b.n	10007de6 <_strtod_l+0x922>
100079ee:	68c3      	ldr	r3, [r0, #12]
100079f0:	4649      	mov	r1, r9
100079f2:	9312      	str	r3, [sp, #72]	@ 0x48
100079f4:	2300      	movs	r3, #0
100079f6:	60c3      	str	r3, [r0, #12]
100079f8:	f002 fb12 	bl	1000a020 <__mcmp>
100079fc:	2800      	cmp	r0, #0
100079fe:	da01      	bge.n	10007a04 <_strtod_l+0x540>
10007a00:	f000 fbe8 	bl	100081d4 <_strtod_l+0xd10>
10007a04:	9b05      	ldr	r3, [sp, #20]
10007a06:	930d      	str	r3, [sp, #52]	@ 0x34
10007a08:	d100      	bne.n	10007a0c <_strtod_l+0x548>
10007a0a:	e387      	b.n	1000811c <_strtod_l+0xc58>
10007a0c:	4649      	mov	r1, r9
10007a0e:	4658      	mov	r0, fp
10007a10:	f002 fcd8 	bl	1000a3c4 <__ratio>
10007a14:	2380      	movs	r3, #128	@ 0x80
10007a16:	2200      	movs	r2, #0
10007a18:	05db      	lsls	r3, r3, #23
10007a1a:	0004      	movs	r4, r0
10007a1c:	000d      	movs	r5, r1
10007a1e:	f7fa fec9 	bl	100027b4 <__wrap___aeabi_dcmple>
10007a22:	2800      	cmp	r0, #0
10007a24:	d100      	bne.n	10007a28 <_strtod_l+0x564>
10007a26:	e172      	b.n	10007d0e <_strtod_l+0x84a>
10007a28:	9b12      	ldr	r3, [sp, #72]	@ 0x48
10007a2a:	2b00      	cmp	r3, #0
10007a2c:	d000      	beq.n	10007a30 <_strtod_l+0x56c>
10007a2e:	e1f5      	b.n	10007e1c <_strtod_l+0x958>
10007a30:	9b04      	ldr	r3, [sp, #16]
10007a32:	2b00      	cmp	r3, #0
10007a34:	d000      	beq.n	10007a38 <_strtod_l+0x574>
10007a36:	e27c      	b.n	10007f32 <_strtod_l+0xa6e>
10007a38:	9b0d      	ldr	r3, [sp, #52]	@ 0x34
10007a3a:	031b      	lsls	r3, r3, #12
10007a3c:	d000      	beq.n	10007a40 <_strtod_l+0x57c>
10007a3e:	e220      	b.n	10007e82 <_strtod_l+0x9be>
10007a40:	2200      	movs	r2, #0
10007a42:	0020      	movs	r0, r4
10007a44:	0029      	movs	r1, r5
10007a46:	4bc6      	ldr	r3, [pc, #792]	@ (10007d60 <_strtod_l+0x89c>)
10007a48:	f7fa feae 	bl	100027a8 <__wrap___aeabi_dcmplt>
10007a4c:	2800      	cmp	r0, #0
10007a4e:	d000      	beq.n	10007a52 <_strtod_l+0x58e>
10007a50:	e331      	b.n	100080b6 <_strtod_l+0xbf2>
10007a52:	2200      	movs	r2, #0
10007a54:	4bc3      	ldr	r3, [pc, #780]	@ (10007d64 <_strtod_l+0x8a0>)
10007a56:	0020      	movs	r0, r4
10007a58:	0029      	movs	r1, r5
10007a5a:	f7fa fe5a 	bl	10002712 <__wrap___aeabi_dmul>
10007a5e:	000a      	movs	r2, r1
10007a60:	0001      	movs	r1, r0
10007a62:	0013      	movs	r3, r2
10007a64:	9110      	str	r1, [sp, #64]	@ 0x40
10007a66:	9211      	str	r2, [sp, #68]	@ 0x44
10007a68:	900e      	str	r0, [sp, #56]	@ 0x38
10007a6a:	2280      	movs	r2, #128	@ 0x80
10007a6c:	0612      	lsls	r2, r2, #24
10007a6e:	4694      	mov	ip, r2
10007a70:	4463      	add	r3, ip
10007a72:	930f      	str	r3, [sp, #60]	@ 0x3c
10007a74:	9b0d      	ldr	r3, [sp, #52]	@ 0x34
10007a76:	4abc      	ldr	r2, [pc, #752]	@ (10007d68 <_strtod_l+0x8a4>)
10007a78:	9c0e      	ldr	r4, [sp, #56]	@ 0x38
10007a7a:	9d0f      	ldr	r5, [sp, #60]	@ 0x3c
10007a7c:	4013      	ands	r3, r2
10007a7e:	469a      	mov	sl, r3
10007a80:	4bba      	ldr	r3, [pc, #744]	@ (10007d6c <_strtod_l+0x8a8>)
10007a82:	459a      	cmp	sl, r3
10007a84:	d100      	bne.n	10007a88 <_strtod_l+0x5c4>
10007a86:	e1d0      	b.n	10007e2a <_strtod_l+0x966>
10007a88:	9b0a      	ldr	r3, [sp, #40]	@ 0x28
10007a8a:	2b00      	cmp	r3, #0
10007a8c:	d028      	beq.n	10007ae0 <_strtod_l+0x61c>
10007a8e:	23d4      	movs	r3, #212	@ 0xd4
10007a90:	04db      	lsls	r3, r3, #19
10007a92:	459a      	cmp	sl, r3
10007a94:	d824      	bhi.n	10007ae0 <_strtod_l+0x61c>
10007a96:	9810      	ldr	r0, [sp, #64]	@ 0x40
10007a98:	9911      	ldr	r1, [sp, #68]	@ 0x44
10007a9a:	4ab5      	ldr	r2, [pc, #724]	@ (10007d70 <_strtod_l+0x8ac>)
10007a9c:	4bb5      	ldr	r3, [pc, #724]	@ (10007d74 <_strtod_l+0x8b0>)
10007a9e:	f7fa fe89 	bl	100027b4 <__wrap___aeabi_dcmple>
10007aa2:	2800      	cmp	r0, #0
10007aa4:	d017      	beq.n	10007ad6 <_strtod_l+0x612>
10007aa6:	9810      	ldr	r0, [sp, #64]	@ 0x40
10007aa8:	9911      	ldr	r1, [sp, #68]	@ 0x44
10007aaa:	f7fa fee5 	bl	10002878 <__wrap___aeabi_d2uiz>
10007aae:	2800      	cmp	r0, #0
10007ab0:	d100      	bne.n	10007ab4 <_strtod_l+0x5f0>
10007ab2:	3001      	adds	r0, #1
10007ab4:	f7fa fea0 	bl	100027f8 <__wrap___aeabi_ui2d>
10007ab8:	9b12      	ldr	r3, [sp, #72]	@ 0x48
10007aba:	9010      	str	r0, [sp, #64]	@ 0x40
10007abc:	9111      	str	r1, [sp, #68]	@ 0x44
10007abe:	2b00      	cmp	r3, #0
10007ac0:	d000      	beq.n	10007ac4 <_strtod_l+0x600>
10007ac2:	e2d8      	b.n	10008076 <_strtod_l+0xbb2>
10007ac4:	2280      	movs	r2, #128	@ 0x80
10007ac6:	0612      	lsls	r2, r2, #24
10007ac8:	000b      	movs	r3, r1
10007aca:	4694      	mov	ip, r2
10007acc:	4463      	add	r3, ip
10007ace:	9016      	str	r0, [sp, #88]	@ 0x58
10007ad0:	9317      	str	r3, [sp, #92]	@ 0x5c
10007ad2:	9c16      	ldr	r4, [sp, #88]	@ 0x58
10007ad4:	9d17      	ldr	r5, [sp, #92]	@ 0x5c
10007ad6:	23d6      	movs	r3, #214	@ 0xd6
10007ad8:	4652      	mov	r2, sl
10007ada:	04db      	lsls	r3, r3, #19
10007adc:	18eb      	adds	r3, r5, r3
10007ade:	1a9d      	subs	r5, r3, r2
10007ae0:	0030      	movs	r0, r6
10007ae2:	0039      	movs	r1, r7
10007ae4:	f002 fb8c 	bl	1000a200 <__ulp>
10007ae8:	0002      	movs	r2, r0
10007aea:	000b      	movs	r3, r1
10007aec:	0020      	movs	r0, r4
10007aee:	0029      	movs	r1, r5
10007af0:	f7fa fe0f 	bl	10002712 <__wrap___aeabi_dmul>
10007af4:	0032      	movs	r2, r6
10007af6:	003b      	movs	r3, r7
10007af8:	f7fa fde4 	bl	100026c4 <__wrap___aeabi_dadd>
10007afc:	000e      	movs	r6, r1
10007afe:	9004      	str	r0, [sp, #16]
10007b00:	9105      	str	r1, [sp, #20]
10007b02:	9b0a      	ldr	r3, [sp, #40]	@ 0x28
10007b04:	2b00      	cmp	r3, #0
10007b06:	d104      	bne.n	10007b12 <_strtod_l+0x64e>
10007b08:	4b97      	ldr	r3, [pc, #604]	@ (10007d68 <_strtod_l+0x8a4>)
10007b0a:	4033      	ands	r3, r6
10007b0c:	459a      	cmp	sl, r3
10007b0e:	d100      	bne.n	10007b12 <_strtod_l+0x64e>
10007b10:	e1dd      	b.n	10007ece <_strtod_l+0xa0a>
10007b12:	4640      	mov	r0, r8
10007b14:	991a      	ldr	r1, [sp, #104]	@ 0x68
10007b16:	f001 ff8b 	bl	10009a30 <_Bfree>
10007b1a:	4640      	mov	r0, r8
10007b1c:	9909      	ldr	r1, [sp, #36]	@ 0x24
10007b1e:	f001 ff87 	bl	10009a30 <_Bfree>
10007b22:	4649      	mov	r1, r9
10007b24:	4640      	mov	r0, r8
10007b26:	f001 ff83 	bl	10009a30 <_Bfree>
10007b2a:	4659      	mov	r1, fp
10007b2c:	4640      	mov	r0, r8
10007b2e:	f001 ff7f 	bl	10009a30 <_Bfree>
10007b32:	9c13      	ldr	r4, [sp, #76]	@ 0x4c
10007b34:	4640      	mov	r0, r8
10007b36:	6861      	ldr	r1, [r4, #4]
10007b38:	f001 ff52 	bl	100099e0 <_Balloc>
10007b3c:	1e03      	subs	r3, r0, #0
10007b3e:	9009      	str	r0, [sp, #36]	@ 0x24
10007b40:	d100      	bne.n	10007b44 <_strtod_l+0x680>
10007b42:	e150      	b.n	10007de6 <_strtod_l+0x922>
10007b44:	6922      	ldr	r2, [r4, #16]
10007b46:	330c      	adds	r3, #12
10007b48:	3202      	adds	r2, #2
10007b4a:	340c      	adds	r4, #12
10007b4c:	0021      	movs	r1, r4
10007b4e:	0018      	movs	r0, r3
10007b50:	0092      	lsls	r2, r2, #2
10007b52:	f7fb fb61 	bl	10003218 <__wrap___aeabi_memcpy>
10007b56:	9e04      	ldr	r6, [sp, #16]
10007b58:	9f05      	ldr	r7, [sp, #20]
10007b5a:	ab1c      	add	r3, sp, #112	@ 0x70
10007b5c:	9301      	str	r3, [sp, #4]
10007b5e:	ab1b      	add	r3, sp, #108	@ 0x6c
10007b60:	9300      	str	r3, [sp, #0]
10007b62:	0032      	movs	r2, r6
10007b64:	003b      	movs	r3, r7
10007b66:	4640      	mov	r0, r8
10007b68:	f002 fbc6 	bl	1000a2f8 <__d2b>
10007b6c:	901a      	str	r0, [sp, #104]	@ 0x68
10007b6e:	2800      	cmp	r0, #0
10007b70:	d100      	bne.n	10007b74 <_strtod_l+0x6b0>
10007b72:	e114      	b.n	10007d9e <_strtod_l+0x8da>
10007b74:	2101      	movs	r1, #1
10007b76:	4640      	mov	r0, r8
10007b78:	f002 f864 	bl	10009c44 <__i2b>
10007b7c:	4681      	mov	r9, r0
10007b7e:	2800      	cmp	r0, #0
10007b80:	d100      	bne.n	10007b84 <_strtod_l+0x6c0>
10007b82:	e130      	b.n	10007de6 <_strtod_l+0x922>
10007b84:	9b1b      	ldr	r3, [sp, #108]	@ 0x6c
10007b86:	2b00      	cmp	r3, #0
10007b88:	da00      	bge.n	10007b8c <_strtod_l+0x6c8>
10007b8a:	e0e5      	b.n	10007d58 <_strtod_l+0x894>
10007b8c:	9a0b      	ldr	r2, [sp, #44]	@ 0x2c
10007b8e:	9c14      	ldr	r4, [sp, #80]	@ 0x50
10007b90:	189d      	adds	r5, r3, r2
10007b92:	990a      	ldr	r1, [sp, #40]	@ 0x28
10007b94:	9a1c      	ldr	r2, [sp, #112]	@ 0x70
10007b96:	1a5b      	subs	r3, r3, r1
10007b98:	2136      	movs	r1, #54	@ 0x36
10007b9a:	189b      	adds	r3, r3, r2
10007b9c:	1a8a      	subs	r2, r1, r2
10007b9e:	4976      	ldr	r1, [pc, #472]	@ (10007d78 <_strtod_l+0x8b4>)
10007ba0:	3b01      	subs	r3, #1
10007ba2:	428b      	cmp	r3, r1
10007ba4:	da00      	bge.n	10007ba8 <_strtod_l+0x6e4>
10007ba6:	e6e1      	b.n	1000796c <_strtod_l+0x4a8>
10007ba8:	2300      	movs	r3, #0
10007baa:	9315      	str	r3, [sp, #84]	@ 0x54
10007bac:	3301      	adds	r3, #1
10007bae:	9310      	str	r3, [sp, #64]	@ 0x40
10007bb0:	e6e6      	b.n	10007980 <_strtod_l+0x4bc>
10007bb2:	9b0c      	ldr	r3, [sp, #48]	@ 0x30
10007bb4:	1b34      	subs	r4, r6, r4
10007bb6:	469c      	mov	ip, r3
10007bb8:	4464      	add	r4, ip
10007bba:	2c00      	cmp	r4, #0
10007bbc:	dd00      	ble.n	10007bc0 <_strtod_l+0x6fc>
10007bbe:	e646      	b.n	1000784e <_strtod_l+0x38a>
10007bc0:	d100      	bne.n	10007bc4 <_strtod_l+0x700>
10007bc2:	e6a8      	b.n	10007916 <_strtod_l+0x452>
10007bc4:	230f      	movs	r3, #15
10007bc6:	001a      	movs	r2, r3
10007bc8:	4264      	negs	r4, r4
10007bca:	4022      	ands	r2, r4
10007bcc:	4223      	tst	r3, r4
10007bce:	d00a      	beq.n	10007be6 <_strtod_l+0x722>
10007bd0:	9804      	ldr	r0, [sp, #16]
10007bd2:	9905      	ldr	r1, [sp, #20]
10007bd4:	4b69      	ldr	r3, [pc, #420]	@ (10007d7c <_strtod_l+0x8b8>)
10007bd6:	00d2      	lsls	r2, r2, #3
10007bd8:	189b      	adds	r3, r3, r2
10007bda:	681a      	ldr	r2, [r3, #0]
10007bdc:	685b      	ldr	r3, [r3, #4]
10007bde:	f7fa fd7a 	bl	100026d6 <__wrap___aeabi_ddiv>
10007be2:	9004      	str	r0, [sp, #16]
10007be4:	9105      	str	r1, [sp, #20]
10007be6:	1124      	asrs	r4, r4, #4
10007be8:	d100      	bne.n	10007bec <_strtod_l+0x728>
10007bea:	e694      	b.n	10007916 <_strtod_l+0x452>
10007bec:	2c1f      	cmp	r4, #31
10007bee:	dc3f      	bgt.n	10007c70 <_strtod_l+0x7ac>
10007bf0:	2310      	movs	r3, #16
10007bf2:	001a      	movs	r2, r3
10007bf4:	4022      	ands	r2, r4
10007bf6:	920a      	str	r2, [sp, #40]	@ 0x28
10007bf8:	4223      	tst	r3, r4
10007bfa:	d001      	beq.n	10007c00 <_strtod_l+0x73c>
10007bfc:	335a      	adds	r3, #90	@ 0x5a
10007bfe:	930a      	str	r3, [sp, #40]	@ 0x28
10007c00:	2201      	movs	r2, #1
10007c02:	9804      	ldr	r0, [sp, #16]
10007c04:	9905      	ldr	r1, [sp, #20]
10007c06:	2300      	movs	r3, #0
10007c08:	4692      	mov	sl, r2
10007c0a:	4d5d      	ldr	r5, [pc, #372]	@ (10007d80 <_strtod_l+0x8bc>)
10007c0c:	4652      	mov	r2, sl
10007c0e:	4222      	tst	r2, r4
10007c10:	d004      	beq.n	10007c1c <_strtod_l+0x758>
10007c12:	682a      	ldr	r2, [r5, #0]
10007c14:	686b      	ldr	r3, [r5, #4]
10007c16:	f7fa fd7c 	bl	10002712 <__wrap___aeabi_dmul>
10007c1a:	2301      	movs	r3, #1
10007c1c:	1064      	asrs	r4, r4, #1
10007c1e:	3508      	adds	r5, #8
10007c20:	2c00      	cmp	r4, #0
10007c22:	d1f3      	bne.n	10007c0c <_strtod_l+0x748>
10007c24:	2b00      	cmp	r3, #0
10007c26:	d001      	beq.n	10007c2c <_strtod_l+0x768>
10007c28:	9004      	str	r0, [sp, #16]
10007c2a:	9105      	str	r1, [sp, #20]
10007c2c:	9b0a      	ldr	r3, [sp, #40]	@ 0x28
10007c2e:	2b00      	cmp	r3, #0
10007c30:	d015      	beq.n	10007c5e <_strtod_l+0x79a>
10007c32:	9b04      	ldr	r3, [sp, #16]
10007c34:	9c05      	ldr	r4, [sp, #20]
10007c36:	236b      	movs	r3, #107	@ 0x6b
10007c38:	0062      	lsls	r2, r4, #1
10007c3a:	0d52      	lsrs	r2, r2, #21
10007c3c:	0021      	movs	r1, r4
10007c3e:	1a9b      	subs	r3, r3, r2
10007c40:	2b00      	cmp	r3, #0
10007c42:	dd0a      	ble.n	10007c5a <_strtod_l+0x796>
10007c44:	2b1f      	cmp	r3, #31
10007c46:	dc00      	bgt.n	10007c4a <_strtod_l+0x786>
10007c48:	e324      	b.n	10008294 <_strtod_l+0xdd0>
10007c4a:	2000      	movs	r0, #0
10007c4c:	9004      	str	r0, [sp, #16]
10007c4e:	2b34      	cmp	r3, #52	@ 0x34
10007c50:	dc00      	bgt.n	10007c54 <_strtod_l+0x790>
10007c52:	e33d      	b.n	100082d0 <_strtod_l+0xe0c>
10007c54:	23dc      	movs	r3, #220	@ 0xdc
10007c56:	049b      	lsls	r3, r3, #18
10007c58:	9305      	str	r3, [sp, #20]
10007c5a:	236a      	movs	r3, #106	@ 0x6a
10007c5c:	930a      	str	r3, [sp, #40]	@ 0x28
10007c5e:	2200      	movs	r2, #0
10007c60:	9804      	ldr	r0, [sp, #16]
10007c62:	9905      	ldr	r1, [sp, #20]
10007c64:	2300      	movs	r3, #0
10007c66:	f7fa fd97 	bl	10002798 <__wrap___aeabi_dcmpeq>
10007c6a:	2800      	cmp	r0, #0
10007c6c:	d100      	bne.n	10007c70 <_strtod_l+0x7ac>
10007c6e:	e654      	b.n	1000791a <_strtod_l+0x456>
10007c70:	2322      	movs	r3, #34	@ 0x22
10007c72:	4642      	mov	r2, r8
10007c74:	6013      	str	r3, [r2, #0]
10007c76:	2600      	movs	r6, #0
10007c78:	2700      	movs	r7, #0
10007c7a:	9a07      	ldr	r2, [sp, #28]
10007c7c:	2a00      	cmp	r2, #0
10007c7e:	d001      	beq.n	10007c84 <_strtod_l+0x7c0>
10007c80:	9b19      	ldr	r3, [sp, #100]	@ 0x64
10007c82:	6013      	str	r3, [r2, #0]
10007c84:	9b08      	ldr	r3, [sp, #32]
10007c86:	2b00      	cmp	r3, #0
10007c88:	d100      	bne.n	10007c8c <_strtod_l+0x7c8>
10007c8a:	e485      	b.n	10007598 <_strtod_l+0xd4>
10007c8c:	2180      	movs	r1, #128	@ 0x80
10007c8e:	0609      	lsls	r1, r1, #24
10007c90:	187b      	adds	r3, r7, r1
10007c92:	001f      	movs	r7, r3
10007c94:	e480      	b.n	10007598 <_strtod_l+0xd4>
10007c96:	2300      	movs	r3, #0
10007c98:	2600      	movs	r6, #0
10007c9a:	930d      	str	r3, [sp, #52]	@ 0x34
10007c9c:	9312      	str	r3, [sp, #72]	@ 0x48
10007c9e:	2201      	movs	r2, #1
10007ca0:	e4fd      	b.n	1000769e <_strtod_l+0x1da>
10007ca2:	2300      	movs	r3, #0
10007ca4:	9419      	str	r4, [sp, #100]	@ 0x64
10007ca6:	930b      	str	r3, [sp, #44]	@ 0x2c
10007ca8:	e501      	b.n	100076ae <_strtod_l+0x1ea>
10007caa:	2301      	movs	r3, #1
10007cac:	930a      	str	r3, [sp, #40]	@ 0x28
10007cae:	1ca3      	adds	r3, r4, #2
10007cb0:	9319      	str	r3, [sp, #100]	@ 0x64
10007cb2:	78a5      	ldrb	r5, [r4, #2]
10007cb4:	e537      	b.n	10007726 <_strtod_l+0x262>
10007cb6:	9b0c      	ldr	r3, [sp, #48]	@ 0x30
10007cb8:	3316      	adds	r3, #22
10007cba:	da00      	bge.n	10007cbe <_strtod_l+0x7fa>
10007cbc:	e779      	b.n	10007bb2 <_strtod_l+0x6ee>
10007cbe:	990b      	ldr	r1, [sp, #44]	@ 0x2c
10007cc0:	9a12      	ldr	r2, [sp, #72]	@ 0x48
10007cc2:	4b2e      	ldr	r3, [pc, #184]	@ (10007d7c <_strtod_l+0x8b8>)
10007cc4:	1a52      	subs	r2, r2, r1
10007cc6:	00d2      	lsls	r2, r2, #3
10007cc8:	189b      	adds	r3, r3, r2
10007cca:	681a      	ldr	r2, [r3, #0]
10007ccc:	685b      	ldr	r3, [r3, #4]
10007cce:	9804      	ldr	r0, [sp, #16]
10007cd0:	9905      	ldr	r1, [sp, #20]
10007cd2:	f7fa fd00 	bl	100026d6 <__wrap___aeabi_ddiv>
10007cd6:	0006      	movs	r6, r0
10007cd8:	000f      	movs	r7, r1
10007cda:	e7ce      	b.n	10007c7a <_strtod_l+0x7b6>
10007cdc:	2201      	movs	r2, #1
10007cde:	9208      	str	r2, [sp, #32]
10007ce0:	e44f      	b.n	10007582 <_strtod_l+0xbe>
10007ce2:	4928      	ldr	r1, [pc, #160]	@ (10007d84 <_strtod_l+0x8c0>)
10007ce4:	a819      	add	r0, sp, #100	@ 0x64
10007ce6:	f001 f90f 	bl	10008f08 <__match>
10007cea:	2800      	cmp	r0, #0
10007cec:	d100      	bne.n	10007cf0 <_strtod_l+0x82c>
10007cee:	e44d      	b.n	1000758c <_strtod_l+0xc8>
10007cf0:	9b19      	ldr	r3, [sp, #100]	@ 0x64
10007cf2:	4925      	ldr	r1, [pc, #148]	@ (10007d88 <_strtod_l+0x8c4>)
10007cf4:	3b01      	subs	r3, #1
10007cf6:	a819      	add	r0, sp, #100	@ 0x64
10007cf8:	9319      	str	r3, [sp, #100]	@ 0x64
10007cfa:	f001 f905 	bl	10008f08 <__match>
10007cfe:	2800      	cmp	r0, #0
10007d00:	d102      	bne.n	10007d08 <_strtod_l+0x844>
10007d02:	9b19      	ldr	r3, [sp, #100]	@ 0x64
10007d04:	3301      	adds	r3, #1
10007d06:	9319      	str	r3, [sp, #100]	@ 0x64
10007d08:	2600      	movs	r6, #0
10007d0a:	4f17      	ldr	r7, [pc, #92]	@ (10007d68 <_strtod_l+0x8a4>)
10007d0c:	e7b5      	b.n	10007c7a <_strtod_l+0x7b6>
10007d0e:	4b15      	ldr	r3, [pc, #84]	@ (10007d64 <_strtod_l+0x8a0>)
10007d10:	2200      	movs	r2, #0
10007d12:	0020      	movs	r0, r4
10007d14:	0029      	movs	r1, r5
10007d16:	f7fa fcfc 	bl	10002712 <__wrap___aeabi_dmul>
10007d1a:	9b12      	ldr	r3, [sp, #72]	@ 0x48
10007d1c:	9010      	str	r0, [sp, #64]	@ 0x40
10007d1e:	9111      	str	r1, [sp, #68]	@ 0x44
10007d20:	2b00      	cmp	r3, #0
10007d22:	d176      	bne.n	10007e12 <_strtod_l+0x94e>
10007d24:	000b      	movs	r3, r1
10007d26:	900e      	str	r0, [sp, #56]	@ 0x38
10007d28:	e69f      	b.n	10007a6a <_strtod_l+0x5a6>
10007d2a:	4649      	mov	r1, r9
10007d2c:	001a      	movs	r2, r3
10007d2e:	4640      	mov	r0, r8
10007d30:	f002 f890 	bl	10009e54 <__pow5mult>
10007d34:	4681      	mov	r9, r0
10007d36:	2800      	cmp	r0, #0
10007d38:	d055      	beq.n	10007de6 <_strtod_l+0x922>
10007d3a:	0001      	movs	r1, r0
10007d3c:	9a1a      	ldr	r2, [sp, #104]	@ 0x68
10007d3e:	4640      	mov	r0, r8
10007d40:	f001 ffb0 	bl	10009ca4 <__multiply>
10007d44:	900d      	str	r0, [sp, #52]	@ 0x34
10007d46:	2800      	cmp	r0, #0
10007d48:	d04d      	beq.n	10007de6 <_strtod_l+0x922>
10007d4a:	4640      	mov	r0, r8
10007d4c:	991a      	ldr	r1, [sp, #104]	@ 0x68
10007d4e:	f001 fe6f 	bl	10009a30 <_Bfree>
10007d52:	9b0d      	ldr	r3, [sp, #52]	@ 0x34
10007d54:	931a      	str	r3, [sp, #104]	@ 0x68
10007d56:	e62b      	b.n	100079b0 <_strtod_l+0x4ec>
10007d58:	9a14      	ldr	r2, [sp, #80]	@ 0x50
10007d5a:	9d0b      	ldr	r5, [sp, #44]	@ 0x2c
10007d5c:	1ad4      	subs	r4, r2, r3
10007d5e:	e718      	b.n	10007b92 <_strtod_l+0x6ce>
10007d60:	3ff00000 	.word	0x3ff00000
10007d64:	3fe00000 	.word	0x3fe00000
10007d68:	7ff00000 	.word	0x7ff00000
10007d6c:	7fe00000 	.word	0x7fe00000
10007d70:	ffc00000 	.word	0xffc00000
10007d74:	41dfffff 	.word	0x41dfffff
10007d78:	fffffc02 	.word	0xfffffc02
10007d7c:	10012590 	.word	0x10012590
10007d80:	1000b880 	.word	0x1000b880
10007d84:	1000b778 	.word	0x1000b778
10007d88:	1000b77c 	.word	0x1000b77c
10007d8c:	4652      	mov	r2, sl
10007d8e:	4640      	mov	r0, r8
10007d90:	991a      	ldr	r1, [sp, #104]	@ 0x68
10007d92:	f002 f8c7 	bl	10009f24 <__lshift>
10007d96:	901a      	str	r0, [sp, #104]	@ 0x68
10007d98:	2800      	cmp	r0, #0
10007d9a:	d000      	beq.n	10007d9e <_strtod_l+0x8da>
10007d9c:	e60c      	b.n	100079b8 <_strtod_l+0x4f4>
10007d9e:	46da      	mov	sl, fp
10007da0:	2322      	movs	r3, #34	@ 0x22
10007da2:	4642      	mov	r2, r8
10007da4:	2600      	movs	r6, #0
10007da6:	4fc8      	ldr	r7, [pc, #800]	@ (100080c8 <_strtod_l+0xc04>)
10007da8:	6013      	str	r3, [r2, #0]
10007daa:	0001      	movs	r1, r0
10007dac:	4640      	mov	r0, r8
10007dae:	f001 fe3f 	bl	10009a30 <_Bfree>
10007db2:	4640      	mov	r0, r8
10007db4:	9909      	ldr	r1, [sp, #36]	@ 0x24
10007db6:	f001 fe3b 	bl	10009a30 <_Bfree>
10007dba:	4649      	mov	r1, r9
10007dbc:	4640      	mov	r0, r8
10007dbe:	f001 fe37 	bl	10009a30 <_Bfree>
10007dc2:	4640      	mov	r0, r8
10007dc4:	9913      	ldr	r1, [sp, #76]	@ 0x4c
10007dc6:	f001 fe33 	bl	10009a30 <_Bfree>
10007dca:	4651      	mov	r1, sl
10007dcc:	4640      	mov	r0, r8
10007dce:	f001 fe2f 	bl	10009a30 <_Bfree>
10007dd2:	e752      	b.n	10007c7a <_strtod_l+0x7b6>
10007dd4:	0022      	movs	r2, r4
10007dd6:	4640      	mov	r0, r8
10007dd8:	9909      	ldr	r1, [sp, #36]	@ 0x24
10007dda:	f002 f8a3 	bl	10009f24 <__lshift>
10007dde:	9009      	str	r0, [sp, #36]	@ 0x24
10007de0:	2800      	cmp	r0, #0
10007de2:	d000      	beq.n	10007de6 <_strtod_l+0x922>
10007de4:	e5ef      	b.n	100079c6 <_strtod_l+0x502>
10007de6:	46da      	mov	sl, fp
10007de8:	981a      	ldr	r0, [sp, #104]	@ 0x68
10007dea:	e7d9      	b.n	10007da0 <_strtod_l+0x8dc>
10007dec:	4640      	mov	r0, r8
10007dee:	9a14      	ldr	r2, [sp, #80]	@ 0x50
10007df0:	9909      	ldr	r1, [sp, #36]	@ 0x24
10007df2:	f002 f82f 	bl	10009e54 <__pow5mult>
10007df6:	9009      	str	r0, [sp, #36]	@ 0x24
10007df8:	2800      	cmp	r0, #0
10007dfa:	d000      	beq.n	10007dfe <_strtod_l+0x93a>
10007dfc:	e5e0      	b.n	100079c0 <_strtod_l+0x4fc>
10007dfe:	46da      	mov	sl, fp
10007e00:	e7f2      	b.n	10007de8 <_strtod_l+0x924>
10007e02:	49b2      	ldr	r1, [pc, #712]	@ (100080cc <_strtod_l+0xc08>)
10007e04:	1acb      	subs	r3, r1, r3
10007e06:	2101      	movs	r1, #1
10007e08:	4099      	lsls	r1, r3
10007e0a:	2301      	movs	r3, #1
10007e0c:	9115      	str	r1, [sp, #84]	@ 0x54
10007e0e:	9310      	str	r3, [sp, #64]	@ 0x40
10007e10:	e5b6      	b.n	10007980 <_strtod_l+0x4bc>
10007e12:	9b10      	ldr	r3, [sp, #64]	@ 0x40
10007e14:	9c11      	ldr	r4, [sp, #68]	@ 0x44
10007e16:	930e      	str	r3, [sp, #56]	@ 0x38
10007e18:	940f      	str	r4, [sp, #60]	@ 0x3c
10007e1a:	e62b      	b.n	10007a74 <_strtod_l+0x5b0>
10007e1c:	2300      	movs	r3, #0
10007e1e:	4cac      	ldr	r4, [pc, #688]	@ (100080d0 <_strtod_l+0xc0c>)
10007e20:	930e      	str	r3, [sp, #56]	@ 0x38
10007e22:	940f      	str	r4, [sp, #60]	@ 0x3c
10007e24:	9310      	str	r3, [sp, #64]	@ 0x40
10007e26:	9411      	str	r4, [sp, #68]	@ 0x44
10007e28:	e624      	b.n	10007a74 <_strtod_l+0x5b0>
10007e2a:	4aaa      	ldr	r2, [pc, #680]	@ (100080d4 <_strtod_l+0xc10>)
10007e2c:	9b0d      	ldr	r3, [sp, #52]	@ 0x34
10007e2e:	4694      	mov	ip, r2
10007e30:	4463      	add	r3, ip
10007e32:	9305      	str	r3, [sp, #20]
10007e34:	9c04      	ldr	r4, [sp, #16]
10007e36:	9d05      	ldr	r5, [sp, #20]
10007e38:	0020      	movs	r0, r4
10007e3a:	0029      	movs	r1, r5
10007e3c:	f002 f9e0 	bl	1000a200 <__ulp>
10007e40:	9a0e      	ldr	r2, [sp, #56]	@ 0x38
10007e42:	9b0f      	ldr	r3, [sp, #60]	@ 0x3c
10007e44:	f7fa fc65 	bl	10002712 <__wrap___aeabi_dmul>
10007e48:	0022      	movs	r2, r4
10007e4a:	002b      	movs	r3, r5
10007e4c:	f7fa fc3a 	bl	100026c4 <__wrap___aeabi_dadd>
10007e50:	4b9d      	ldr	r3, [pc, #628]	@ (100080c8 <_strtod_l+0xc04>)
10007e52:	4aa1      	ldr	r2, [pc, #644]	@ (100080d8 <_strtod_l+0xc14>)
10007e54:	9004      	str	r0, [sp, #16]
10007e56:	9105      	str	r1, [sp, #20]
10007e58:	400b      	ands	r3, r1
10007e5a:	4293      	cmp	r3, r2
10007e5c:	d800      	bhi.n	10007e60 <_strtod_l+0x99c>
10007e5e:	e0a1      	b.n	10007fa4 <_strtod_l+0xae0>
10007e60:	4a9e      	ldr	r2, [pc, #632]	@ (100080dc <_strtod_l+0xc18>)
10007e62:	4297      	cmp	r7, r2
10007e64:	d101      	bne.n	10007e6a <_strtod_l+0x9a6>
10007e66:	3601      	adds	r6, #1
10007e68:	d0bd      	beq.n	10007de6 <_strtod_l+0x922>
10007e6a:	2301      	movs	r3, #1
10007e6c:	4c9b      	ldr	r4, [pc, #620]	@ (100080dc <_strtod_l+0xc18>)
10007e6e:	425b      	negs	r3, r3
10007e70:	9304      	str	r3, [sp, #16]
10007e72:	9405      	str	r4, [sp, #20]
10007e74:	e64d      	b.n	10007b12 <_strtod_l+0x64e>
10007e76:	2300      	movs	r3, #0
10007e78:	930a      	str	r3, [sp, #40]	@ 0x28
10007e7a:	e718      	b.n	10007cae <_strtod_l+0x7ea>
10007e7c:	9e04      	ldr	r6, [sp, #16]
10007e7e:	9f05      	ldr	r7, [sp, #20]
10007e80:	e6fb      	b.n	10007c7a <_strtod_l+0x7b6>
10007e82:	2300      	movs	r3, #0
10007e84:	4c96      	ldr	r4, [pc, #600]	@ (100080e0 <_strtod_l+0xc1c>)
10007e86:	930e      	str	r3, [sp, #56]	@ 0x38
10007e88:	940f      	str	r4, [sp, #60]	@ 0x3c
10007e8a:	2300      	movs	r3, #0
10007e8c:	4c90      	ldr	r4, [pc, #576]	@ (100080d0 <_strtod_l+0xc0c>)
10007e8e:	9310      	str	r3, [sp, #64]	@ 0x40
10007e90:	9411      	str	r4, [sp, #68]	@ 0x44
10007e92:	e5ef      	b.n	10007a74 <_strtod_l+0x5b0>
10007e94:	9302      	str	r3, [sp, #8]
10007e96:	9b08      	ldr	r3, [sp, #32]
10007e98:	4640      	mov	r0, r8
10007e9a:	9301      	str	r3, [sp, #4]
10007e9c:	ab1a      	add	r3, sp, #104	@ 0x68
10007e9e:	9300      	str	r3, [sp, #0]
10007ea0:	4a90      	ldr	r2, [pc, #576]	@ (100080e4 <_strtod_l+0xc20>)
10007ea2:	ab1b      	add	r3, sp, #108	@ 0x6c
10007ea4:	a919      	add	r1, sp, #100	@ 0x64
10007ea6:	f000 fcb9 	bl	1000881c <__gethex>
10007eaa:	230f      	movs	r3, #15
10007eac:	001e      	movs	r6, r3
10007eae:	0004      	movs	r4, r0
10007eb0:	4006      	ands	r6, r0
10007eb2:	4203      	tst	r3, r0
10007eb4:	d100      	bne.n	10007eb8 <_strtod_l+0x9f4>
10007eb6:	e6de      	b.n	10007c76 <_strtod_l+0x7b2>
10007eb8:	2e06      	cmp	r6, #6
10007eba:	d000      	beq.n	10007ebe <_strtod_l+0x9fa>
10007ebc:	e099      	b.n	10007ff2 <_strtod_l+0xb2e>
10007ebe:	9b07      	ldr	r3, [sp, #28]
10007ec0:	2b00      	cmp	r3, #0
10007ec2:	d000      	beq.n	10007ec6 <_strtod_l+0xa02>
10007ec4:	601d      	str	r5, [r3, #0]
10007ec6:	2600      	movs	r6, #0
10007ec8:	2700      	movs	r7, #0
10007eca:	f7ff fb65 	bl	10007598 <_strtod_l+0xd4>
10007ece:	9c10      	ldr	r4, [sp, #64]	@ 0x40
10007ed0:	9d11      	ldr	r5, [sp, #68]	@ 0x44
10007ed2:	0020      	movs	r0, r4
10007ed4:	0029      	movs	r1, r5
10007ed6:	f7fa fce7 	bl	100028a8 <__wrap___aeabi_d2lz>
10007eda:	f7fa fcd9 	bl	10002890 <__wrap___aeabi_l2d>
10007ede:	0002      	movs	r2, r0
10007ee0:	000b      	movs	r3, r1
10007ee2:	0020      	movs	r0, r4
10007ee4:	0029      	movs	r1, r5
10007ee6:	f7fa fbe4 	bl	100026b2 <__wrap___aeabi_dsub>
10007eea:	9a04      	ldr	r2, [sp, #16]
10007eec:	9b12      	ldr	r3, [sp, #72]	@ 0x48
10007eee:	0336      	lsls	r6, r6, #12
10007ef0:	4313      	orrs	r3, r2
10007ef2:	0b36      	lsrs	r6, r6, #12
10007ef4:	0004      	movs	r4, r0
10007ef6:	000d      	movs	r5, r1
10007ef8:	4a7b      	ldr	r2, [pc, #492]	@ (100080e8 <_strtod_l+0xc24>)
10007efa:	4333      	orrs	r3, r6
10007efc:	d10a      	bne.n	10007f14 <_strtod_l+0xa50>
10007efe:	4b7b      	ldr	r3, [pc, #492]	@ (100080ec <_strtod_l+0xc28>)
10007f00:	f7fa fc52 	bl	100027a8 <__wrap___aeabi_dcmplt>
10007f04:	2800      	cmp	r0, #0
10007f06:	d100      	bne.n	10007f0a <_strtod_l+0xa46>
10007f08:	e603      	b.n	10007b12 <_strtod_l+0x64e>
10007f0a:	46da      	mov	sl, fp
10007f0c:	9e04      	ldr	r6, [sp, #16]
10007f0e:	9f05      	ldr	r7, [sp, #20]
10007f10:	981a      	ldr	r0, [sp, #104]	@ 0x68
10007f12:	e74a      	b.n	10007daa <_strtod_l+0x8e6>
10007f14:	4b76      	ldr	r3, [pc, #472]	@ (100080f0 <_strtod_l+0xc2c>)
10007f16:	f7fa fc47 	bl	100027a8 <__wrap___aeabi_dcmplt>
10007f1a:	2800      	cmp	r0, #0
10007f1c:	d1f5      	bne.n	10007f0a <_strtod_l+0xa46>
10007f1e:	0020      	movs	r0, r4
10007f20:	0029      	movs	r1, r5
10007f22:	4a74      	ldr	r2, [pc, #464]	@ (100080f4 <_strtod_l+0xc30>)
10007f24:	4b74      	ldr	r3, [pc, #464]	@ (100080f8 <_strtod_l+0xc34>)
10007f26:	f7fa fc55 	bl	100027d4 <__wrap___aeabi_dcmpgt>
10007f2a:	2800      	cmp	r0, #0
10007f2c:	d100      	bne.n	10007f30 <_strtod_l+0xa6c>
10007f2e:	e5f0      	b.n	10007b12 <_strtod_l+0x64e>
10007f30:	e7eb      	b.n	10007f0a <_strtod_l+0xa46>
10007f32:	2b01      	cmp	r3, #1
10007f34:	d1a5      	bne.n	10007e82 <_strtod_l+0x9be>
10007f36:	9b0d      	ldr	r3, [sp, #52]	@ 0x34
10007f38:	2b00      	cmp	r3, #0
10007f3a:	d1a2      	bne.n	10007e82 <_strtod_l+0x9be>
10007f3c:	46da      	mov	sl, fp
10007f3e:	2322      	movs	r3, #34	@ 0x22
10007f40:	4642      	mov	r2, r8
10007f42:	2600      	movs	r6, #0
10007f44:	2700      	movs	r7, #0
10007f46:	981a      	ldr	r0, [sp, #104]	@ 0x68
10007f48:	6013      	str	r3, [r2, #0]
10007f4a:	e72e      	b.n	10007daa <_strtod_l+0x8e6>
10007f4c:	0006      	movs	r6, r0
10007f4e:	4653      	mov	r3, sl
10007f50:	4648      	mov	r0, r9
10007f52:	4692      	mov	sl, r2
10007f54:	46b1      	mov	r9, r6
10007f56:	001a      	movs	r2, r3
10007f58:	465e      	mov	r6, fp
10007f5a:	9b12      	ldr	r3, [sp, #72]	@ 0x48
10007f5c:	469b      	mov	fp, r3
10007f5e:	4483      	add	fp, r0
10007f60:	465b      	mov	r3, fp
10007f62:	9312      	str	r3, [sp, #72]	@ 0x48
10007f64:	2908      	cmp	r1, #8
10007f66:	dc01      	bgt.n	10007f6c <_strtod_l+0xaa8>
10007f68:	f7ff fb4e 	bl	10007608 <_strtod_l+0x144>
10007f6c:	2000      	movs	r0, #0
10007f6e:	2e10      	cmp	r6, #16
10007f70:	dd01      	ble.n	10007f76 <_strtod_l+0xab2>
10007f72:	f7ff fb50 	bl	10007616 <_strtod_l+0x152>
10007f76:	4653      	mov	r3, sl
10007f78:	009b      	lsls	r3, r3, #2
10007f7a:	4453      	add	r3, sl
10007f7c:	4692      	mov	sl, r2
10007f7e:	005b      	lsls	r3, r3, #1
10007f80:	449a      	add	sl, r3
10007f82:	f7ff fb48 	bl	10007616 <_strtod_l+0x152>
10007f86:	2322      	movs	r3, #34	@ 0x22
10007f88:	4642      	mov	r2, r8
10007f8a:	6013      	str	r3, [r2, #0]
10007f8c:	e6bc      	b.n	10007d08 <_strtod_l+0x844>
10007f8e:	2201      	movs	r2, #1
10007f90:	0038      	movs	r0, r7
10007f92:	495a      	ldr	r1, [pc, #360]	@ (100080fc <_strtod_l+0xc38>)
10007f94:	f7fc ffaa 	bl	10004eec <strncmp>
10007f98:	2800      	cmp	r0, #0
10007f9a:	d020      	beq.n	10007fde <_strtod_l+0xb1a>
10007f9c:	2000      	movs	r0, #0
10007f9e:	2200      	movs	r2, #0
10007fa0:	f7ff fb88 	bl	100076b4 <_strtod_l+0x1f0>
10007fa4:	23d4      	movs	r3, #212	@ 0xd4
10007fa6:	049b      	lsls	r3, r3, #18
10007fa8:	18ce      	adds	r6, r1, r3
10007faa:	9605      	str	r6, [sp, #20]
10007fac:	e5a9      	b.n	10007b02 <_strtod_l+0x63e>
10007fae:	990b      	ldr	r1, [sp, #44]	@ 0x2c
10007fb0:	4b53      	ldr	r3, [pc, #332]	@ (10008100 <_strtod_l+0xc3c>)
10007fb2:	4299      	cmp	r1, r3
10007fb4:	dc01      	bgt.n	10007fba <_strtod_l+0xaf6>
10007fb6:	f7ff fbf7 	bl	100077a8 <_strtod_l+0x2e4>
10007fba:	f7ff fbf4 	bl	100077a6 <_strtod_l+0x2e2>
10007fbe:	9a0c      	ldr	r2, [sp, #48]	@ 0x30
10007fc0:	4b50      	ldr	r3, [pc, #320]	@ (10008104 <_strtod_l+0xc40>)
10007fc2:	00d1      	lsls	r1, r2, #3
10007fc4:	1859      	adds	r1, r3, r1
10007fc6:	6808      	ldr	r0, [r1, #0]
10007fc8:	6849      	ldr	r1, [r1, #4]
10007fca:	9a04      	ldr	r2, [sp, #16]
10007fcc:	9b05      	ldr	r3, [sp, #20]
10007fce:	f7fa fba0 	bl	10002712 <__wrap___aeabi_dmul>
10007fd2:	0006      	movs	r6, r0
10007fd4:	000f      	movs	r7, r1
10007fd6:	e650      	b.n	10007c7a <_strtod_l+0x7b6>
10007fd8:	2000      	movs	r0, #0
10007fda:	f7ff fb05 	bl	100075e8 <_strtod_l+0x124>
10007fde:	9a19      	ldr	r2, [sp, #100]	@ 0x64
10007fe0:	0013      	movs	r3, r2
10007fe2:	3201      	adds	r2, #1
10007fe4:	9219      	str	r2, [sp, #100]	@ 0x64
10007fe6:	785d      	ldrb	r5, [r3, #1]
10007fe8:	2300      	movs	r3, #0
10007fea:	469a      	mov	sl, r3
10007fec:	4699      	mov	r9, r3
10007fee:	f7ff faee 	bl	100075ce <_strtod_l+0x10a>
10007ff2:	9a1a      	ldr	r2, [sp, #104]	@ 0x68
10007ff4:	2a00      	cmp	r2, #0
10007ff6:	d007      	beq.n	10008008 <_strtod_l+0xb44>
10007ff8:	2135      	movs	r1, #53	@ 0x35
10007ffa:	a81c      	add	r0, sp, #112	@ 0x70
10007ffc:	f002 fa16 	bl	1000a42c <__copybits>
10008000:	4640      	mov	r0, r8
10008002:	991a      	ldr	r1, [sp, #104]	@ 0x68
10008004:	f001 fd14 	bl	10009a30 <_Bfree>
10008008:	9a1b      	ldr	r2, [sp, #108]	@ 0x6c
1000800a:	2e05      	cmp	r6, #5
1000800c:	d900      	bls.n	10008010 <_strtod_l+0xb4c>
1000800e:	e190      	b.n	10008332 <_strtod_l+0xe6e>
10008010:	4b3d      	ldr	r3, [pc, #244]	@ (10008108 <_strtod_l+0xc44>)
10008012:	00b6      	lsls	r6, r6, #2
10008014:	599b      	ldr	r3, [r3, r6]
10008016:	469f      	mov	pc, r3
10008018:	9b1c      	ldr	r3, [sp, #112]	@ 0x70
1000801a:	493c      	ldr	r1, [pc, #240]	@ (1000810c <_strtod_l+0xc48>)
1000801c:	9304      	str	r3, [sp, #16]
1000801e:	9b1d      	ldr	r3, [sp, #116]	@ 0x74
10008020:	400b      	ands	r3, r1
10008022:	493b      	ldr	r1, [pc, #236]	@ (10008110 <_strtod_l+0xc4c>)
10008024:	468c      	mov	ip, r1
10008026:	4462      	add	r2, ip
10008028:	0512      	lsls	r2, r2, #20
1000802a:	4313      	orrs	r3, r2
1000802c:	9305      	str	r3, [sp, #20]
1000802e:	05e4      	lsls	r4, r4, #23
10008030:	d503      	bpl.n	1000803a <_strtod_l+0xb76>
10008032:	2280      	movs	r2, #128	@ 0x80
10008034:	0612      	lsls	r2, r2, #24
10008036:	4313      	orrs	r3, r2
10008038:	9305      	str	r3, [sp, #20]
1000803a:	4a23      	ldr	r2, [pc, #140]	@ (100080c8 <_strtod_l+0xc04>)
1000803c:	9e04      	ldr	r6, [sp, #16]
1000803e:	9f05      	ldr	r7, [sp, #20]
10008040:	4213      	tst	r3, r2
10008042:	d000      	beq.n	10008046 <_strtod_l+0xb82>
10008044:	e619      	b.n	10007c7a <_strtod_l+0x7b6>
10008046:	f001 fac9 	bl	100095dc <__errno>
1000804a:	2322      	movs	r3, #34	@ 0x22
1000804c:	6003      	str	r3, [r0, #0]
1000804e:	e614      	b.n	10007c7a <_strtod_l+0x7b6>
10008050:	2201      	movs	r2, #1
10008052:	4b30      	ldr	r3, [pc, #192]	@ (10008114 <_strtod_l+0xc50>)
10008054:	4252      	negs	r2, r2
10008056:	9204      	str	r2, [sp, #16]
10008058:	9305      	str	r3, [sp, #20]
1000805a:	05e4      	lsls	r4, r4, #23
1000805c:	d400      	bmi.n	10008060 <_strtod_l+0xb9c>
1000805e:	e70d      	b.n	10007e7c <_strtod_l+0x9b8>
10008060:	9b05      	ldr	r3, [sp, #20]
10008062:	e7e6      	b.n	10008032 <_strtod_l+0xb6e>
10008064:	4b18      	ldr	r3, [pc, #96]	@ (100080c8 <_strtod_l+0xc04>)
10008066:	9305      	str	r3, [sp, #20]
10008068:	e7f7      	b.n	1000805a <_strtod_l+0xb96>
1000806a:	991c      	ldr	r1, [sp, #112]	@ 0x70
1000806c:	9a1d      	ldr	r2, [sp, #116]	@ 0x74
1000806e:	9b1d      	ldr	r3, [sp, #116]	@ 0x74
10008070:	9104      	str	r1, [sp, #16]
10008072:	9205      	str	r2, [sp, #20]
10008074:	e7db      	b.n	1000802e <_strtod_l+0xb6a>
10008076:	9b10      	ldr	r3, [sp, #64]	@ 0x40
10008078:	9c11      	ldr	r4, [sp, #68]	@ 0x44
1000807a:	9316      	str	r3, [sp, #88]	@ 0x58
1000807c:	9417      	str	r4, [sp, #92]	@ 0x5c
1000807e:	e528      	b.n	10007ad2 <_strtod_l+0x60e>
10008080:	240f      	movs	r4, #15
10008082:	9a04      	ldr	r2, [sp, #16]
10008084:	9b05      	ldr	r3, [sp, #20]
10008086:	1ba4      	subs	r4, r4, r6
10008088:	4d1e      	ldr	r5, [pc, #120]	@ (10008104 <_strtod_l+0xc40>)
1000808a:	00e1      	lsls	r1, r4, #3
1000808c:	1869      	adds	r1, r5, r1
1000808e:	6808      	ldr	r0, [r1, #0]
10008090:	6849      	ldr	r1, [r1, #4]
10008092:	f7fa fb3e 	bl	10002712 <__wrap___aeabi_dmul>
10008096:	9b0c      	ldr	r3, [sp, #48]	@ 0x30
10008098:	1b1c      	subs	r4, r3, r4
1000809a:	00e4      	lsls	r4, r4, #3
1000809c:	192d      	adds	r5, r5, r4
1000809e:	682a      	ldr	r2, [r5, #0]
100080a0:	686b      	ldr	r3, [r5, #4]
100080a2:	f7fa fb36 	bl	10002712 <__wrap___aeabi_dmul>
100080a6:	0006      	movs	r6, r0
100080a8:	000f      	movs	r7, r1
100080aa:	e5e6      	b.n	10007c7a <_strtod_l+0x7b6>
100080ac:	2300      	movs	r3, #0
100080ae:	960d      	str	r6, [sp, #52]	@ 0x34
100080b0:	9312      	str	r3, [sp, #72]	@ 0x48
100080b2:	f7ff fab3 	bl	1000761c <_strtod_l+0x158>
100080b6:	2300      	movs	r3, #0
100080b8:	4c17      	ldr	r4, [pc, #92]	@ (10008118 <_strtod_l+0xc54>)
100080ba:	930e      	str	r3, [sp, #56]	@ 0x38
100080bc:	940f      	str	r4, [sp, #60]	@ 0x3c
100080be:	2300      	movs	r3, #0
100080c0:	4c0d      	ldr	r4, [pc, #52]	@ (100080f8 <_strtod_l+0xc34>)
100080c2:	9310      	str	r3, [sp, #64]	@ 0x40
100080c4:	9411      	str	r4, [sp, #68]	@ 0x44
100080c6:	e4d5      	b.n	10007a74 <_strtod_l+0x5b0>
100080c8:	7ff00000 	.word	0x7ff00000
100080cc:	fffffbe2 	.word	0xfffffbe2
100080d0:	3ff00000 	.word	0x3ff00000
100080d4:	fcb00000 	.word	0xfcb00000
100080d8:	7c9fffff 	.word	0x7c9fffff
100080dc:	7fefffff 	.word	0x7fefffff
100080e0:	bff00000 	.word	0xbff00000
100080e4:	1000b86c 	.word	0x1000b86c
100080e8:	94a03595 	.word	0x94a03595
100080ec:	3fcfffff 	.word	0x3fcfffff
100080f0:	3fdfffff 	.word	0x3fdfffff
100080f4:	35afe535 	.word	0x35afe535
100080f8:	3fe00000 	.word	0x3fe00000
100080fc:	1000b62c 	.word	0x1000b62c
10008100:	00004e1f 	.word	0x00004e1f
10008104:	10012590 	.word	0x10012590
10008108:	1000b840 	.word	0x1000b840
1000810c:	ffefffff 	.word	0xffefffff
10008110:	00000433 	.word	0x00000433
10008114:	7fffffff 	.word	0x7fffffff
10008118:	bfe00000 	.word	0xbfe00000
1000811c:	9b15      	ldr	r3, [sp, #84]	@ 0x54
1000811e:	9912      	ldr	r1, [sp, #72]	@ 0x48
10008120:	469c      	mov	ip, r3
10008122:	9b0d      	ldr	r3, [sp, #52]	@ 0x34
10008124:	46da      	mov	sl, fp
10008126:	031a      	lsls	r2, r3, #12
10008128:	0b12      	lsrs	r2, r2, #12
1000812a:	2900      	cmp	r1, #0
1000812c:	d03e      	beq.n	100081ac <_strtod_l+0xce8>
1000812e:	498a      	ldr	r1, [pc, #552]	@ (10008358 <_strtod_l+0xe94>)
10008130:	428a      	cmp	r2, r1
10008132:	d100      	bne.n	10008136 <_strtod_l+0xc72>
10008134:	e0a0      	b.n	10008278 <_strtod_l+0xdb4>
10008136:	4662      	mov	r2, ip
10008138:	2a00      	cmp	r2, #0
1000813a:	d101      	bne.n	10008140 <_strtod_l+0xc7c>
1000813c:	9b10      	ldr	r3, [sp, #64]	@ 0x40
1000813e:	9a04      	ldr	r2, [sp, #16]
10008140:	4213      	tst	r3, r2
10008142:	d00c      	beq.n	1000815e <_strtod_l+0xc9a>
10008144:	9804      	ldr	r0, [sp, #16]
10008146:	9905      	ldr	r1, [sp, #20]
10008148:	9a0a      	ldr	r2, [sp, #40]	@ 0x28
1000814a:	f7ff f9a3 	bl	10007494 <sulp>
1000814e:	0002      	movs	r2, r0
10008150:	000b      	movs	r3, r1
10008152:	0030      	movs	r0, r6
10008154:	0039      	movs	r1, r7
10008156:	f7fa fab5 	bl	100026c4 <__wrap___aeabi_dadd>
1000815a:	0006      	movs	r6, r0
1000815c:	000f      	movs	r7, r1
1000815e:	9b0a      	ldr	r3, [sp, #40]	@ 0x28
10008160:	2b00      	cmp	r3, #0
10008162:	d100      	bne.n	10008166 <_strtod_l+0xca2>
10008164:	e6d4      	b.n	10007f10 <_strtod_l+0xa4c>
10008166:	0030      	movs	r0, r6
10008168:	0039      	movs	r1, r7
1000816a:	4b7c      	ldr	r3, [pc, #496]	@ (1000835c <_strtod_l+0xe98>)
1000816c:	2200      	movs	r2, #0
1000816e:	f7fa fad0 	bl	10002712 <__wrap___aeabi_dmul>
10008172:	4b7b      	ldr	r3, [pc, #492]	@ (10008360 <_strtod_l+0xe9c>)
10008174:	0006      	movs	r6, r0
10008176:	000f      	movs	r7, r1
10008178:	420b      	tst	r3, r1
1000817a:	d000      	beq.n	1000817e <_strtod_l+0xcba>
1000817c:	e6c8      	b.n	10007f10 <_strtod_l+0xa4c>
1000817e:	2322      	movs	r3, #34	@ 0x22
10008180:	4642      	mov	r2, r8
10008182:	981a      	ldr	r0, [sp, #104]	@ 0x68
10008184:	6013      	str	r3, [r2, #0]
10008186:	e610      	b.n	10007daa <_strtod_l+0x8e6>
10008188:	4976      	ldr	r1, [pc, #472]	@ (10008364 <_strtod_l+0xea0>)
1000818a:	aa1c      	add	r2, sp, #112	@ 0x70
1000818c:	a819      	add	r0, sp, #100	@ 0x64
1000818e:	f000 fed1 	bl	10008f34 <__hexnan>
10008192:	2805      	cmp	r0, #5
10008194:	d001      	beq.n	1000819a <_strtod_l+0xcd6>
10008196:	f7ff faab 	bl	100076f0 <_strtod_l+0x22c>
1000819a:	9b1d      	ldr	r3, [sp, #116]	@ 0x74
1000819c:	4a70      	ldr	r2, [pc, #448]	@ (10008360 <_strtod_l+0xe9c>)
1000819e:	431a      	orrs	r2, r3
100081a0:	9b1c      	ldr	r3, [sp, #112]	@ 0x70
100081a2:	9205      	str	r2, [sp, #20]
100081a4:	9304      	str	r3, [sp, #16]
100081a6:	9e04      	ldr	r6, [sp, #16]
100081a8:	9f05      	ldr	r7, [sp, #20]
100081aa:	e566      	b.n	10007c7a <_strtod_l+0x7b6>
100081ac:	2a00      	cmp	r2, #0
100081ae:	d147      	bne.n	10008240 <_strtod_l+0xd7c>
100081b0:	9a04      	ldr	r2, [sp, #16]
100081b2:	2a00      	cmp	r2, #0
100081b4:	d000      	beq.n	100081b8 <_strtod_l+0xcf4>
100081b6:	e084      	b.n	100082c2 <_strtod_l+0xdfe>
100081b8:	9a0a      	ldr	r2, [sp, #40]	@ 0x28
100081ba:	2a00      	cmp	r2, #0
100081bc:	d071      	beq.n	100082a2 <_strtod_l+0xdde>
100081be:	4c68      	ldr	r4, [pc, #416]	@ (10008360 <_strtod_l+0xe9c>)
100081c0:	401c      	ands	r4, r3
100081c2:	23d6      	movs	r3, #214	@ 0xd6
100081c4:	04db      	lsls	r3, r3, #19
100081c6:	429c      	cmp	r4, r3
100081c8:	d828      	bhi.n	1000821c <_strtod_l+0xd58>
100081ca:	23dc      	movs	r3, #220	@ 0xdc
100081cc:	049b      	lsls	r3, r3, #18
100081ce:	429c      	cmp	r4, r3
100081d0:	d8c9      	bhi.n	10008166 <_strtod_l+0xca2>
100081d2:	e6b4      	b.n	10007f3e <_strtod_l+0xa7a>
100081d4:	9b12      	ldr	r3, [sp, #72]	@ 0x48
100081d6:	9904      	ldr	r1, [sp, #16]
100081d8:	9a05      	ldr	r2, [sp, #20]
100081da:	46da      	mov	sl, fp
100081dc:	430b      	orrs	r3, r1
100081de:	d1be      	bne.n	1000815e <_strtod_l+0xc9a>
100081e0:	0313      	lsls	r3, r2, #12
100081e2:	d1bc      	bne.n	1000815e <_strtod_l+0xc9a>
100081e4:	23d6      	movs	r3, #214	@ 0xd6
100081e6:	4c5e      	ldr	r4, [pc, #376]	@ (10008360 <_strtod_l+0xe9c>)
100081e8:	04db      	lsls	r3, r3, #19
100081ea:	4014      	ands	r4, r2
100081ec:	429c      	cmp	r4, r3
100081ee:	d9b6      	bls.n	1000815e <_strtod_l+0xc9a>
100081f0:	465b      	mov	r3, fp
100081f2:	695b      	ldr	r3, [r3, #20]
100081f4:	2b00      	cmp	r3, #0
100081f6:	d103      	bne.n	10008200 <_strtod_l+0xd3c>
100081f8:	465b      	mov	r3, fp
100081fa:	691b      	ldr	r3, [r3, #16]
100081fc:	2b01      	cmp	r3, #1
100081fe:	ddae      	ble.n	1000815e <_strtod_l+0xc9a>
10008200:	4651      	mov	r1, sl
10008202:	2201      	movs	r2, #1
10008204:	4640      	mov	r0, r8
10008206:	f001 fe8d 	bl	10009f24 <__lshift>
1000820a:	4649      	mov	r1, r9
1000820c:	4682      	mov	sl, r0
1000820e:	f001 ff07 	bl	1000a020 <__mcmp>
10008212:	2800      	cmp	r0, #0
10008214:	dda3      	ble.n	1000815e <_strtod_l+0xc9a>
10008216:	9b0a      	ldr	r3, [sp, #40]	@ 0x28
10008218:	2b00      	cmp	r3, #0
1000821a:	d042      	beq.n	100082a2 <_strtod_l+0xdde>
1000821c:	4b52      	ldr	r3, [pc, #328]	@ (10008368 <_strtod_l+0xea4>)
1000821e:	4a4e      	ldr	r2, [pc, #312]	@ (10008358 <_strtod_l+0xe94>)
10008220:	469c      	mov	ip, r3
10008222:	2301      	movs	r3, #1
10008224:	4464      	add	r4, ip
10008226:	4322      	orrs	r2, r4
10008228:	425b      	negs	r3, r3
1000822a:	9205      	str	r2, [sp, #20]
1000822c:	9304      	str	r3, [sp, #16]
1000822e:	9e04      	ldr	r6, [sp, #16]
10008230:	9f05      	ldr	r7, [sp, #20]
10008232:	e798      	b.n	10008166 <_strtod_l+0xca2>
10008234:	2300      	movs	r3, #0
10008236:	469a      	mov	sl, r3
10008238:	4b4c      	ldr	r3, [pc, #304]	@ (1000836c <_strtod_l+0xea8>)
1000823a:	9309      	str	r3, [sp, #36]	@ 0x24
1000823c:	f7ff fb46 	bl	100078cc <_strtod_l+0x408>
10008240:	4662      	mov	r2, ip
10008242:	2a00      	cmp	r2, #0
10008244:	d101      	bne.n	1000824a <_strtod_l+0xd86>
10008246:	9b10      	ldr	r3, [sp, #64]	@ 0x40
10008248:	9a04      	ldr	r2, [sp, #16]
1000824a:	4213      	tst	r3, r2
1000824c:	d087      	beq.n	1000815e <_strtod_l+0xc9a>
1000824e:	9804      	ldr	r0, [sp, #16]
10008250:	9905      	ldr	r1, [sp, #20]
10008252:	9a0a      	ldr	r2, [sp, #40]	@ 0x28
10008254:	f7ff f91e 	bl	10007494 <sulp>
10008258:	0002      	movs	r2, r0
1000825a:	000b      	movs	r3, r1
1000825c:	0030      	movs	r0, r6
1000825e:	0039      	movs	r1, r7
10008260:	f7fa fa27 	bl	100026b2 <__wrap___aeabi_dsub>
10008264:	2200      	movs	r2, #0
10008266:	2300      	movs	r3, #0
10008268:	0006      	movs	r6, r0
1000826a:	000f      	movs	r7, r1
1000826c:	f7fa fa94 	bl	10002798 <__wrap___aeabi_dcmpeq>
10008270:	2800      	cmp	r0, #0
10008272:	d100      	bne.n	10008276 <_strtod_l+0xdb2>
10008274:	e773      	b.n	1000815e <_strtod_l+0xc9a>
10008276:	e662      	b.n	10007f3e <_strtod_l+0xa7a>
10008278:	9a0a      	ldr	r2, [sp, #40]	@ 0x28
1000827a:	9804      	ldr	r0, [sp, #16]
1000827c:	2a00      	cmp	r2, #0
1000827e:	d12e      	bne.n	100082de <_strtod_l+0xe1a>
10008280:	1c42      	adds	r2, r0, #1
10008282:	d040      	beq.n	10008306 <_strtod_l+0xe42>
10008284:	4662      	mov	r2, ip
10008286:	2a00      	cmp	r2, #0
10008288:	d04d      	beq.n	10008326 <_strtod_l+0xe62>
1000828a:	4213      	tst	r3, r2
1000828c:	d000      	beq.n	10008290 <_strtod_l+0xdcc>
1000828e:	e759      	b.n	10008144 <_strtod_l+0xc80>
10008290:	981a      	ldr	r0, [sp, #104]	@ 0x68
10008292:	e58a      	b.n	10007daa <_strtod_l+0x8e6>
10008294:	2201      	movs	r2, #1
10008296:	4252      	negs	r2, r2
10008298:	409a      	lsls	r2, r3
1000829a:	9b04      	ldr	r3, [sp, #16]
1000829c:	4013      	ands	r3, r2
1000829e:	9304      	str	r3, [sp, #16]
100082a0:	e4db      	b.n	10007c5a <_strtod_l+0x796>
100082a2:	9a05      	ldr	r2, [sp, #20]
100082a4:	4b2e      	ldr	r3, [pc, #184]	@ (10008360 <_strtod_l+0xe9c>)
100082a6:	981a      	ldr	r0, [sp, #104]	@ 0x68
100082a8:	4013      	ands	r3, r2
100082aa:	4a2f      	ldr	r2, [pc, #188]	@ (10008368 <_strtod_l+0xea4>)
100082ac:	4694      	mov	ip, r2
100082ae:	4a2a      	ldr	r2, [pc, #168]	@ (10008358 <_strtod_l+0xe94>)
100082b0:	4463      	add	r3, ip
100082b2:	431a      	orrs	r2, r3
100082b4:	2301      	movs	r3, #1
100082b6:	425b      	negs	r3, r3
100082b8:	9205      	str	r2, [sp, #20]
100082ba:	9304      	str	r3, [sp, #16]
100082bc:	9e04      	ldr	r6, [sp, #16]
100082be:	9f05      	ldr	r7, [sp, #20]
100082c0:	e573      	b.n	10007daa <_strtod_l+0x8e6>
100082c2:	4661      	mov	r1, ip
100082c4:	2900      	cmp	r1, #0
100082c6:	d019      	beq.n	100082fc <_strtod_l+0xe38>
100082c8:	420b      	tst	r3, r1
100082ca:	d100      	bne.n	100082ce <_strtod_l+0xe0a>
100082cc:	e747      	b.n	1000815e <_strtod_l+0xc9a>
100082ce:	e7be      	b.n	1000824e <_strtod_l+0xd8a>
100082d0:	234b      	movs	r3, #75	@ 0x4b
100082d2:	1a9a      	subs	r2, r3, r2
100082d4:	3b4c      	subs	r3, #76	@ 0x4c
100082d6:	4093      	lsls	r3, r2
100082d8:	4019      	ands	r1, r3
100082da:	9105      	str	r1, [sp, #20]
100082dc:	e4bd      	b.n	10007c5a <_strtod_l+0x796>
100082de:	21d4      	movs	r1, #212	@ 0xd4
100082e0:	4a1f      	ldr	r2, [pc, #124]	@ (10008360 <_strtod_l+0xe9c>)
100082e2:	04c9      	lsls	r1, r1, #19
100082e4:	401a      	ands	r2, r3
100082e6:	428a      	cmp	r2, r1
100082e8:	d92d      	bls.n	10008346 <_strtod_l+0xe82>
100082ea:	1c42      	adds	r2, r0, #1
100082ec:	d00b      	beq.n	10008306 <_strtod_l+0xe42>
100082ee:	4662      	mov	r2, ip
100082f0:	2a00      	cmp	r2, #0
100082f2:	d023      	beq.n	1000833c <_strtod_l+0xe78>
100082f4:	4213      	tst	r3, r2
100082f6:	d100      	bne.n	100082fa <_strtod_l+0xe36>
100082f8:	e735      	b.n	10008166 <_strtod_l+0xca2>
100082fa:	e723      	b.n	10008144 <_strtod_l+0xc80>
100082fc:	9b10      	ldr	r3, [sp, #64]	@ 0x40
100082fe:	4213      	tst	r3, r2
10008300:	d100      	bne.n	10008304 <_strtod_l+0xe40>
10008302:	e72c      	b.n	1000815e <_strtod_l+0xc9a>
10008304:	e7a3      	b.n	1000824e <_strtod_l+0xd8a>
10008306:	4a1a      	ldr	r2, [pc, #104]	@ (10008370 <_strtod_l+0xeac>)
10008308:	4293      	cmp	r3, r2
1000830a:	d100      	bne.n	1000830e <_strtod_l+0xe4a>
1000830c:	e56c      	b.n	10007de8 <_strtod_l+0x924>
1000830e:	4a14      	ldr	r2, [pc, #80]	@ (10008360 <_strtod_l+0xe9c>)
10008310:	4013      	ands	r3, r2
10008312:	2280      	movs	r2, #128	@ 0x80
10008314:	0352      	lsls	r2, r2, #13
10008316:	4694      	mov	ip, r2
10008318:	4463      	add	r3, ip
1000831a:	9305      	str	r3, [sp, #20]
1000831c:	2300      	movs	r3, #0
1000831e:	9304      	str	r3, [sp, #16]
10008320:	9e04      	ldr	r6, [sp, #16]
10008322:	9f05      	ldr	r7, [sp, #20]
10008324:	e71b      	b.n	1000815e <_strtod_l+0xc9a>
10008326:	9b10      	ldr	r3, [sp, #64]	@ 0x40
10008328:	4203      	tst	r3, r0
1000832a:	d000      	beq.n	1000832e <_strtod_l+0xe6a>
1000832c:	e70a      	b.n	10008144 <_strtod_l+0xc80>
1000832e:	981a      	ldr	r0, [sp, #104]	@ 0x68
10008330:	e53b      	b.n	10007daa <_strtod_l+0x8e6>
10008332:	2300      	movs	r3, #0
10008334:	e67b      	b.n	1000802e <_strtod_l+0xb6a>
10008336:	0031      	movs	r1, r6
10008338:	3601      	adds	r6, #1
1000833a:	e60e      	b.n	10007f5a <_strtod_l+0xa96>
1000833c:	9b10      	ldr	r3, [sp, #64]	@ 0x40
1000833e:	4203      	tst	r3, r0
10008340:	d100      	bne.n	10008344 <_strtod_l+0xe80>
10008342:	e710      	b.n	10008166 <_strtod_l+0xca2>
10008344:	e6fe      	b.n	10008144 <_strtod_l+0xc80>
10008346:	216b      	movs	r1, #107	@ 0x6b
10008348:	0d12      	lsrs	r2, r2, #20
1000834a:	1a8a      	subs	r2, r1, r2
1000834c:	396c      	subs	r1, #108	@ 0x6c
1000834e:	4091      	lsls	r1, r2
10008350:	4288      	cmp	r0, r1
10008352:	d1cc      	bne.n	100082ee <_strtod_l+0xe2a>
10008354:	e7db      	b.n	1000830e <_strtod_l+0xe4a>
10008356:	46c0      	nop			@ (mov r8, r8)
10008358:	000fffff 	.word	0x000fffff
1000835c:	39500000 	.word	0x39500000
10008360:	7ff00000 	.word	0x7ff00000
10008364:	1000b858 	.word	0x1000b858
10008368:	fff00000 	.word	0xfff00000
1000836c:	10012568 	.word	0x10012568
10008370:	7fefffff 	.word	0x7fefffff

10008374 <_strtod_r>:
10008374:	b510      	push	{r4, lr}
10008376:	4b02      	ldr	r3, [pc, #8]	@ (10008380 <_strtod_r+0xc>)
10008378:	f7ff f8a4 	bl	100074c4 <_strtod_l>
1000837c:	bd10      	pop	{r4, pc}
1000837e:	46c0      	nop			@ (mov r8, r8)
10008380:	20000600 	.word	0x20000600

10008384 <_malloc_trim_r>:
10008384:	b5f0      	push	{r4, r5, r6, r7, lr}
10008386:	46c6      	mov	lr, r8
10008388:	0006      	movs	r6, r0
1000838a:	b500      	push	{lr}
1000838c:	2008      	movs	r0, #8
1000838e:	000d      	movs	r5, r1
10008390:	f7fe fda4 	bl	10006edc <sysconf>
10008394:	0004      	movs	r4, r0
10008396:	0030      	movs	r0, r6
10008398:	f7fe fdf2 	bl	10006f80 <__malloc_lock>
1000839c:	4b23      	ldr	r3, [pc, #140]	@ (1000842c <_malloc_trim_r+0xa8>)
1000839e:	0021      	movs	r1, r4
100083a0:	4698      	mov	r8, r3
100083a2:	689b      	ldr	r3, [r3, #8]
100083a4:	685f      	ldr	r7, [r3, #4]
100083a6:	2303      	movs	r3, #3
100083a8:	439f      	bics	r7, r3
100083aa:	0038      	movs	r0, r7
100083ac:	3811      	subs	r0, #17
100083ae:	1b40      	subs	r0, r0, r5
100083b0:	1900      	adds	r0, r0, r4
100083b2:	f7f9 ff43 	bl	1000223c <__wrap___aeabi_uidiv>
100083b6:	1e45      	subs	r5, r0, #1
100083b8:	4365      	muls	r5, r4
100083ba:	42ac      	cmp	r4, r5
100083bc:	dc08      	bgt.n	100083d0 <_malloc_trim_r+0x4c>
100083be:	2100      	movs	r1, #0
100083c0:	0030      	movs	r0, r6
100083c2:	f001 f8f9 	bl	100095b8 <_sbrk_r>
100083c6:	4643      	mov	r3, r8
100083c8:	689b      	ldr	r3, [r3, #8]
100083ca:	19db      	adds	r3, r3, r7
100083cc:	4298      	cmp	r0, r3
100083ce:	d006      	beq.n	100083de <_malloc_trim_r+0x5a>
100083d0:	0030      	movs	r0, r6
100083d2:	f7fe fddd 	bl	10006f90 <__malloc_unlock>
100083d6:	2000      	movs	r0, #0
100083d8:	bc80      	pop	{r7}
100083da:	46b8      	mov	r8, r7
100083dc:	bdf0      	pop	{r4, r5, r6, r7, pc}
100083de:	0030      	movs	r0, r6
100083e0:	4269      	negs	r1, r5
100083e2:	f001 f8e9 	bl	100095b8 <_sbrk_r>
100083e6:	3001      	adds	r0, #1
100083e8:	d00e      	beq.n	10008408 <_malloc_trim_r+0x84>
100083ea:	2201      	movs	r2, #1
100083ec:	4643      	mov	r3, r8
100083ee:	1b7f      	subs	r7, r7, r5
100083f0:	689b      	ldr	r3, [r3, #8]
100083f2:	4317      	orrs	r7, r2
100083f4:	4a0e      	ldr	r2, [pc, #56]	@ (10008430 <_malloc_trim_r+0xac>)
100083f6:	605f      	str	r7, [r3, #4]
100083f8:	6813      	ldr	r3, [r2, #0]
100083fa:	0030      	movs	r0, r6
100083fc:	1b5b      	subs	r3, r3, r5
100083fe:	6013      	str	r3, [r2, #0]
10008400:	f7fe fdc6 	bl	10006f90 <__malloc_unlock>
10008404:	2001      	movs	r0, #1
10008406:	e7e7      	b.n	100083d8 <_malloc_trim_r+0x54>
10008408:	2100      	movs	r1, #0
1000840a:	0030      	movs	r0, r6
1000840c:	f001 f8d4 	bl	100095b8 <_sbrk_r>
10008410:	4643      	mov	r3, r8
10008412:	689a      	ldr	r2, [r3, #8]
10008414:	1a83      	subs	r3, r0, r2
10008416:	2b0f      	cmp	r3, #15
10008418:	ddda      	ble.n	100083d0 <_malloc_trim_r+0x4c>
1000841a:	4c06      	ldr	r4, [pc, #24]	@ (10008434 <_malloc_trim_r+0xb0>)
1000841c:	4904      	ldr	r1, [pc, #16]	@ (10008430 <_malloc_trim_r+0xac>)
1000841e:	6824      	ldr	r4, [r4, #0]
10008420:	1b00      	subs	r0, r0, r4
10008422:	6008      	str	r0, [r1, #0]
10008424:	2101      	movs	r1, #1
10008426:	430b      	orrs	r3, r1
10008428:	6053      	str	r3, [r2, #4]
1000842a:	e7d1      	b.n	100083d0 <_malloc_trim_r+0x4c>
1000842c:	200001f8 	.word	0x200001f8
10008430:	20000c2c 	.word	0x20000c2c
10008434:	200001f0 	.word	0x200001f0

10008438 <_free_r>:
10008438:	b5f8      	push	{r3, r4, r5, r6, r7, lr}
1000843a:	46ce      	mov	lr, r9
1000843c:	4647      	mov	r7, r8
1000843e:	0005      	movs	r5, r0
10008440:	000c      	movs	r4, r1
10008442:	b580      	push	{r7, lr}
10008444:	2900      	cmp	r1, #0
10008446:	d057      	beq.n	100084f8 <_free_r+0xc0>
10008448:	f7fe fd9a 	bl	10006f80 <__malloc_lock>
1000844c:	2301      	movs	r3, #1
1000844e:	0021      	movs	r1, r4
10008450:	469c      	mov	ip, r3
10008452:	3908      	subs	r1, #8
10008454:	6848      	ldr	r0, [r1, #4]
10008456:	4662      	mov	r2, ip
10008458:	0003      	movs	r3, r0
1000845a:	2403      	movs	r4, #3
1000845c:	4393      	bics	r3, r2
1000845e:	18cf      	adds	r7, r1, r3
10008460:	687a      	ldr	r2, [r7, #4]
10008462:	4e65      	ldr	r6, [pc, #404]	@ (100085f8 <_free_r+0x1c0>)
10008464:	43a2      	bics	r2, r4
10008466:	68b4      	ldr	r4, [r6, #8]
10008468:	42bc      	cmp	r4, r7
1000846a:	d100      	bne.n	1000846e <_free_r+0x36>
1000846c:	e070      	b.n	10008550 <_free_r+0x118>
1000846e:	18bc      	adds	r4, r7, r2
10008470:	46a1      	mov	r9, r4
10008472:	4664      	mov	r4, ip
10008474:	607a      	str	r2, [r7, #4]
10008476:	4204      	tst	r4, r0
10008478:	d121      	bne.n	100084be <_free_r+0x86>
1000847a:	6808      	ldr	r0, [r1, #0]
1000847c:	1a09      	subs	r1, r1, r0
1000847e:	181b      	adds	r3, r3, r0
10008480:	6888      	ldr	r0, [r1, #8]
10008482:	4680      	mov	r8, r0
10008484:	4648      	mov	r0, r9
10008486:	6840      	ldr	r0, [r0, #4]
10008488:	4020      	ands	r0, r4
1000848a:	0034      	movs	r4, r6
1000848c:	3408      	adds	r4, #8
1000848e:	4681      	mov	r9, r0
10008490:	45a0      	cmp	r8, r4
10008492:	d051      	beq.n	10008538 <_free_r+0x100>
10008494:	4640      	mov	r0, r8
10008496:	68cc      	ldr	r4, [r1, #12]
10008498:	60c4      	str	r4, [r0, #12]
1000849a:	60a0      	str	r0, [r4, #8]
1000849c:	4648      	mov	r0, r9
1000849e:	2800      	cmp	r0, #0
100084a0:	d111      	bne.n	100084c6 <_free_r+0x8e>
100084a2:	189b      	adds	r3, r3, r2
100084a4:	4855      	ldr	r0, [pc, #340]	@ (100085fc <_free_r+0x1c4>)
100084a6:	68ba      	ldr	r2, [r7, #8]
100084a8:	4282      	cmp	r2, r0
100084aa:	d100      	bne.n	100084ae <_free_r+0x76>
100084ac:	e07f      	b.n	100085ae <_free_r+0x176>
100084ae:	68f8      	ldr	r0, [r7, #12]
100084b0:	60d0      	str	r0, [r2, #12]
100084b2:	6082      	str	r2, [r0, #8]
100084b4:	2201      	movs	r2, #1
100084b6:	431a      	orrs	r2, r3
100084b8:	604a      	str	r2, [r1, #4]
100084ba:	50cb      	str	r3, [r1, r3]
100084bc:	e007      	b.n	100084ce <_free_r+0x96>
100084be:	4648      	mov	r0, r9
100084c0:	6840      	ldr	r0, [r0, #4]
100084c2:	4220      	tst	r0, r4
100084c4:	d0ed      	beq.n	100084a2 <_free_r+0x6a>
100084c6:	4662      	mov	r2, ip
100084c8:	431a      	orrs	r2, r3
100084ca:	604a      	str	r2, [r1, #4]
100084cc:	603b      	str	r3, [r7, #0]
100084ce:	2280      	movs	r2, #128	@ 0x80
100084d0:	0092      	lsls	r2, r2, #2
100084d2:	4293      	cmp	r3, r2
100084d4:	d214      	bcs.n	10008500 <_free_r+0xc8>
100084d6:	08da      	lsrs	r2, r3, #3
100084d8:	0958      	lsrs	r0, r3, #5
100084da:	2301      	movs	r3, #1
100084dc:	4083      	lsls	r3, r0
100084de:	6870      	ldr	r0, [r6, #4]
100084e0:	4303      	orrs	r3, r0
100084e2:	6073      	str	r3, [r6, #4]
100084e4:	00d3      	lsls	r3, r2, #3
100084e6:	199b      	adds	r3, r3, r6
100084e8:	689a      	ldr	r2, [r3, #8]
100084ea:	60cb      	str	r3, [r1, #12]
100084ec:	608a      	str	r2, [r1, #8]
100084ee:	6099      	str	r1, [r3, #8]
100084f0:	60d1      	str	r1, [r2, #12]
100084f2:	0028      	movs	r0, r5
100084f4:	f7fe fd4c 	bl	10006f90 <__malloc_unlock>
100084f8:	bcc0      	pop	{r6, r7}
100084fa:	46b9      	mov	r9, r7
100084fc:	46b0      	mov	r8, r6
100084fe:	bdf8      	pop	{r3, r4, r5, r6, r7, pc}
10008500:	0a5c      	lsrs	r4, r3, #9
10008502:	2c04      	cmp	r4, #4
10008504:	d83d      	bhi.n	10008582 <_free_r+0x14a>
10008506:	099c      	lsrs	r4, r3, #6
10008508:	0020      	movs	r0, r4
1000850a:	3439      	adds	r4, #57	@ 0x39
1000850c:	3038      	adds	r0, #56	@ 0x38
1000850e:	00e4      	lsls	r4, r4, #3
10008510:	1934      	adds	r4, r6, r4
10008512:	6822      	ldr	r2, [r4, #0]
10008514:	3c08      	subs	r4, #8
10008516:	2703      	movs	r7, #3
10008518:	4294      	cmp	r4, r2
1000851a:	d103      	bne.n	10008524 <_free_r+0xec>
1000851c:	e040      	b.n	100085a0 <_free_r+0x168>
1000851e:	6892      	ldr	r2, [r2, #8]
10008520:	4294      	cmp	r4, r2
10008522:	d003      	beq.n	1000852c <_free_r+0xf4>
10008524:	6850      	ldr	r0, [r2, #4]
10008526:	43b8      	bics	r0, r7
10008528:	4298      	cmp	r0, r3
1000852a:	d8f8      	bhi.n	1000851e <_free_r+0xe6>
1000852c:	68d4      	ldr	r4, [r2, #12]
1000852e:	60cc      	str	r4, [r1, #12]
10008530:	608a      	str	r2, [r1, #8]
10008532:	60a1      	str	r1, [r4, #8]
10008534:	60d1      	str	r1, [r2, #12]
10008536:	e7dc      	b.n	100084f2 <_free_r+0xba>
10008538:	2800      	cmp	r0, #0
1000853a:	d158      	bne.n	100085ee <_free_r+0x1b6>
1000853c:	68b8      	ldr	r0, [r7, #8]
1000853e:	18d2      	adds	r2, r2, r3
10008540:	68fb      	ldr	r3, [r7, #12]
10008542:	60c3      	str	r3, [r0, #12]
10008544:	6098      	str	r0, [r3, #8]
10008546:	4663      	mov	r3, ip
10008548:	4313      	orrs	r3, r2
1000854a:	604b      	str	r3, [r1, #4]
1000854c:	508a      	str	r2, [r1, r2]
1000854e:	e7d0      	b.n	100084f2 <_free_r+0xba>
10008550:	189a      	adds	r2, r3, r2
10008552:	4663      	mov	r3, ip
10008554:	4203      	tst	r3, r0
10008556:	d106      	bne.n	10008566 <_free_r+0x12e>
10008558:	680b      	ldr	r3, [r1, #0]
1000855a:	1ac9      	subs	r1, r1, r3
1000855c:	6888      	ldr	r0, [r1, #8]
1000855e:	18d2      	adds	r2, r2, r3
10008560:	68cb      	ldr	r3, [r1, #12]
10008562:	60c3      	str	r3, [r0, #12]
10008564:	6098      	str	r0, [r3, #8]
10008566:	2301      	movs	r3, #1
10008568:	4313      	orrs	r3, r2
1000856a:	604b      	str	r3, [r1, #4]
1000856c:	4b24      	ldr	r3, [pc, #144]	@ (10008600 <_free_r+0x1c8>)
1000856e:	60b1      	str	r1, [r6, #8]
10008570:	681b      	ldr	r3, [r3, #0]
10008572:	4293      	cmp	r3, r2
10008574:	d8bd      	bhi.n	100084f2 <_free_r+0xba>
10008576:	4b23      	ldr	r3, [pc, #140]	@ (10008604 <_free_r+0x1cc>)
10008578:	0028      	movs	r0, r5
1000857a:	6819      	ldr	r1, [r3, #0]
1000857c:	f7ff ff02 	bl	10008384 <_malloc_trim_r>
10008580:	e7b7      	b.n	100084f2 <_free_r+0xba>
10008582:	2c14      	cmp	r4, #20
10008584:	d907      	bls.n	10008596 <_free_r+0x15e>
10008586:	2c54      	cmp	r4, #84	@ 0x54
10008588:	d81a      	bhi.n	100085c0 <_free_r+0x188>
1000858a:	0b1c      	lsrs	r4, r3, #12
1000858c:	0020      	movs	r0, r4
1000858e:	346f      	adds	r4, #111	@ 0x6f
10008590:	306e      	adds	r0, #110	@ 0x6e
10008592:	00e4      	lsls	r4, r4, #3
10008594:	e7bc      	b.n	10008510 <_free_r+0xd8>
10008596:	0020      	movs	r0, r4
10008598:	345c      	adds	r4, #92	@ 0x5c
1000859a:	305b      	adds	r0, #91	@ 0x5b
1000859c:	00e4      	lsls	r4, r4, #3
1000859e:	e7b7      	b.n	10008510 <_free_r+0xd8>
100085a0:	2301      	movs	r3, #1
100085a2:	1080      	asrs	r0, r0, #2
100085a4:	4083      	lsls	r3, r0
100085a6:	6870      	ldr	r0, [r6, #4]
100085a8:	4303      	orrs	r3, r0
100085aa:	6073      	str	r3, [r6, #4]
100085ac:	e7bf      	b.n	1000852e <_free_r+0xf6>
100085ae:	60d1      	str	r1, [r2, #12]
100085b0:	6091      	str	r1, [r2, #8]
100085b2:	60ca      	str	r2, [r1, #12]
100085b4:	608a      	str	r2, [r1, #8]
100085b6:	2201      	movs	r2, #1
100085b8:	431a      	orrs	r2, r3
100085ba:	604a      	str	r2, [r1, #4]
100085bc:	50cb      	str	r3, [r1, r3]
100085be:	e798      	b.n	100084f2 <_free_r+0xba>
100085c0:	22aa      	movs	r2, #170	@ 0xaa
100085c2:	0052      	lsls	r2, r2, #1
100085c4:	4294      	cmp	r4, r2
100085c6:	d805      	bhi.n	100085d4 <_free_r+0x19c>
100085c8:	0bdc      	lsrs	r4, r3, #15
100085ca:	0020      	movs	r0, r4
100085cc:	3478      	adds	r4, #120	@ 0x78
100085ce:	3077      	adds	r0, #119	@ 0x77
100085d0:	00e4      	lsls	r4, r4, #3
100085d2:	e79d      	b.n	10008510 <_free_r+0xd8>
100085d4:	4a0c      	ldr	r2, [pc, #48]	@ (10008608 <_free_r+0x1d0>)
100085d6:	4294      	cmp	r4, r2
100085d8:	d805      	bhi.n	100085e6 <_free_r+0x1ae>
100085da:	0c9c      	lsrs	r4, r3, #18
100085dc:	0020      	movs	r0, r4
100085de:	347d      	adds	r4, #125	@ 0x7d
100085e0:	307c      	adds	r0, #124	@ 0x7c
100085e2:	00e4      	lsls	r4, r4, #3
100085e4:	e794      	b.n	10008510 <_free_r+0xd8>
100085e6:	24fe      	movs	r4, #254	@ 0xfe
100085e8:	207e      	movs	r0, #126	@ 0x7e
100085ea:	00a4      	lsls	r4, r4, #2
100085ec:	e790      	b.n	10008510 <_free_r+0xd8>
100085ee:	4662      	mov	r2, ip
100085f0:	431a      	orrs	r2, r3
100085f2:	604a      	str	r2, [r1, #4]
100085f4:	603b      	str	r3, [r7, #0]
100085f6:	e77c      	b.n	100084f2 <_free_r+0xba>
100085f8:	200001f8 	.word	0x200001f8
100085fc:	20000200 	.word	0x20000200
10008600:	200001f4 	.word	0x200001f4
10008604:	20000c5c 	.word	0x20000c5c
10008608:	00000554 	.word	0x00000554

1000860c <_strtol_l.constprop.0>:
1000860c:	b5f0      	push	{r4, r5, r6, r7, lr}
1000860e:	4657      	mov	r7, sl
10008610:	464e      	mov	r6, r9
10008612:	4645      	mov	r5, r8
10008614:	46de      	mov	lr, fp
10008616:	b5e0      	push	{r5, r6, r7, lr}
10008618:	4682      	mov	sl, r0
1000861a:	000f      	movs	r7, r1
1000861c:	4690      	mov	r8, r2
1000861e:	001e      	movs	r6, r3
10008620:	4699      	mov	r9, r3
10008622:	b083      	sub	sp, #12
10008624:	2b24      	cmp	r3, #36	@ 0x24
10008626:	d843      	bhi.n	100086b0 <_strtol_l.constprop.0+0xa4>
10008628:	2b01      	cmp	r3, #1
1000862a:	d041      	beq.n	100086b0 <_strtol_l.constprop.0+0xa4>
1000862c:	000b      	movs	r3, r1
1000862e:	2008      	movs	r0, #8
10008630:	4d4a      	ldr	r5, [pc, #296]	@ (1000875c <_strtol_l.constprop.0+0x150>)
10008632:	001a      	movs	r2, r3
10008634:	7814      	ldrb	r4, [r2, #0]
10008636:	3301      	adds	r3, #1
10008638:	5d29      	ldrb	r1, [r5, r4]
1000863a:	4208      	tst	r0, r1
1000863c:	d1f9      	bne.n	10008632 <_strtol_l.constprop.0+0x26>
1000863e:	001d      	movs	r5, r3
10008640:	2c2d      	cmp	r4, #45	@ 0x2d
10008642:	d100      	bne.n	10008646 <_strtol_l.constprop.0+0x3a>
10008644:	e076      	b.n	10008734 <_strtol_l.constprop.0+0x128>
10008646:	2c2b      	cmp	r4, #43	@ 0x2b
10008648:	d03e      	beq.n	100086c8 <_strtol_l.constprop.0+0xbc>
1000864a:	4b45      	ldr	r3, [pc, #276]	@ (10008760 <_strtol_l.constprop.0+0x154>)
1000864c:	469b      	mov	fp, r3
1000864e:	2300      	movs	r3, #0
10008650:	9301      	str	r3, [sp, #4]
10008652:	2e00      	cmp	r6, #0
10008654:	d153      	bne.n	100086fe <_strtol_l.constprop.0+0xf2>
10008656:	2c30      	cmp	r4, #48	@ 0x30
10008658:	d100      	bne.n	1000865c <_strtol_l.constprop.0+0x50>
1000865a:	e073      	b.n	10008744 <_strtol_l.constprop.0+0x138>
1000865c:	230a      	movs	r3, #10
1000865e:	4699      	mov	r9, r3
10008660:	360a      	adds	r6, #10
10008662:	4649      	mov	r1, r9
10008664:	4658      	mov	r0, fp
10008666:	f7f9 fde9 	bl	1000223c <__wrap___aeabi_uidiv>
1000866a:	002b      	movs	r3, r5
1000866c:	468c      	mov	ip, r1
1000866e:	003d      	movs	r5, r7
10008670:	0002      	movs	r2, r0
10008672:	0027      	movs	r7, r4
10008674:	2100      	movs	r1, #0
10008676:	464c      	mov	r4, r9
10008678:	2000      	movs	r0, #0
1000867a:	46e1      	mov	r9, ip
1000867c:	46ac      	mov	ip, r5
1000867e:	003d      	movs	r5, r7
10008680:	3d30      	subs	r5, #48	@ 0x30
10008682:	2d09      	cmp	r5, #9
10008684:	d907      	bls.n	10008696 <_strtol_l.constprop.0+0x8a>
10008686:	3d11      	subs	r5, #17
10008688:	2d19      	cmp	r5, #25
1000868a:	d903      	bls.n	10008694 <_strtol_l.constprop.0+0x88>
1000868c:	003d      	movs	r5, r7
1000868e:	3d61      	subs	r5, #97	@ 0x61
10008690:	2d19      	cmp	r5, #25
10008692:	d820      	bhi.n	100086d6 <_strtol_l.constprop.0+0xca>
10008694:	350a      	adds	r5, #10
10008696:	42ae      	cmp	r6, r5
10008698:	dd1d      	ble.n	100086d6 <_strtol_l.constprop.0+0xca>
1000869a:	1c4f      	adds	r7, r1, #1
1000869c:	d005      	beq.n	100086aa <_strtol_l.constprop.0+0x9e>
1000869e:	4282      	cmp	r2, r0
100086a0:	d32a      	bcc.n	100086f8 <_strtol_l.constprop.0+0xec>
100086a2:	d027      	beq.n	100086f4 <_strtol_l.constprop.0+0xe8>
100086a4:	2101      	movs	r1, #1
100086a6:	4360      	muls	r0, r4
100086a8:	1828      	adds	r0, r5, r0
100086aa:	781f      	ldrb	r7, [r3, #0]
100086ac:	3301      	adds	r3, #1
100086ae:	e7e6      	b.n	1000867e <_strtol_l.constprop.0+0x72>
100086b0:	f000 ff94 	bl	100095dc <__errno>
100086b4:	2316      	movs	r3, #22
100086b6:	6003      	str	r3, [r0, #0]
100086b8:	2000      	movs	r0, #0
100086ba:	b003      	add	sp, #12
100086bc:	bcf0      	pop	{r4, r5, r6, r7}
100086be:	46bb      	mov	fp, r7
100086c0:	46b2      	mov	sl, r6
100086c2:	46a9      	mov	r9, r5
100086c4:	46a0      	mov	r8, r4
100086c6:	bdf0      	pop	{r4, r5, r6, r7, pc}
100086c8:	781c      	ldrb	r4, [r3, #0]
100086ca:	4b25      	ldr	r3, [pc, #148]	@ (10008760 <_strtol_l.constprop.0+0x154>)
100086cc:	1c95      	adds	r5, r2, #2
100086ce:	469b      	mov	fp, r3
100086d0:	2300      	movs	r3, #0
100086d2:	9301      	str	r3, [sp, #4]
100086d4:	e7bd      	b.n	10008652 <_strtol_l.constprop.0+0x46>
100086d6:	4667      	mov	r7, ip
100086d8:	1c4a      	adds	r2, r1, #1
100086da:	d021      	beq.n	10008720 <_strtol_l.constprop.0+0x114>
100086dc:	9a01      	ldr	r2, [sp, #4]
100086de:	2a00      	cmp	r2, #0
100086e0:	d000      	beq.n	100086e4 <_strtol_l.constprop.0+0xd8>
100086e2:	4240      	negs	r0, r0
100086e4:	4642      	mov	r2, r8
100086e6:	2a00      	cmp	r2, #0
100086e8:	d0e7      	beq.n	100086ba <_strtol_l.constprop.0+0xae>
100086ea:	2900      	cmp	r1, #0
100086ec:	d133      	bne.n	10008756 <_strtol_l.constprop.0+0x14a>
100086ee:	4643      	mov	r3, r8
100086f0:	601f      	str	r7, [r3, #0]
100086f2:	e7e2      	b.n	100086ba <_strtol_l.constprop.0+0xae>
100086f4:	45a9      	cmp	r9, r5
100086f6:	dad5      	bge.n	100086a4 <_strtol_l.constprop.0+0x98>
100086f8:	2101      	movs	r1, #1
100086fa:	4249      	negs	r1, r1
100086fc:	e7d5      	b.n	100086aa <_strtol_l.constprop.0+0x9e>
100086fe:	2e10      	cmp	r6, #16
10008700:	d1af      	bne.n	10008662 <_strtol_l.constprop.0+0x56>
10008702:	2310      	movs	r3, #16
10008704:	4699      	mov	r9, r3
10008706:	2c30      	cmp	r4, #48	@ 0x30
10008708:	d1ab      	bne.n	10008662 <_strtol_l.constprop.0+0x56>
1000870a:	2220      	movs	r2, #32
1000870c:	782b      	ldrb	r3, [r5, #0]
1000870e:	4393      	bics	r3, r2
10008710:	2b58      	cmp	r3, #88	@ 0x58
10008712:	d1a6      	bne.n	10008662 <_strtol_l.constprop.0+0x56>
10008714:	2310      	movs	r3, #16
10008716:	786c      	ldrb	r4, [r5, #1]
10008718:	4699      	mov	r9, r3
1000871a:	2610      	movs	r6, #16
1000871c:	3502      	adds	r5, #2
1000871e:	e7a0      	b.n	10008662 <_strtol_l.constprop.0+0x56>
10008720:	2222      	movs	r2, #34	@ 0x22
10008722:	4651      	mov	r1, sl
10008724:	600a      	str	r2, [r1, #0]
10008726:	4642      	mov	r2, r8
10008728:	4658      	mov	r0, fp
1000872a:	2a00      	cmp	r2, #0
1000872c:	d0c5      	beq.n	100086ba <_strtol_l.constprop.0+0xae>
1000872e:	4658      	mov	r0, fp
10008730:	1e5f      	subs	r7, r3, #1
10008732:	e7dc      	b.n	100086ee <_strtol_l.constprop.0+0xe2>
10008734:	781c      	ldrb	r4, [r3, #0]
10008736:	2380      	movs	r3, #128	@ 0x80
10008738:	061b      	lsls	r3, r3, #24
1000873a:	469b      	mov	fp, r3
1000873c:	2301      	movs	r3, #1
1000873e:	1c95      	adds	r5, r2, #2
10008740:	9301      	str	r3, [sp, #4]
10008742:	e786      	b.n	10008652 <_strtol_l.constprop.0+0x46>
10008744:	2220      	movs	r2, #32
10008746:	782b      	ldrb	r3, [r5, #0]
10008748:	4393      	bics	r3, r2
1000874a:	2b58      	cmp	r3, #88	@ 0x58
1000874c:	d0e2      	beq.n	10008714 <_strtol_l.constprop.0+0x108>
1000874e:	2308      	movs	r3, #8
10008750:	2608      	movs	r6, #8
10008752:	4699      	mov	r9, r3
10008754:	e785      	b.n	10008662 <_strtol_l.constprop.0+0x56>
10008756:	4683      	mov	fp, r0
10008758:	e7e9      	b.n	1000872e <_strtol_l.constprop.0+0x122>
1000875a:	46c0      	nop			@ (mov r8, r8)
1000875c:	1000b675 	.word	0x1000b675
10008760:	7fffffff 	.word	0x7fffffff

10008764 <_strtol_r>:
10008764:	b510      	push	{r4, lr}
10008766:	f7ff ff51 	bl	1000860c <_strtol_l.constprop.0>
1000876a:	bd10      	pop	{r4, pc}

1000876c <rshift>:
1000876c:	b5f0      	push	{r4, r5, r6, r7, lr}
1000876e:	46d6      	mov	lr, sl
10008770:	464f      	mov	r7, r9
10008772:	4646      	mov	r6, r8
10008774:	6903      	ldr	r3, [r0, #16]
10008776:	b5c0      	push	{r6, r7, lr}
10008778:	000a      	movs	r2, r1
1000877a:	469a      	mov	sl, r3
1000877c:	114f      	asrs	r7, r1, #5
1000877e:	42bb      	cmp	r3, r7
10008780:	dc08      	bgt.n	10008794 <rshift+0x28>
10008782:	2300      	movs	r3, #0
10008784:	6103      	str	r3, [r0, #16]
10008786:	2300      	movs	r3, #0
10008788:	6143      	str	r3, [r0, #20]
1000878a:	bce0      	pop	{r5, r6, r7}
1000878c:	46ba      	mov	sl, r7
1000878e:	46b1      	mov	r9, r6
10008790:	46a8      	mov	r8, r5
10008792:	bdf0      	pop	{r4, r5, r6, r7, pc}
10008794:	211f      	movs	r1, #31
10008796:	468c      	mov	ip, r1
10008798:	0006      	movs	r6, r0
1000879a:	4664      	mov	r4, ip
1000879c:	3614      	adds	r6, #20
1000879e:	009d      	lsls	r5, r3, #2
100087a0:	00bb      	lsls	r3, r7, #2
100087a2:	1975      	adds	r5, r6, r5
100087a4:	18f3      	adds	r3, r6, r3
100087a6:	4011      	ands	r1, r2
100087a8:	4214      	tst	r4, r2
100087aa:	d01f      	beq.n	100087ec <rshift+0x80>
100087ac:	2220      	movs	r2, #32
100087ae:	1a52      	subs	r2, r2, r1
100087b0:	4694      	mov	ip, r2
100087b2:	cb04      	ldmia	r3!, {r2}
100087b4:	40ca      	lsrs	r2, r1
100087b6:	4690      	mov	r8, r2
100087b8:	429d      	cmp	r5, r3
100087ba:	d928      	bls.n	1000880e <rshift+0xa2>
100087bc:	46b1      	mov	r9, r6
100087be:	4664      	mov	r4, ip
100087c0:	681a      	ldr	r2, [r3, #0]
100087c2:	40a2      	lsls	r2, r4
100087c4:	4644      	mov	r4, r8
100087c6:	4322      	orrs	r2, r4
100087c8:	464c      	mov	r4, r9
100087ca:	c404      	stmia	r4!, {r2}
100087cc:	cb04      	ldmia	r3!, {r2}
100087ce:	46a1      	mov	r9, r4
100087d0:	40ca      	lsrs	r2, r1
100087d2:	4690      	mov	r8, r2
100087d4:	429d      	cmp	r5, r3
100087d6:	d8f2      	bhi.n	100087be <rshift+0x52>
100087d8:	4653      	mov	r3, sl
100087da:	1bdc      	subs	r4, r3, r7
100087dc:	00a4      	lsls	r4, r4, #2
100087de:	3c04      	subs	r4, #4
100087e0:	1934      	adds	r4, r6, r4
100087e2:	6022      	str	r2, [r4, #0]
100087e4:	2a00      	cmp	r2, #0
100087e6:	d00c      	beq.n	10008802 <rshift+0x96>
100087e8:	3404      	adds	r4, #4
100087ea:	e00a      	b.n	10008802 <rshift+0x96>
100087ec:	0032      	movs	r2, r6
100087ee:	429d      	cmp	r5, r3
100087f0:	d9c7      	bls.n	10008782 <rshift+0x16>
100087f2:	cb02      	ldmia	r3!, {r1}
100087f4:	c202      	stmia	r2!, {r1}
100087f6:	429d      	cmp	r5, r3
100087f8:	d8fb      	bhi.n	100087f2 <rshift+0x86>
100087fa:	4653      	mov	r3, sl
100087fc:	1bdc      	subs	r4, r3, r7
100087fe:	00a4      	lsls	r4, r4, #2
10008800:	1934      	adds	r4, r6, r4
10008802:	1ba3      	subs	r3, r4, r6
10008804:	109b      	asrs	r3, r3, #2
10008806:	6103      	str	r3, [r0, #16]
10008808:	42b4      	cmp	r4, r6
1000880a:	d1be      	bne.n	1000878a <rshift+0x1e>
1000880c:	e7bb      	b.n	10008786 <rshift+0x1a>
1000880e:	6142      	str	r2, [r0, #20]
10008810:	2a00      	cmp	r2, #0
10008812:	d0b6      	beq.n	10008782 <rshift+0x16>
10008814:	0034      	movs	r4, r6
10008816:	3404      	adds	r4, #4
10008818:	e7f3      	b.n	10008802 <rshift+0x96>
1000881a:	46c0      	nop			@ (mov r8, r8)

1000881c <__gethex>:
1000881c:	b5f0      	push	{r4, r5, r6, r7, lr}
1000881e:	46de      	mov	lr, fp
10008820:	4645      	mov	r5, r8
10008822:	4657      	mov	r7, sl
10008824:	464e      	mov	r6, r9
10008826:	b5e0      	push	{r5, r6, r7, lr}
10008828:	4688      	mov	r8, r1
1000882a:	6809      	ldr	r1, [r1, #0]
1000882c:	4693      	mov	fp, r2
1000882e:	788a      	ldrb	r2, [r1, #2]
10008830:	b087      	sub	sp, #28
10008832:	9003      	str	r0, [sp, #12]
10008834:	9305      	str	r3, [sp, #20]
10008836:	2a30      	cmp	r2, #48	@ 0x30
10008838:	d000      	beq.n	1000883c <__gethex+0x20>
1000883a:	e1ed      	b.n	10008c18 <__gethex+0x3fc>
1000883c:	1ccb      	adds	r3, r1, #3
1000883e:	001d      	movs	r5, r3
10008840:	3301      	adds	r3, #1
10008842:	1e5a      	subs	r2, r3, #1
10008844:	7812      	ldrb	r2, [r2, #0]
10008846:	2a30      	cmp	r2, #48	@ 0x30
10008848:	d0f9      	beq.n	1000883e <__gethex+0x22>
1000884a:	1a69      	subs	r1, r5, r1
1000884c:	1e8b      	subs	r3, r1, #2
1000884e:	469a      	mov	sl, r3
10008850:	4fc3      	ldr	r7, [pc, #780]	@ (10008b60 <__gethex+0x344>)
10008852:	5cbb      	ldrb	r3, [r7, r2]
10008854:	2b00      	cmp	r3, #0
10008856:	d100      	bne.n	1000885a <__gethex+0x3e>
10008858:	e0ee      	b.n	10008a38 <__gethex+0x21c>
1000885a:	2200      	movs	r2, #0
1000885c:	2400      	movs	r4, #0
1000885e:	782b      	ldrb	r3, [r5, #0]
10008860:	4691      	mov	r9, r2
10008862:	4ac0      	ldr	r2, [pc, #768]	@ (10008b64 <__gethex+0x348>)
10008864:	5cfb      	ldrb	r3, [r7, r3]
10008866:	9202      	str	r2, [sp, #8]
10008868:	2b00      	cmp	r3, #0
1000886a:	d100      	bne.n	1000886e <__gethex+0x52>
1000886c:	e159      	b.n	10008b22 <__gethex+0x306>
1000886e:	002e      	movs	r6, r5
10008870:	7873      	ldrb	r3, [r6, #1]
10008872:	3601      	adds	r6, #1
10008874:	5cfb      	ldrb	r3, [r7, r3]
10008876:	2b00      	cmp	r3, #0
10008878:	d1fa      	bne.n	10008870 <__gethex+0x54>
1000887a:	2201      	movs	r2, #1
1000887c:	0030      	movs	r0, r6
1000887e:	9902      	ldr	r1, [sp, #8]
10008880:	f7fc fb34 	bl	10004eec <strncmp>
10008884:	9001      	str	r0, [sp, #4]
10008886:	2800      	cmp	r0, #0
10008888:	d052      	beq.n	10008930 <__gethex+0x114>
1000888a:	2200      	movs	r2, #0
1000888c:	7833      	ldrb	r3, [r6, #0]
1000888e:	9201      	str	r2, [sp, #4]
10008890:	2c00      	cmp	r4, #0
10008892:	d002      	beq.n	1000889a <__gethex+0x7e>
10008894:	1ba4      	subs	r4, r4, r6
10008896:	00a2      	lsls	r2, r4, #2
10008898:	9201      	str	r2, [sp, #4]
1000889a:	2220      	movs	r2, #32
1000889c:	0034      	movs	r4, r6
1000889e:	4393      	bics	r3, r2
100088a0:	2b50      	cmp	r3, #80	@ 0x50
100088a2:	d051      	beq.n	10008948 <__gethex+0x12c>
100088a4:	4643      	mov	r3, r8
100088a6:	601e      	str	r6, [r3, #0]
100088a8:	464b      	mov	r3, r9
100088aa:	2b00      	cmp	r3, #0
100088ac:	d17d      	bne.n	100089aa <__gethex+0x18e>
100088ae:	1b63      	subs	r3, r4, r5
100088b0:	3b01      	subs	r3, #1
100088b2:	2100      	movs	r1, #0
100088b4:	2b07      	cmp	r3, #7
100088b6:	dd03      	ble.n	100088c0 <__gethex+0xa4>
100088b8:	3101      	adds	r1, #1
100088ba:	105b      	asrs	r3, r3, #1
100088bc:	2b07      	cmp	r3, #7
100088be:	dcfb      	bgt.n	100088b8 <__gethex+0x9c>
100088c0:	9803      	ldr	r0, [sp, #12]
100088c2:	f001 f88d 	bl	100099e0 <_Balloc>
100088c6:	4682      	mov	sl, r0
100088c8:	2800      	cmp	r0, #0
100088ca:	d100      	bne.n	100088ce <__gethex+0xb2>
100088cc:	e262      	b.n	10008d94 <__gethex+0x578>
100088ce:	2314      	movs	r3, #20
100088d0:	4453      	add	r3, sl
100088d2:	9304      	str	r3, [sp, #16]
100088d4:	42ac      	cmp	r4, r5
100088d6:	d800      	bhi.n	100088da <__gethex+0xbe>
100088d8:	e1ab      	b.n	10008c32 <__gethex+0x416>
100088da:	4698      	mov	r8, r3
100088dc:	2300      	movs	r3, #0
100088de:	4699      	mov	r9, r3
100088e0:	003b      	movs	r3, r7
100088e2:	2600      	movs	r6, #0
100088e4:	4647      	mov	r7, r8
100088e6:	46a8      	mov	r8, r5
100088e8:	464d      	mov	r5, r9
100088ea:	4699      	mov	r9, r3
100088ec:	e00c      	b.n	10008908 <__gethex+0xec>
100088ee:	2e20      	cmp	r6, #32
100088f0:	d019      	beq.n	10008926 <__gethex+0x10a>
100088f2:	0032      	movs	r2, r6
100088f4:	3604      	adds	r6, #4
100088f6:	4649      	mov	r1, r9
100088f8:	7823      	ldrb	r3, [r4, #0]
100088fa:	5ccb      	ldrb	r3, [r1, r3]
100088fc:	210f      	movs	r1, #15
100088fe:	400b      	ands	r3, r1
10008900:	4093      	lsls	r3, r2
10008902:	431d      	orrs	r5, r3
10008904:	4544      	cmp	r4, r8
10008906:	d05e      	beq.n	100089c6 <__gethex+0x1aa>
10008908:	3c01      	subs	r4, #1
1000890a:	7823      	ldrb	r3, [r4, #0]
1000890c:	2b2e      	cmp	r3, #46	@ 0x2e
1000890e:	d1ee      	bne.n	100088ee <__gethex+0xd2>
10008910:	4544      	cmp	r4, r8
10008912:	d3ec      	bcc.n	100088ee <__gethex+0xd2>
10008914:	2201      	movs	r2, #1
10008916:	0020      	movs	r0, r4
10008918:	9902      	ldr	r1, [sp, #8]
1000891a:	f7fc fae7 	bl	10004eec <strncmp>
1000891e:	2800      	cmp	r0, #0
10008920:	d0f0      	beq.n	10008904 <__gethex+0xe8>
10008922:	2e20      	cmp	r6, #32
10008924:	d1e5      	bne.n	100088f2 <__gethex+0xd6>
10008926:	c720      	stmia	r7!, {r5}
10008928:	2200      	movs	r2, #0
1000892a:	2604      	movs	r6, #4
1000892c:	2500      	movs	r5, #0
1000892e:	e7e2      	b.n	100088f6 <__gethex+0xda>
10008930:	2c00      	cmp	r4, #0
10008932:	d100      	bne.n	10008936 <__gethex+0x11a>
10008934:	e163      	b.n	10008bfe <__gethex+0x3e2>
10008936:	2220      	movs	r2, #32
10008938:	1ba4      	subs	r4, r4, r6
1000893a:	00a3      	lsls	r3, r4, #2
1000893c:	9301      	str	r3, [sp, #4]
1000893e:	7833      	ldrb	r3, [r6, #0]
10008940:	0034      	movs	r4, r6
10008942:	4393      	bics	r3, r2
10008944:	2b50      	cmp	r3, #80	@ 0x50
10008946:	d1ad      	bne.n	100088a4 <__gethex+0x88>
10008948:	7863      	ldrb	r3, [r4, #1]
1000894a:	2b2b      	cmp	r3, #43	@ 0x2b
1000894c:	d100      	bne.n	10008950 <__gethex+0x134>
1000894e:	e146      	b.n	10008bde <__gethex+0x3c2>
10008950:	2b2d      	cmp	r3, #45	@ 0x2d
10008952:	d100      	bne.n	10008956 <__gethex+0x13a>
10008954:	e0a3      	b.n	10008a9e <__gethex+0x282>
10008956:	2200      	movs	r2, #0
10008958:	1c61      	adds	r1, r4, #1
1000895a:	5cfb      	ldrb	r3, [r7, r3]
1000895c:	0026      	movs	r6, r4
1000895e:	1e58      	subs	r0, r3, #1
10008960:	2818      	cmp	r0, #24
10008962:	d89f      	bhi.n	100088a4 <__gethex+0x88>
10008964:	1c4e      	adds	r6, r1, #1
10008966:	7849      	ldrb	r1, [r1, #1]
10008968:	3b10      	subs	r3, #16
1000896a:	5c79      	ldrb	r1, [r7, r1]
1000896c:	0018      	movs	r0, r3
1000896e:	2900      	cmp	r1, #0
10008970:	d00e      	beq.n	10008990 <__gethex+0x174>
10008972:	2919      	cmp	r1, #25
10008974:	dc0b      	bgt.n	1000898e <__gethex+0x172>
10008976:	0083      	lsls	r3, r0, #2
10008978:	181b      	adds	r3, r3, r0
1000897a:	005b      	lsls	r3, r3, #1
1000897c:	3601      	adds	r6, #1
1000897e:	1858      	adds	r0, r3, r1
10008980:	7833      	ldrb	r3, [r6, #0]
10008982:	3810      	subs	r0, #16
10008984:	5cf9      	ldrb	r1, [r7, r3]
10008986:	2900      	cmp	r1, #0
10008988:	d001      	beq.n	1000898e <__gethex+0x172>
1000898a:	2919      	cmp	r1, #25
1000898c:	ddf3      	ble.n	10008976 <__gethex+0x15a>
1000898e:	0003      	movs	r3, r0
10008990:	2a00      	cmp	r2, #0
10008992:	d000      	beq.n	10008996 <__gethex+0x17a>
10008994:	425b      	negs	r3, r3
10008996:	9a01      	ldr	r2, [sp, #4]
10008998:	4694      	mov	ip, r2
1000899a:	449c      	add	ip, r3
1000899c:	4663      	mov	r3, ip
1000899e:	9301      	str	r3, [sp, #4]
100089a0:	4643      	mov	r3, r8
100089a2:	601e      	str	r6, [r3, #0]
100089a4:	464b      	mov	r3, r9
100089a6:	2b00      	cmp	r3, #0
100089a8:	d081      	beq.n	100088ae <__gethex+0x92>
100089aa:	4653      	mov	r3, sl
100089ac:	425a      	negs	r2, r3
100089ae:	4153      	adcs	r3, r2
100089b0:	2406      	movs	r4, #6
100089b2:	425b      	negs	r3, r3
100089b4:	401c      	ands	r4, r3
100089b6:	0020      	movs	r0, r4
100089b8:	b007      	add	sp, #28
100089ba:	bcf0      	pop	{r4, r5, r6, r7}
100089bc:	46bb      	mov	fp, r7
100089be:	46b2      	mov	sl, r6
100089c0:	46a9      	mov	r9, r5
100089c2:	46a0      	mov	r8, r4
100089c4:	bdf0      	pop	{r4, r5, r6, r7, pc}
100089c6:	46a9      	mov	r9, r5
100089c8:	46b8      	mov	r8, r7
100089ca:	4646      	mov	r6, r8
100089cc:	464b      	mov	r3, r9
100089ce:	c608      	stmia	r6!, {r3}
100089d0:	9b04      	ldr	r3, [sp, #16]
100089d2:	4648      	mov	r0, r9
100089d4:	1af6      	subs	r6, r6, r3
100089d6:	4653      	mov	r3, sl
100089d8:	10b6      	asrs	r6, r6, #2
100089da:	611e      	str	r6, [r3, #16]
100089dc:	f001 f8de 	bl	10009b9c <__hi0bits>
100089e0:	465b      	mov	r3, fp
100089e2:	681d      	ldr	r5, [r3, #0]
100089e4:	0176      	lsls	r6, r6, #5
100089e6:	1a30      	subs	r0, r6, r0
100089e8:	42a8      	cmp	r0, r5
100089ea:	dc5c      	bgt.n	10008aa6 <__gethex+0x28a>
100089ec:	2600      	movs	r6, #0
100089ee:	42a8      	cmp	r0, r5
100089f0:	da00      	bge.n	100089f4 <__gethex+0x1d8>
100089f2:	e0f6      	b.n	10008be2 <__gethex+0x3c6>
100089f4:	465b      	mov	r3, fp
100089f6:	9a01      	ldr	r2, [sp, #4]
100089f8:	689b      	ldr	r3, [r3, #8]
100089fa:	4293      	cmp	r3, r2
100089fc:	da00      	bge.n	10008a00 <__gethex+0x1e4>
100089fe:	e10f      	b.n	10008c20 <__gethex+0x404>
10008a00:	465b      	mov	r3, fp
10008a02:	9a01      	ldr	r2, [sp, #4]
10008a04:	685b      	ldr	r3, [r3, #4]
10008a06:	4293      	cmp	r3, r2
10008a08:	dd34      	ble.n	10008a74 <__gethex+0x258>
10008a0a:	1a9c      	subs	r4, r3, r2
10008a0c:	42a5      	cmp	r5, r4
10008a0e:	dc6b      	bgt.n	10008ae8 <__gethex+0x2cc>
10008a10:	465a      	mov	r2, fp
10008a12:	68d2      	ldr	r2, [r2, #12]
10008a14:	2a02      	cmp	r2, #2
10008a16:	d100      	bne.n	10008a1a <__gethex+0x1fe>
10008a18:	e145      	b.n	10008ca6 <__gethex+0x48a>
10008a1a:	2a03      	cmp	r2, #3
10008a1c:	d100      	bne.n	10008a20 <__gethex+0x204>
10008a1e:	e13d      	b.n	10008c9c <__gethex+0x480>
10008a20:	2a01      	cmp	r2, #1
10008a22:	d100      	bne.n	10008a26 <__gethex+0x20a>
10008a24:	e120      	b.n	10008c68 <__gethex+0x44c>
10008a26:	4651      	mov	r1, sl
10008a28:	9803      	ldr	r0, [sp, #12]
10008a2a:	f001 f801 	bl	10009a30 <_Bfree>
10008a2e:	2300      	movs	r3, #0
10008a30:	9a10      	ldr	r2, [sp, #64]	@ 0x40
10008a32:	2450      	movs	r4, #80	@ 0x50
10008a34:	6013      	str	r3, [r2, #0]
10008a36:	e7be      	b.n	100089b6 <__gethex+0x19a>
10008a38:	4b4a      	ldr	r3, [pc, #296]	@ (10008b64 <__gethex+0x348>)
10008a3a:	2201      	movs	r2, #1
10008a3c:	0019      	movs	r1, r3
10008a3e:	0028      	movs	r0, r5
10008a40:	9302      	str	r3, [sp, #8]
10008a42:	f7fc fa53 	bl	10004eec <strncmp>
10008a46:	4681      	mov	r9, r0
10008a48:	2800      	cmp	r0, #0
10008a4a:	d16c      	bne.n	10008b26 <__gethex+0x30a>
10008a4c:	786b      	ldrb	r3, [r5, #1]
10008a4e:	1c6c      	adds	r4, r5, #1
10008a50:	5cfa      	ldrb	r2, [r7, r3]
10008a52:	2a00      	cmp	r2, #0
10008a54:	d069      	beq.n	10008b2a <__gethex+0x30e>
10008a56:	0025      	movs	r5, r4
10008a58:	2b30      	cmp	r3, #48	@ 0x30
10008a5a:	d000      	beq.n	10008a5e <__gethex+0x242>
10008a5c:	e14f      	b.n	10008cfe <__gethex+0x4e2>
10008a5e:	786b      	ldrb	r3, [r5, #1]
10008a60:	3501      	adds	r5, #1
10008a62:	2b30      	cmp	r3, #48	@ 0x30
10008a64:	d0fb      	beq.n	10008a5e <__gethex+0x242>
10008a66:	5cfb      	ldrb	r3, [r7, r3]
10008a68:	4259      	negs	r1, r3
10008a6a:	4159      	adcs	r1, r3
10008a6c:	2201      	movs	r2, #1
10008a6e:	4689      	mov	r9, r1
10008a70:	4692      	mov	sl, r2
10008a72:	e6f9      	b.n	10008868 <__gethex+0x4c>
10008a74:	2401      	movs	r4, #1
10008a76:	2e00      	cmp	r6, #0
10008a78:	d00a      	beq.n	10008a90 <__gethex+0x274>
10008a7a:	465b      	mov	r3, fp
10008a7c:	68db      	ldr	r3, [r3, #12]
10008a7e:	2b02      	cmp	r3, #2
10008a80:	d05b      	beq.n	10008b3a <__gethex+0x31e>
10008a82:	2b03      	cmp	r3, #3
10008a84:	d05d      	beq.n	10008b42 <__gethex+0x326>
10008a86:	2b01      	cmp	r3, #1
10008a88:	d100      	bne.n	10008a8c <__gethex+0x270>
10008a8a:	e09f      	b.n	10008bcc <__gethex+0x3b0>
10008a8c:	2310      	movs	r3, #16
10008a8e:	431c      	orrs	r4, r3
10008a90:	4652      	mov	r2, sl
10008a92:	9b10      	ldr	r3, [sp, #64]	@ 0x40
10008a94:	601a      	str	r2, [r3, #0]
10008a96:	9b05      	ldr	r3, [sp, #20]
10008a98:	9a01      	ldr	r2, [sp, #4]
10008a9a:	601a      	str	r2, [r3, #0]
10008a9c:	e78b      	b.n	100089b6 <__gethex+0x19a>
10008a9e:	2201      	movs	r2, #1
10008aa0:	78a3      	ldrb	r3, [r4, #2]
10008aa2:	1ca1      	adds	r1, r4, #2
10008aa4:	e759      	b.n	1000895a <__gethex+0x13e>
10008aa6:	1b44      	subs	r4, r0, r5
10008aa8:	0021      	movs	r1, r4
10008aaa:	4650      	mov	r0, sl
10008aac:	f001 fcde 	bl	1000a46c <__any_on>
10008ab0:	1e06      	subs	r6, r0, #0
10008ab2:	d00f      	beq.n	10008ad4 <__gethex+0x2b8>
10008ab4:	211f      	movs	r1, #31
10008ab6:	2301      	movs	r3, #1
10008ab8:	1e60      	subs	r0, r4, #1
10008aba:	4001      	ands	r1, r0
10008abc:	408b      	lsls	r3, r1
10008abe:	1142      	asrs	r2, r0, #5
10008ac0:	9904      	ldr	r1, [sp, #16]
10008ac2:	0092      	lsls	r2, r2, #2
10008ac4:	588a      	ldr	r2, [r1, r2]
10008ac6:	2601      	movs	r6, #1
10008ac8:	421a      	tst	r2, r3
10008aca:	d003      	beq.n	10008ad4 <__gethex+0x2b8>
10008acc:	2801      	cmp	r0, #1
10008ace:	dd00      	ble.n	10008ad2 <__gethex+0x2b6>
10008ad0:	e0bc      	b.n	10008c4c <__gethex+0x430>
10008ad2:	2602      	movs	r6, #2
10008ad4:	0021      	movs	r1, r4
10008ad6:	4650      	mov	r0, sl
10008ad8:	f7ff fe48 	bl	1000876c <rshift>
10008adc:	9b01      	ldr	r3, [sp, #4]
10008ade:	469c      	mov	ip, r3
10008ae0:	44a4      	add	ip, r4
10008ae2:	4663      	mov	r3, ip
10008ae4:	9301      	str	r3, [sp, #4]
10008ae6:	e785      	b.n	100089f4 <__gethex+0x1d8>
10008ae8:	1e67      	subs	r7, r4, #1
10008aea:	2e00      	cmp	r6, #0
10008aec:	d000      	beq.n	10008af0 <__gethex+0x2d4>
10008aee:	e0a5      	b.n	10008c3c <__gethex+0x420>
10008af0:	2f00      	cmp	r7, #0
10008af2:	d000      	beq.n	10008af6 <__gethex+0x2da>
10008af4:	e0a4      	b.n	10008c40 <__gethex+0x424>
10008af6:	211f      	movs	r1, #31
10008af8:	2301      	movs	r3, #1
10008afa:	4039      	ands	r1, r7
10008afc:	408b      	lsls	r3, r1
10008afe:	117a      	asrs	r2, r7, #5
10008b00:	9904      	ldr	r1, [sp, #16]
10008b02:	0092      	lsls	r2, r2, #2
10008b04:	588a      	ldr	r2, [r1, r2]
10008b06:	421a      	tst	r2, r3
10008b08:	d001      	beq.n	10008b0e <__gethex+0x2f2>
10008b0a:	2302      	movs	r3, #2
10008b0c:	431e      	orrs	r6, r3
10008b0e:	0021      	movs	r1, r4
10008b10:	4650      	mov	r0, sl
10008b12:	f7ff fe2b 	bl	1000876c <rshift>
10008b16:	465b      	mov	r3, fp
10008b18:	685b      	ldr	r3, [r3, #4]
10008b1a:	1b2d      	subs	r5, r5, r4
10008b1c:	9301      	str	r3, [sp, #4]
10008b1e:	2402      	movs	r4, #2
10008b20:	e7a9      	b.n	10008a76 <__gethex+0x25a>
10008b22:	002e      	movs	r6, r5
10008b24:	e6a9      	b.n	1000887a <__gethex+0x5e>
10008b26:	002c      	movs	r4, r5
10008b28:	782b      	ldrb	r3, [r5, #0]
10008b2a:	2220      	movs	r2, #32
10008b2c:	4393      	bics	r3, r2
10008b2e:	2b50      	cmp	r3, #80	@ 0x50
10008b30:	d100      	bne.n	10008b34 <__gethex+0x318>
10008b32:	e094      	b.n	10008c5e <__gethex+0x442>
10008b34:	4643      	mov	r3, r8
10008b36:	601c      	str	r4, [r3, #0]
10008b38:	e737      	b.n	100089aa <__gethex+0x18e>
10008b3a:	2301      	movs	r3, #1
10008b3c:	9a11      	ldr	r2, [sp, #68]	@ 0x44
10008b3e:	1a9b      	subs	r3, r3, r2
10008b40:	9311      	str	r3, [sp, #68]	@ 0x44
10008b42:	9b11      	ldr	r3, [sp, #68]	@ 0x44
10008b44:	2b00      	cmp	r3, #0
10008b46:	d0a1      	beq.n	10008a8c <__gethex+0x270>
10008b48:	4653      	mov	r3, sl
10008b4a:	691f      	ldr	r7, [r3, #16]
10008b4c:	9e04      	ldr	r6, [sp, #16]
10008b4e:	00bb      	lsls	r3, r7, #2
10008b50:	18f0      	adds	r0, r6, r3
10008b52:	4699      	mov	r9, r3
10008b54:	46bc      	mov	ip, r7
10008b56:	0033      	movs	r3, r6
10008b58:	2100      	movs	r1, #0
10008b5a:	0007      	movs	r7, r0
10008b5c:	e008      	b.n	10008b70 <__gethex+0x354>
10008b5e:	46c0      	nop			@ (mov r8, r8)
10008b60:	1000b920 	.word	0x1000b920
10008b64:	1000b62c 	.word	0x1000b62c
10008b68:	c302      	stmia	r3!, {r1}
10008b6a:	429f      	cmp	r7, r3
10008b6c:	d800      	bhi.n	10008b70 <__gethex+0x354>
10008b6e:	e09f      	b.n	10008cb0 <__gethex+0x494>
10008b70:	681a      	ldr	r2, [r3, #0]
10008b72:	1c50      	adds	r0, r2, #1
10008b74:	d0f8      	beq.n	10008b68 <__gethex+0x34c>
10008b76:	3201      	adds	r2, #1
10008b78:	601a      	str	r2, [r3, #0]
10008b7a:	2c02      	cmp	r4, #2
10008b7c:	d100      	bne.n	10008b80 <__gethex+0x364>
10008b7e:	e0ab      	b.n	10008cd8 <__gethex+0x4bc>
10008b80:	231f      	movs	r3, #31
10008b82:	001f      	movs	r7, r3
10008b84:	2421      	movs	r4, #33	@ 0x21
10008b86:	402f      	ands	r7, r5
10008b88:	422b      	tst	r3, r5
10008b8a:	d100      	bne.n	10008b8e <__gethex+0x372>
10008b8c:	e780      	b.n	10008a90 <__gethex+0x274>
10008b8e:	464b      	mov	r3, r9
10008b90:	18f3      	adds	r3, r6, r3
10008b92:	3b04      	subs	r3, #4
10008b94:	6818      	ldr	r0, [r3, #0]
10008b96:	f001 f801 	bl	10009b9c <__hi0bits>
10008b9a:	2320      	movs	r3, #32
10008b9c:	1bdb      	subs	r3, r3, r7
10008b9e:	4298      	cmp	r0, r3
10008ba0:	db00      	blt.n	10008ba4 <__gethex+0x388>
10008ba2:	e775      	b.n	10008a90 <__gethex+0x274>
10008ba4:	4653      	mov	r3, sl
10008ba6:	691a      	ldr	r2, [r3, #16]
10008ba8:	2a00      	cmp	r2, #0
10008baa:	dd00      	ble.n	10008bae <__gethex+0x392>
10008bac:	e0c6      	b.n	10008d3c <__gethex+0x520>
10008bae:	2300      	movs	r3, #0
10008bb0:	4652      	mov	r2, sl
10008bb2:	6113      	str	r3, [r2, #16]
10008bb4:	2300      	movs	r3, #0
10008bb6:	4652      	mov	r2, sl
10008bb8:	6153      	str	r3, [r2, #20]
10008bba:	465b      	mov	r3, fp
10008bbc:	9a01      	ldr	r2, [sp, #4]
10008bbe:	689b      	ldr	r3, [r3, #8]
10008bc0:	3201      	adds	r2, #1
10008bc2:	9201      	str	r2, [sp, #4]
10008bc4:	4293      	cmp	r3, r2
10008bc6:	db2b      	blt.n	10008c20 <__gethex+0x404>
10008bc8:	2421      	movs	r4, #33	@ 0x21
10008bca:	e761      	b.n	10008a90 <__gethex+0x274>
10008bcc:	07b2      	lsls	r2, r6, #30
10008bce:	d400      	bmi.n	10008bd2 <__gethex+0x3b6>
10008bd0:	e75c      	b.n	10008a8c <__gethex+0x270>
10008bd2:	9a04      	ldr	r2, [sp, #16]
10008bd4:	6812      	ldr	r2, [r2, #0]
10008bd6:	4316      	orrs	r6, r2
10008bd8:	4233      	tst	r3, r6
10008bda:	d1b5      	bne.n	10008b48 <__gethex+0x32c>
10008bdc:	e756      	b.n	10008a8c <__gethex+0x270>
10008bde:	2200      	movs	r2, #0
10008be0:	e75e      	b.n	10008aa0 <__gethex+0x284>
10008be2:	1a2c      	subs	r4, r5, r0
10008be4:	4651      	mov	r1, sl
10008be6:	0022      	movs	r2, r4
10008be8:	9803      	ldr	r0, [sp, #12]
10008bea:	f001 f99b 	bl	10009f24 <__lshift>
10008bee:	9b01      	ldr	r3, [sp, #4]
10008bf0:	4682      	mov	sl, r0
10008bf2:	1b1b      	subs	r3, r3, r4
10008bf4:	9301      	str	r3, [sp, #4]
10008bf6:	2314      	movs	r3, #20
10008bf8:	4453      	add	r3, sl
10008bfa:	9304      	str	r3, [sp, #16]
10008bfc:	e6fa      	b.n	100089f4 <__gethex+0x1d8>
10008bfe:	7873      	ldrb	r3, [r6, #1]
10008c00:	1c74      	adds	r4, r6, #1
10008c02:	5cfa      	ldrb	r2, [r7, r3]
10008c04:	0026      	movs	r6, r4
10008c06:	2a00      	cmp	r2, #0
10008c08:	d100      	bne.n	10008c0c <__gethex+0x3f0>
10008c0a:	e646      	b.n	1000889a <__gethex+0x7e>
10008c0c:	7873      	ldrb	r3, [r6, #1]
10008c0e:	3601      	adds	r6, #1
10008c10:	5cfa      	ldrb	r2, [r7, r3]
10008c12:	2a00      	cmp	r2, #0
10008c14:	d1fa      	bne.n	10008c0c <__gethex+0x3f0>
10008c16:	e63d      	b.n	10008894 <__gethex+0x78>
10008c18:	2300      	movs	r3, #0
10008c1a:	1c8d      	adds	r5, r1, #2
10008c1c:	469a      	mov	sl, r3
10008c1e:	e617      	b.n	10008850 <__gethex+0x34>
10008c20:	4651      	mov	r1, sl
10008c22:	9803      	ldr	r0, [sp, #12]
10008c24:	f000 ff04 	bl	10009a30 <_Bfree>
10008c28:	2300      	movs	r3, #0
10008c2a:	9a10      	ldr	r2, [sp, #64]	@ 0x40
10008c2c:	24a3      	movs	r4, #163	@ 0xa3
10008c2e:	6013      	str	r3, [r2, #0]
10008c30:	e6c1      	b.n	100089b6 <__gethex+0x19a>
10008c32:	9b04      	ldr	r3, [sp, #16]
10008c34:	4698      	mov	r8, r3
10008c36:	2300      	movs	r3, #0
10008c38:	4699      	mov	r9, r3
10008c3a:	e6c6      	b.n	100089ca <__gethex+0x1ae>
10008c3c:	2601      	movs	r6, #1
10008c3e:	e75a      	b.n	10008af6 <__gethex+0x2da>
10008c40:	0039      	movs	r1, r7
10008c42:	4650      	mov	r0, sl
10008c44:	f001 fc12 	bl	1000a46c <__any_on>
10008c48:	0006      	movs	r6, r0
10008c4a:	e754      	b.n	10008af6 <__gethex+0x2da>
10008c4c:	4650      	mov	r0, sl
10008c4e:	1ea1      	subs	r1, r4, #2
10008c50:	f001 fc0c 	bl	1000a46c <__any_on>
10008c54:	2800      	cmp	r0, #0
10008c56:	d100      	bne.n	10008c5a <__gethex+0x43e>
10008c58:	e73b      	b.n	10008ad2 <__gethex+0x2b6>
10008c5a:	2603      	movs	r6, #3
10008c5c:	e73a      	b.n	10008ad4 <__gethex+0x2b8>
10008c5e:	2300      	movs	r3, #0
10008c60:	9301      	str	r3, [sp, #4]
10008c62:	3301      	adds	r3, #1
10008c64:	4699      	mov	r9, r3
10008c66:	e66f      	b.n	10008948 <__gethex+0x12c>
10008c68:	42a5      	cmp	r5, r4
10008c6a:	d000      	beq.n	10008c6e <__gethex+0x452>
10008c6c:	e6db      	b.n	10008a26 <__gethex+0x20a>
10008c6e:	2d01      	cmp	r5, #1
10008c70:	d008      	beq.n	10008c84 <__gethex+0x468>
10008c72:	4650      	mov	r0, sl
10008c74:	1e69      	subs	r1, r5, #1
10008c76:	f001 fbf9 	bl	1000a46c <__any_on>
10008c7a:	2800      	cmp	r0, #0
10008c7c:	d100      	bne.n	10008c80 <__gethex+0x464>
10008c7e:	e6d2      	b.n	10008a26 <__gethex+0x20a>
10008c80:	465b      	mov	r3, fp
10008c82:	685b      	ldr	r3, [r3, #4]
10008c84:	9a05      	ldr	r2, [sp, #20]
10008c86:	2462      	movs	r4, #98	@ 0x62
10008c88:	6013      	str	r3, [r2, #0]
10008c8a:	2301      	movs	r3, #1
10008c8c:	4652      	mov	r2, sl
10008c8e:	6113      	str	r3, [r2, #16]
10008c90:	9a04      	ldr	r2, [sp, #16]
10008c92:	6013      	str	r3, [r2, #0]
10008c94:	4652      	mov	r2, sl
10008c96:	9b10      	ldr	r3, [sp, #64]	@ 0x40
10008c98:	601a      	str	r2, [r3, #0]
10008c9a:	e68c      	b.n	100089b6 <__gethex+0x19a>
10008c9c:	9a11      	ldr	r2, [sp, #68]	@ 0x44
10008c9e:	2a00      	cmp	r2, #0
10008ca0:	d100      	bne.n	10008ca4 <__gethex+0x488>
10008ca2:	e6c0      	b.n	10008a26 <__gethex+0x20a>
10008ca4:	e7ee      	b.n	10008c84 <__gethex+0x468>
10008ca6:	9a11      	ldr	r2, [sp, #68]	@ 0x44
10008ca8:	2a00      	cmp	r2, #0
10008caa:	d000      	beq.n	10008cae <__gethex+0x492>
10008cac:	e6bb      	b.n	10008a26 <__gethex+0x20a>
10008cae:	e7e9      	b.n	10008c84 <__gethex+0x468>
10008cb0:	4653      	mov	r3, sl
10008cb2:	4667      	mov	r7, ip
10008cb4:	689a      	ldr	r2, [r3, #8]
10008cb6:	003b      	movs	r3, r7
10008cb8:	4297      	cmp	r7, r2
10008cba:	da23      	bge.n	10008d04 <__gethex+0x4e8>
10008cbc:	4651      	mov	r1, sl
10008cbe:	1c5a      	adds	r2, r3, #1
10008cc0:	610a      	str	r2, [r1, #16]
10008cc2:	2101      	movs	r1, #1
10008cc4:	3304      	adds	r3, #4
10008cc6:	009b      	lsls	r3, r3, #2
10008cc8:	4453      	add	r3, sl
10008cca:	6059      	str	r1, [r3, #4]
10008ccc:	2c02      	cmp	r4, #2
10008cce:	d003      	beq.n	10008cd8 <__gethex+0x4bc>
10008cd0:	4297      	cmp	r7, r2
10008cd2:	da00      	bge.n	10008cd6 <__gethex+0x4ba>
10008cd4:	e768      	b.n	10008ba8 <__gethex+0x38c>
10008cd6:	e753      	b.n	10008b80 <__gethex+0x364>
10008cd8:	465b      	mov	r3, fp
10008cda:	681b      	ldr	r3, [r3, #0]
10008cdc:	2422      	movs	r4, #34	@ 0x22
10008cde:	3b01      	subs	r3, #1
10008ce0:	42ab      	cmp	r3, r5
10008ce2:	d000      	beq.n	10008ce6 <__gethex+0x4ca>
10008ce4:	e6d4      	b.n	10008a90 <__gethex+0x274>
10008ce6:	211f      	movs	r1, #31
10008ce8:	2301      	movs	r3, #1
10008cea:	4029      	ands	r1, r5
10008cec:	408b      	lsls	r3, r1
10008cee:	116a      	asrs	r2, r5, #5
10008cf0:	0092      	lsls	r2, r2, #2
10008cf2:	5994      	ldr	r4, [r2, r6]
10008cf4:	401c      	ands	r4, r3
10008cf6:	4263      	negs	r3, r4
10008cf8:	415c      	adcs	r4, r3
10008cfa:	3421      	adds	r4, #33	@ 0x21
10008cfc:	e6c8      	b.n	10008a90 <__gethex+0x274>
10008cfe:	2301      	movs	r3, #1
10008d00:	469a      	mov	sl, r3
10008d02:	e5b4      	b.n	1000886e <__gethex+0x52>
10008d04:	4653      	mov	r3, sl
10008d06:	6859      	ldr	r1, [r3, #4]
10008d08:	9803      	ldr	r0, [sp, #12]
10008d0a:	3101      	adds	r1, #1
10008d0c:	f000 fe68 	bl	100099e0 <_Balloc>
10008d10:	4680      	mov	r8, r0
10008d12:	2800      	cmp	r0, #0
10008d14:	d044      	beq.n	10008da0 <__gethex+0x584>
10008d16:	4653      	mov	r3, sl
10008d18:	4651      	mov	r1, sl
10008d1a:	691a      	ldr	r2, [r3, #16]
10008d1c:	310c      	adds	r1, #12
10008d1e:	3202      	adds	r2, #2
10008d20:	0092      	lsls	r2, r2, #2
10008d22:	300c      	adds	r0, #12
10008d24:	f7fa fa78 	bl	10003218 <__wrap___aeabi_memcpy>
10008d28:	4651      	mov	r1, sl
10008d2a:	9803      	ldr	r0, [sp, #12]
10008d2c:	f000 fe80 	bl	10009a30 <_Bfree>
10008d30:	4646      	mov	r6, r8
10008d32:	4643      	mov	r3, r8
10008d34:	46c2      	mov	sl, r8
10008d36:	691b      	ldr	r3, [r3, #16]
10008d38:	3614      	adds	r6, #20
10008d3a:	e7bf      	b.n	10008cbc <__gethex+0x4a0>
10008d3c:	4653      	mov	r3, sl
10008d3e:	4650      	mov	r0, sl
10008d40:	695b      	ldr	r3, [r3, #20]
10008d42:	0092      	lsls	r2, r2, #2
10008d44:	18b2      	adds	r2, r6, r2
10008d46:	3018      	adds	r0, #24
10008d48:	085b      	lsrs	r3, r3, #1
10008d4a:	4282      	cmp	r2, r0
10008d4c:	d91c      	bls.n	10008d88 <__gethex+0x56c>
10008d4e:	0034      	movs	r4, r6
10008d50:	0019      	movs	r1, r3
10008d52:	6803      	ldr	r3, [r0, #0]
10008d54:	07db      	lsls	r3, r3, #31
10008d56:	430b      	orrs	r3, r1
10008d58:	c408      	stmia	r4!, {r3}
10008d5a:	c802      	ldmia	r0!, {r1}
10008d5c:	0849      	lsrs	r1, r1, #1
10008d5e:	4282      	cmp	r2, r0
10008d60:	d8f7      	bhi.n	10008d52 <__gethex+0x536>
10008d62:	000b      	movs	r3, r1
10008d64:	4651      	mov	r1, sl
10008d66:	1a52      	subs	r2, r2, r1
10008d68:	3a19      	subs	r2, #25
10008d6a:	0892      	lsrs	r2, r2, #2
10008d6c:	3201      	adds	r2, #1
10008d6e:	0092      	lsls	r2, r2, #2
10008d70:	18b2      	adds	r2, r6, r2
10008d72:	6013      	str	r3, [r2, #0]
10008d74:	2b00      	cmp	r3, #0
10008d76:	d10b      	bne.n	10008d90 <__gethex+0x574>
10008d78:	4651      	mov	r1, sl
10008d7a:	1b93      	subs	r3, r2, r6
10008d7c:	109b      	asrs	r3, r3, #2
10008d7e:	610b      	str	r3, [r1, #16]
10008d80:	4296      	cmp	r6, r2
10008d82:	d000      	beq.n	10008d86 <__gethex+0x56a>
10008d84:	e719      	b.n	10008bba <__gethex+0x39e>
10008d86:	e715      	b.n	10008bb4 <__gethex+0x398>
10008d88:	0032      	movs	r2, r6
10008d8a:	6033      	str	r3, [r6, #0]
10008d8c:	2b00      	cmp	r3, #0
10008d8e:	d00d      	beq.n	10008dac <__gethex+0x590>
10008d90:	3204      	adds	r2, #4
10008d92:	e7f1      	b.n	10008d78 <__gethex+0x55c>
10008d94:	2200      	movs	r2, #0
10008d96:	21e4      	movs	r1, #228	@ 0xe4
10008d98:	4b06      	ldr	r3, [pc, #24]	@ (10008db4 <__gethex+0x598>)
10008d9a:	4807      	ldr	r0, [pc, #28]	@ (10008db8 <__gethex+0x59c>)
10008d9c:	f7fb fe42 	bl	10004a24 <__assert_func>
10008da0:	2200      	movs	r2, #0
10008da2:	2184      	movs	r1, #132	@ 0x84
10008da4:	4b03      	ldr	r3, [pc, #12]	@ (10008db4 <__gethex+0x598>)
10008da6:	4804      	ldr	r0, [pc, #16]	@ (10008db8 <__gethex+0x59c>)
10008da8:	f7fb fe3c 	bl	10004a24 <__assert_func>
10008dac:	4652      	mov	r2, sl
10008dae:	6113      	str	r3, [r2, #16]
10008db0:	e700      	b.n	10008bb4 <__gethex+0x398>
10008db2:	46c0      	nop			@ (mov r8, r8)
10008db4:	1000b8a8 	.word	0x1000b8a8
10008db8:	1000b8bc 	.word	0x1000b8bc

10008dbc <_strtoul_l.constprop.0>:
10008dbc:	b5f0      	push	{r4, r5, r6, r7, lr}
10008dbe:	4657      	mov	r7, sl
10008dc0:	464e      	mov	r6, r9
10008dc2:	4645      	mov	r5, r8
10008dc4:	46de      	mov	lr, fp
10008dc6:	4688      	mov	r8, r1
10008dc8:	b5e0      	push	{r5, r6, r7, lr}
10008dca:	000c      	movs	r4, r1
10008dcc:	4692      	mov	sl, r2
10008dce:	001e      	movs	r6, r3
10008dd0:	2108      	movs	r1, #8
10008dd2:	b083      	sub	sp, #12
10008dd4:	9001      	str	r0, [sp, #4]
10008dd6:	4846      	ldr	r0, [pc, #280]	@ (10008ef0 <_strtoul_l.constprop.0+0x134>)
10008dd8:	0023      	movs	r3, r4
10008dda:	781d      	ldrb	r5, [r3, #0]
10008ddc:	3401      	adds	r4, #1
10008dde:	5d42      	ldrb	r2, [r0, r5]
10008de0:	4211      	tst	r1, r2
10008de2:	d1f9      	bne.n	10008dd8 <_strtoul_l.constprop.0+0x1c>
10008de4:	2d2d      	cmp	r5, #45	@ 0x2d
10008de6:	d05e      	beq.n	10008ea6 <_strtoul_l.constprop.0+0xea>
10008de8:	2200      	movs	r2, #0
10008dea:	4693      	mov	fp, r2
10008dec:	2d2b      	cmp	r5, #43	@ 0x2b
10008dee:	d033      	beq.n	10008e58 <_strtoul_l.constprop.0+0x9c>
10008df0:	2e00      	cmp	r6, #0
10008df2:	d107      	bne.n	10008e04 <_strtoul_l.constprop.0+0x48>
10008df4:	2d30      	cmp	r5, #48	@ 0x30
10008df6:	d062      	beq.n	10008ebe <_strtoul_l.constprop.0+0x102>
10008df8:	230a      	movs	r3, #10
10008dfa:	2105      	movs	r1, #5
10008dfc:	4699      	mov	r9, r3
10008dfe:	4f3d      	ldr	r7, [pc, #244]	@ (10008ef4 <_strtoul_l.constprop.0+0x138>)
10008e00:	360a      	adds	r6, #10
10008e02:	e00d      	b.n	10008e20 <_strtoul_l.constprop.0+0x64>
10008e04:	2e10      	cmp	r6, #16
10008e06:	d053      	beq.n	10008eb0 <_strtoul_l.constprop.0+0xf4>
10008e08:	2001      	movs	r0, #1
10008e0a:	0031      	movs	r1, r6
10008e0c:	4240      	negs	r0, r0
10008e0e:	f7f9 fa15 	bl	1000223c <__wrap___aeabi_uidiv>
10008e12:	0007      	movs	r7, r0
10008e14:	2001      	movs	r0, #1
10008e16:	0031      	movs	r1, r6
10008e18:	4240      	negs	r0, r0
10008e1a:	46b1      	mov	r9, r6
10008e1c:	f7f9 fa0e 	bl	1000223c <__wrap___aeabi_uidiv>
10008e20:	2200      	movs	r2, #0
10008e22:	2000      	movs	r0, #0
10008e24:	002b      	movs	r3, r5
10008e26:	3b30      	subs	r3, #48	@ 0x30
10008e28:	2b09      	cmp	r3, #9
10008e2a:	d907      	bls.n	10008e3c <_strtoul_l.constprop.0+0x80>
10008e2c:	3b11      	subs	r3, #17
10008e2e:	2b19      	cmp	r3, #25
10008e30:	d903      	bls.n	10008e3a <_strtoul_l.constprop.0+0x7e>
10008e32:	002b      	movs	r3, r5
10008e34:	3b61      	subs	r3, #97	@ 0x61
10008e36:	2b19      	cmp	r3, #25
10008e38:	d811      	bhi.n	10008e5e <_strtoul_l.constprop.0+0xa2>
10008e3a:	330a      	adds	r3, #10
10008e3c:	429e      	cmp	r6, r3
10008e3e:	dd0e      	ble.n	10008e5e <_strtoul_l.constprop.0+0xa2>
10008e40:	1c55      	adds	r5, r2, #1
10008e42:	d006      	beq.n	10008e52 <_strtoul_l.constprop.0+0x96>
10008e44:	42b8      	cmp	r0, r7
10008e46:	d821      	bhi.n	10008e8c <_strtoul_l.constprop.0+0xd0>
10008e48:	d01e      	beq.n	10008e88 <_strtoul_l.constprop.0+0xcc>
10008e4a:	464a      	mov	r2, r9
10008e4c:	4350      	muls	r0, r2
10008e4e:	2201      	movs	r2, #1
10008e50:	1818      	adds	r0, r3, r0
10008e52:	7825      	ldrb	r5, [r4, #0]
10008e54:	3401      	adds	r4, #1
10008e56:	e7e5      	b.n	10008e24 <_strtoul_l.constprop.0+0x68>
10008e58:	7825      	ldrb	r5, [r4, #0]
10008e5a:	1c9c      	adds	r4, r3, #2
10008e5c:	e7c8      	b.n	10008df0 <_strtoul_l.constprop.0+0x34>
10008e5e:	1c53      	adds	r3, r2, #1
10008e60:	d017      	beq.n	10008e92 <_strtoul_l.constprop.0+0xd6>
10008e62:	465b      	mov	r3, fp
10008e64:	2b00      	cmp	r3, #0
10008e66:	d000      	beq.n	10008e6a <_strtoul_l.constprop.0+0xae>
10008e68:	4240      	negs	r0, r0
10008e6a:	4653      	mov	r3, sl
10008e6c:	2b00      	cmp	r3, #0
10008e6e:	d004      	beq.n	10008e7a <_strtoul_l.constprop.0+0xbe>
10008e70:	2a00      	cmp	r2, #0
10008e72:	d115      	bne.n	10008ea0 <_strtoul_l.constprop.0+0xe4>
10008e74:	4653      	mov	r3, sl
10008e76:	4642      	mov	r2, r8
10008e78:	601a      	str	r2, [r3, #0]
10008e7a:	b003      	add	sp, #12
10008e7c:	bcf0      	pop	{r4, r5, r6, r7}
10008e7e:	46bb      	mov	fp, r7
10008e80:	46b2      	mov	sl, r6
10008e82:	46a9      	mov	r9, r5
10008e84:	46a0      	mov	r8, r4
10008e86:	bdf0      	pop	{r4, r5, r6, r7, pc}
10008e88:	428b      	cmp	r3, r1
10008e8a:	ddde      	ble.n	10008e4a <_strtoul_l.constprop.0+0x8e>
10008e8c:	2201      	movs	r2, #1
10008e8e:	4252      	negs	r2, r2
10008e90:	e7df      	b.n	10008e52 <_strtoul_l.constprop.0+0x96>
10008e92:	2322      	movs	r3, #34	@ 0x22
10008e94:	9901      	ldr	r1, [sp, #4]
10008e96:	0010      	movs	r0, r2
10008e98:	600b      	str	r3, [r1, #0]
10008e9a:	4653      	mov	r3, sl
10008e9c:	2b00      	cmp	r3, #0
10008e9e:	d0ec      	beq.n	10008e7a <_strtoul_l.constprop.0+0xbe>
10008ea0:	1e63      	subs	r3, r4, #1
10008ea2:	4698      	mov	r8, r3
10008ea4:	e7e6      	b.n	10008e74 <_strtoul_l.constprop.0+0xb8>
10008ea6:	7825      	ldrb	r5, [r4, #0]
10008ea8:	1c9c      	adds	r4, r3, #2
10008eaa:	2301      	movs	r3, #1
10008eac:	469b      	mov	fp, r3
10008eae:	e79f      	b.n	10008df0 <_strtoul_l.constprop.0+0x34>
10008eb0:	2d30      	cmp	r5, #48	@ 0x30
10008eb2:	d00f      	beq.n	10008ed4 <_strtoul_l.constprop.0+0x118>
10008eb4:	2310      	movs	r3, #16
10008eb6:	210f      	movs	r1, #15
10008eb8:	4699      	mov	r9, r3
10008eba:	4f0f      	ldr	r7, [pc, #60]	@ (10008ef8 <_strtoul_l.constprop.0+0x13c>)
10008ebc:	e7b0      	b.n	10008e20 <_strtoul_l.constprop.0+0x64>
10008ebe:	2220      	movs	r2, #32
10008ec0:	7823      	ldrb	r3, [r4, #0]
10008ec2:	4393      	bics	r3, r2
10008ec4:	2b58      	cmp	r3, #88	@ 0x58
10008ec6:	d00a      	beq.n	10008ede <_strtoul_l.constprop.0+0x122>
10008ec8:	2308      	movs	r3, #8
10008eca:	2107      	movs	r1, #7
10008ecc:	4699      	mov	r9, r3
10008ece:	2608      	movs	r6, #8
10008ed0:	4f0a      	ldr	r7, [pc, #40]	@ (10008efc <_strtoul_l.constprop.0+0x140>)
10008ed2:	e7a5      	b.n	10008e20 <_strtoul_l.constprop.0+0x64>
10008ed4:	2220      	movs	r2, #32
10008ed6:	7823      	ldrb	r3, [r4, #0]
10008ed8:	4393      	bics	r3, r2
10008eda:	2b58      	cmp	r3, #88	@ 0x58
10008edc:	d1ea      	bne.n	10008eb4 <_strtoul_l.constprop.0+0xf8>
10008ede:	2310      	movs	r3, #16
10008ee0:	7865      	ldrb	r5, [r4, #1]
10008ee2:	210f      	movs	r1, #15
10008ee4:	4699      	mov	r9, r3
10008ee6:	2610      	movs	r6, #16
10008ee8:	4f03      	ldr	r7, [pc, #12]	@ (10008ef8 <_strtoul_l.constprop.0+0x13c>)
10008eea:	3402      	adds	r4, #2
10008eec:	e798      	b.n	10008e20 <_strtoul_l.constprop.0+0x64>
10008eee:	46c0      	nop			@ (mov r8, r8)
10008ef0:	1000b675 	.word	0x1000b675
10008ef4:	19999999 	.word	0x19999999
10008ef8:	0fffffff 	.word	0x0fffffff
10008efc:	1fffffff 	.word	0x1fffffff

10008f00 <_strtoul_r>:
10008f00:	b510      	push	{r4, lr}
10008f02:	f7ff ff5b 	bl	10008dbc <_strtoul_l.constprop.0>
10008f06:	bd10      	pop	{r4, pc}

10008f08 <__match>:
10008f08:	b530      	push	{r4, r5, lr}
10008f0a:	6802      	ldr	r2, [r0, #0]
10008f0c:	e008      	b.n	10008f20 <__match+0x18>
10008f0e:	7813      	ldrb	r3, [r2, #0]
10008f10:	001d      	movs	r5, r3
10008f12:	3d41      	subs	r5, #65	@ 0x41
10008f14:	2d19      	cmp	r5, #25
10008f16:	d800      	bhi.n	10008f1a <__match+0x12>
10008f18:	3320      	adds	r3, #32
10008f1a:	3101      	adds	r1, #1
10008f1c:	42a3      	cmp	r3, r4
10008f1e:	d106      	bne.n	10008f2e <__match+0x26>
10008f20:	780c      	ldrb	r4, [r1, #0]
10008f22:	3201      	adds	r2, #1
10008f24:	2c00      	cmp	r4, #0
10008f26:	d1f2      	bne.n	10008f0e <__match+0x6>
10008f28:	6002      	str	r2, [r0, #0]
10008f2a:	2001      	movs	r0, #1
10008f2c:	bd30      	pop	{r4, r5, pc}
10008f2e:	2000      	movs	r0, #0
10008f30:	e7fc      	b.n	10008f2c <__match+0x24>
10008f32:	46c0      	nop			@ (mov r8, r8)

10008f34 <__hexnan>:
10008f34:	b5f0      	push	{r4, r5, r6, r7, lr}
10008f36:	4645      	mov	r5, r8
10008f38:	46de      	mov	lr, fp
10008f3a:	4657      	mov	r7, sl
10008f3c:	464e      	mov	r6, r9
10008f3e:	241f      	movs	r4, #31
10008f40:	0003      	movs	r3, r0
10008f42:	0008      	movs	r0, r1
10008f44:	b5e0      	push	{r5, r6, r7, lr}
10008f46:	0025      	movs	r5, r4
10008f48:	0011      	movs	r1, r2
10008f4a:	6800      	ldr	r0, [r0, #0]
10008f4c:	b087      	sub	sp, #28
10008f4e:	1142      	asrs	r2, r0, #5
10008f50:	0092      	lsls	r2, r2, #2
10008f52:	4005      	ands	r5, r0
10008f54:	188a      	adds	r2, r1, r2
10008f56:	9503      	str	r5, [sp, #12]
10008f58:	4204      	tst	r4, r0
10008f5a:	d000      	beq.n	10008f5e <__hexnan+0x2a>
10008f5c:	e0a1      	b.n	100090a2 <__hexnan+0x16e>
10008f5e:	0010      	movs	r0, r2
10008f60:	1f17      	subs	r7, r2, #4
10008f62:	1f02      	subs	r2, r0, #4
10008f64:	4691      	mov	r9, r2
10008f66:	2200      	movs	r2, #0
10008f68:	4648      	mov	r0, r9
10008f6a:	6002      	str	r2, [r0, #0]
10008f6c:	6818      	ldr	r0, [r3, #0]
10008f6e:	7846      	ldrb	r6, [r0, #1]
10008f70:	2e00      	cmp	r6, #0
10008f72:	d100      	bne.n	10008f76 <__hexnan+0x42>
10008f74:	e0b2      	b.n	100090dc <__hexnan+0x1a8>
10008f76:	9001      	str	r0, [sp, #4]
10008f78:	486e      	ldr	r0, [pc, #440]	@ (10009134 <__hexnan+0x200>)
10008f7a:	9304      	str	r3, [sp, #16]
10008f7c:	4680      	mov	r8, r0
10008f7e:	464b      	mov	r3, r9
10008f80:	200f      	movs	r0, #15
10008f82:	2400      	movs	r4, #0
10008f84:	2200      	movs	r2, #0
10008f86:	4683      	mov	fp, r0
10008f88:	9801      	ldr	r0, [sp, #4]
10008f8a:	9301      	str	r3, [sp, #4]
10008f8c:	4643      	mov	r3, r8
10008f8e:	9602      	str	r6, [sp, #8]
10008f90:	003d      	movs	r5, r7
10008f92:	0026      	movs	r6, r4
10008f94:	4689      	mov	r9, r1
10008f96:	46b8      	mov	r8, r7
10008f98:	0039      	movs	r1, r7
10008f9a:	4692      	mov	sl, r2
10008f9c:	001f      	movs	r7, r3
10008f9e:	9c02      	ldr	r4, [sp, #8]
10008fa0:	e015      	b.n	10008fce <__hexnan+0x9a>
10008fa2:	2c20      	cmp	r4, #32
10008fa4:	d900      	bls.n	10008fa8 <__hexnan+0x74>
10008fa6:	e08d      	b.n	100090c4 <__hexnan+0x190>
10008fa8:	4552      	cmp	r2, sl
10008faa:	dd0c      	ble.n	10008fc6 <__hexnan+0x92>
10008fac:	428d      	cmp	r5, r1
10008fae:	d201      	bcs.n	10008fb4 <__hexnan+0x80>
10008fb0:	2e07      	cmp	r6, #7
10008fb2:	dd58      	ble.n	10009066 <__hexnan+0x132>
10008fb4:	2608      	movs	r6, #8
10008fb6:	45a9      	cmp	r9, r5
10008fb8:	d205      	bcs.n	10008fc6 <__hexnan+0x92>
10008fba:	1f29      	subs	r1, r5, #4
10008fbc:	2300      	movs	r3, #0
10008fbe:	4692      	mov	sl, r2
10008fc0:	000d      	movs	r5, r1
10008fc2:	2600      	movs	r6, #0
10008fc4:	600b      	str	r3, [r1, #0]
10008fc6:	7884      	ldrb	r4, [r0, #2]
10008fc8:	3001      	adds	r0, #1
10008fca:	2c00      	cmp	r4, #0
10008fcc:	d012      	beq.n	10008ff4 <__hexnan+0xc0>
10008fce:	5d3b      	ldrb	r3, [r7, r4]
10008fd0:	2b00      	cmp	r3, #0
10008fd2:	d0e6      	beq.n	10008fa2 <__hexnan+0x6e>
10008fd4:	3601      	adds	r6, #1
10008fd6:	3201      	adds	r2, #1
10008fd8:	2e08      	cmp	r6, #8
10008fda:	dc3c      	bgt.n	10009056 <__hexnan+0x122>
10008fdc:	682c      	ldr	r4, [r5, #0]
10008fde:	0124      	lsls	r4, r4, #4
10008fe0:	46a4      	mov	ip, r4
10008fe2:	465c      	mov	r4, fp
10008fe4:	4023      	ands	r3, r4
10008fe6:	4664      	mov	r4, ip
10008fe8:	4323      	orrs	r3, r4
10008fea:	602b      	str	r3, [r5, #0]
10008fec:	7884      	ldrb	r4, [r0, #2]
10008fee:	3001      	adds	r0, #1
10008ff0:	2c00      	cmp	r4, #0
10008ff2:	d1ec      	bne.n	10008fce <__hexnan+0x9a>
10008ff4:	9b01      	ldr	r3, [sp, #4]
10008ff6:	468c      	mov	ip, r1
10008ff8:	0034      	movs	r4, r6
10008ffa:	4649      	mov	r1, r9
10008ffc:	4647      	mov	r7, r8
10008ffe:	4699      	mov	r9, r3
10009000:	2a00      	cmp	r2, #0
10009002:	d06b      	beq.n	100090dc <__hexnan+0x1a8>
10009004:	45ac      	cmp	ip, r5
10009006:	d902      	bls.n	1000900e <__hexnan+0xda>
10009008:	2c07      	cmp	r4, #7
1000900a:	dc00      	bgt.n	1000900e <__hexnan+0xda>
1000900c:	e074      	b.n	100090f8 <__hexnan+0x1c4>
1000900e:	42a9      	cmp	r1, r5
10009010:	d24a      	bcs.n	100090a8 <__hexnan+0x174>
10009012:	000a      	movs	r2, r1
10009014:	002b      	movs	r3, r5
10009016:	cb01      	ldmia	r3!, {r0}
10009018:	c201      	stmia	r2!, {r0}
1000901a:	429f      	cmp	r7, r3
1000901c:	d2fb      	bcs.n	10009016 <__hexnan+0xe2>
1000901e:	1c78      	adds	r0, r7, #1
10009020:	1c6a      	adds	r2, r5, #1
10009022:	2304      	movs	r3, #4
10009024:	4290      	cmp	r0, r2
10009026:	d262      	bcs.n	100090ee <__hexnan+0x1ba>
10009028:	2200      	movs	r2, #0
1000902a:	18cb      	adds	r3, r1, r3
1000902c:	c304      	stmia	r3!, {r2}
1000902e:	429f      	cmp	r7, r3
10009030:	d2fc      	bcs.n	1000902c <__hexnan+0xf8>
10009032:	464b      	mov	r3, r9
10009034:	681b      	ldr	r3, [r3, #0]
10009036:	2b00      	cmp	r3, #0
10009038:	d105      	bne.n	10009046 <__hexnan+0x112>
1000903a:	42b9      	cmp	r1, r7
1000903c:	d050      	beq.n	100090e0 <__hexnan+0x1ac>
1000903e:	3f04      	subs	r7, #4
10009040:	683b      	ldr	r3, [r7, #0]
10009042:	2b00      	cmp	r3, #0
10009044:	d0f9      	beq.n	1000903a <__hexnan+0x106>
10009046:	2005      	movs	r0, #5
10009048:	b007      	add	sp, #28
1000904a:	bcf0      	pop	{r4, r5, r6, r7}
1000904c:	46bb      	mov	fp, r7
1000904e:	46b2      	mov	sl, r6
10009050:	46a9      	mov	r9, r5
10009052:	46a0      	mov	r8, r4
10009054:	bdf0      	pop	{r4, r5, r6, r7, pc}
10009056:	45a9      	cmp	r9, r5
10009058:	d2b5      	bcs.n	10008fc6 <__hexnan+0x92>
1000905a:	2400      	movs	r4, #0
1000905c:	3d04      	subs	r5, #4
1000905e:	46a4      	mov	ip, r4
10009060:	2601      	movs	r6, #1
10009062:	602c      	str	r4, [r5, #0]
10009064:	e7bd      	b.n	10008fe2 <__hexnan+0xae>
10009066:	2308      	movs	r3, #8
10009068:	1b9b      	subs	r3, r3, r6
1000906a:	009b      	lsls	r3, r3, #2
1000906c:	469c      	mov	ip, r3
1000906e:	2320      	movs	r3, #32
10009070:	4664      	mov	r4, ip
10009072:	002e      	movs	r6, r5
10009074:	1b1c      	subs	r4, r3, r4
10009076:	9502      	str	r5, [sp, #8]
10009078:	682b      	ldr	r3, [r5, #0]
1000907a:	4665      	mov	r5, ip
1000907c:	9005      	str	r0, [sp, #20]
1000907e:	4694      	mov	ip, r2
10009080:	0020      	movs	r0, r4
10009082:	002a      	movs	r2, r5
10009084:	6875      	ldr	r5, [r6, #4]
10009086:	002c      	movs	r4, r5
10009088:	4084      	lsls	r4, r0
1000908a:	431c      	orrs	r4, r3
1000908c:	002b      	movs	r3, r5
1000908e:	40d3      	lsrs	r3, r2
10009090:	6034      	str	r4, [r6, #0]
10009092:	6073      	str	r3, [r6, #4]
10009094:	3604      	adds	r6, #4
10009096:	428e      	cmp	r6, r1
10009098:	d3f4      	bcc.n	10009084 <__hexnan+0x150>
1000909a:	4662      	mov	r2, ip
1000909c:	9d02      	ldr	r5, [sp, #8]
1000909e:	9805      	ldr	r0, [sp, #20]
100090a0:	e788      	b.n	10008fb4 <__hexnan+0x80>
100090a2:	0017      	movs	r7, r2
100090a4:	1d10      	adds	r0, r2, #4
100090a6:	e75c      	b.n	10008f62 <__hexnan+0x2e>
100090a8:	464b      	mov	r3, r9
100090aa:	9a03      	ldr	r2, [sp, #12]
100090ac:	681b      	ldr	r3, [r3, #0]
100090ae:	2a00      	cmp	r2, #0
100090b0:	d0c7      	beq.n	10009042 <__hexnan+0x10e>
100090b2:	2020      	movs	r0, #32
100090b4:	1a80      	subs	r0, r0, r2
100090b6:	2201      	movs	r2, #1
100090b8:	4252      	negs	r2, r2
100090ba:	40c2      	lsrs	r2, r0
100090bc:	4013      	ands	r3, r2
100090be:	464a      	mov	r2, r9
100090c0:	6013      	str	r3, [r2, #0]
100090c2:	e7be      	b.n	10009042 <__hexnan+0x10e>
100090c4:	46a2      	mov	sl, r4
100090c6:	0034      	movs	r4, r6
100090c8:	4656      	mov	r6, sl
100090ca:	4683      	mov	fp, r0
100090cc:	9801      	ldr	r0, [sp, #4]
100090ce:	468c      	mov	ip, r1
100090d0:	4647      	mov	r7, r8
100090d2:	4649      	mov	r1, r9
100090d4:	9b04      	ldr	r3, [sp, #16]
100090d6:	4681      	mov	r9, r0
100090d8:	2e29      	cmp	r6, #41	@ 0x29
100090da:	d004      	beq.n	100090e6 <__hexnan+0x1b2>
100090dc:	2004      	movs	r0, #4
100090de:	e7b3      	b.n	10009048 <__hexnan+0x114>
100090e0:	2301      	movs	r3, #1
100090e2:	603b      	str	r3, [r7, #0]
100090e4:	e7af      	b.n	10009046 <__hexnan+0x112>
100090e6:	4658      	mov	r0, fp
100090e8:	3002      	adds	r0, #2
100090ea:	6018      	str	r0, [r3, #0]
100090ec:	e788      	b.n	10009000 <__hexnan+0xcc>
100090ee:	1b7d      	subs	r5, r7, r5
100090f0:	08ad      	lsrs	r5, r5, #2
100090f2:	3501      	adds	r5, #1
100090f4:	00ab      	lsls	r3, r5, #2
100090f6:	e797      	b.n	10009028 <__hexnan+0xf4>
100090f8:	2608      	movs	r6, #8
100090fa:	2320      	movs	r3, #32
100090fc:	1b36      	subs	r6, r6, r4
100090fe:	00b6      	lsls	r6, r6, #2
10009100:	1b9b      	subs	r3, r3, r6
10009102:	4698      	mov	r8, r3
10009104:	682b      	ldr	r3, [r5, #0]
10009106:	0028      	movs	r0, r5
10009108:	001a      	movs	r2, r3
1000910a:	000b      	movs	r3, r1
1000910c:	0031      	movs	r1, r6
1000910e:	4666      	mov	r6, ip
10009110:	46ac      	mov	ip, r5
10009112:	4645      	mov	r5, r8
10009114:	4698      	mov	r8, r3
10009116:	6844      	ldr	r4, [r0, #4]
10009118:	0023      	movs	r3, r4
1000911a:	40ab      	lsls	r3, r5
1000911c:	4313      	orrs	r3, r2
1000911e:	0022      	movs	r2, r4
10009120:	40ca      	lsrs	r2, r1
10009122:	6003      	str	r3, [r0, #0]
10009124:	6042      	str	r2, [r0, #4]
10009126:	3004      	adds	r0, #4
10009128:	4286      	cmp	r6, r0
1000912a:	d8f4      	bhi.n	10009116 <__hexnan+0x1e2>
1000912c:	4665      	mov	r5, ip
1000912e:	4641      	mov	r1, r8
10009130:	e76d      	b.n	1000900e <__hexnan+0xda>
10009132:	46c0      	nop			@ (mov r8, r8)
10009134:	1000b920 	.word	0x1000b920

10009138 <_strtoll_l.constprop.0>:
10009138:	b5f0      	push	{r4, r5, r6, r7, lr}
1000913a:	46de      	mov	lr, fp
1000913c:	464e      	mov	r6, r9
1000913e:	4645      	mov	r5, r8
10009140:	4657      	mov	r7, sl
10009142:	b5e0      	push	{r5, r6, r7, lr}
10009144:	b089      	sub	sp, #36	@ 0x24
10009146:	000d      	movs	r5, r1
10009148:	9105      	str	r1, [sp, #20]
1000914a:	4693      	mov	fp, r2
1000914c:	001e      	movs	r6, r3
1000914e:	2108      	movs	r1, #8
10009150:	9007      	str	r0, [sp, #28]
10009152:	485f      	ldr	r0, [pc, #380]	@ (100092d0 <_strtoll_l.constprop.0+0x198>)
10009154:	002b      	movs	r3, r5
10009156:	781c      	ldrb	r4, [r3, #0]
10009158:	3501      	adds	r5, #1
1000915a:	5d02      	ldrb	r2, [r0, r4]
1000915c:	4211      	tst	r1, r2
1000915e:	d1f9      	bne.n	10009154 <_strtoll_l.constprop.0+0x1c>
10009160:	2c2d      	cmp	r4, #45	@ 0x2d
10009162:	d100      	bne.n	10009166 <_strtoll_l.constprop.0+0x2e>
10009164:	e084      	b.n	10009270 <_strtoll_l.constprop.0+0x138>
10009166:	2c2b      	cmp	r4, #43	@ 0x2b
10009168:	d04b      	beq.n	10009202 <_strtoll_l.constprop.0+0xca>
1000916a:	2301      	movs	r3, #1
1000916c:	425b      	negs	r3, r3
1000916e:	9303      	str	r3, [sp, #12]
10009170:	4b58      	ldr	r3, [pc, #352]	@ (100092d4 <_strtoll_l.constprop.0+0x19c>)
10009172:	9304      	str	r3, [sp, #16]
10009174:	2300      	movs	r3, #0
10009176:	9306      	str	r3, [sp, #24]
10009178:	2e00      	cmp	r6, #0
1000917a:	d108      	bne.n	1000918e <_strtoll_l.constprop.0+0x56>
1000917c:	2c30      	cmp	r4, #48	@ 0x30
1000917e:	d100      	bne.n	10009182 <_strtoll_l.constprop.0+0x4a>
10009180:	e080      	b.n	10009284 <_strtoll_l.constprop.0+0x14c>
10009182:	230a      	movs	r3, #10
10009184:	469a      	mov	sl, r3
10009186:	2300      	movs	r3, #0
10009188:	360a      	adds	r6, #10
1000918a:	4699      	mov	r9, r3
1000918c:	e005      	b.n	1000919a <_strtoll_l.constprop.0+0x62>
1000918e:	2e10      	cmp	r6, #16
10009190:	d100      	bne.n	10009194 <_strtoll_l.constprop.0+0x5c>
10009192:	e082      	b.n	1000929a <_strtoll_l.constprop.0+0x162>
10009194:	17f3      	asrs	r3, r6, #31
10009196:	46b2      	mov	sl, r6
10009198:	4699      	mov	r9, r3
1000919a:	4652      	mov	r2, sl
1000919c:	464b      	mov	r3, r9
1000919e:	9803      	ldr	r0, [sp, #12]
100091a0:	9904      	ldr	r1, [sp, #16]
100091a2:	f7f9 f889 	bl	100022b8 <__wrap___aeabi_uldivmod>
100091a6:	0023      	movs	r3, r4
100091a8:	000f      	movs	r7, r1
100091aa:	4680      	mov	r8, r0
100091ac:	9202      	str	r2, [sp, #8]
100091ae:	2000      	movs	r0, #0
100091b0:	2200      	movs	r2, #0
100091b2:	2100      	movs	r1, #0
100091b4:	e013      	b.n	100091de <_strtoll_l.constprop.0+0xa6>
100091b6:	42b9      	cmp	r1, r7
100091b8:	d101      	bne.n	100091be <_strtoll_l.constprop.0+0x86>
100091ba:	4540      	cmp	r0, r8
100091bc:	d81e      	bhi.n	100091fc <_strtoll_l.constprop.0+0xc4>
100091be:	4580      	cmp	r8, r0
100091c0:	d043      	beq.n	1000924a <_strtoll_l.constprop.0+0x112>
100091c2:	4652      	mov	r2, sl
100091c4:	464b      	mov	r3, r9
100091c6:	f7f9 ff2b 	bl	10003020 <__wrap___aeabi_lmul>
100091ca:	17e3      	asrs	r3, r4, #31
100091cc:	9400      	str	r4, [sp, #0]
100091ce:	9301      	str	r3, [sp, #4]
100091d0:	9b00      	ldr	r3, [sp, #0]
100091d2:	9c01      	ldr	r4, [sp, #4]
100091d4:	2201      	movs	r2, #1
100091d6:	18c0      	adds	r0, r0, r3
100091d8:	4161      	adcs	r1, r4
100091da:	782b      	ldrb	r3, [r5, #0]
100091dc:	3501      	adds	r5, #1
100091de:	001c      	movs	r4, r3
100091e0:	3c30      	subs	r4, #48	@ 0x30
100091e2:	2c09      	cmp	r4, #9
100091e4:	d904      	bls.n	100091f0 <_strtoll_l.constprop.0+0xb8>
100091e6:	3c11      	subs	r4, #17
100091e8:	2c19      	cmp	r4, #25
100091ea:	d80d      	bhi.n	10009208 <_strtoll_l.constprop.0+0xd0>
100091ec:	3b37      	subs	r3, #55	@ 0x37
100091ee:	001c      	movs	r4, r3
100091f0:	42a6      	cmp	r6, r4
100091f2:	dd11      	ble.n	10009218 <_strtoll_l.constprop.0+0xe0>
100091f4:	1c53      	adds	r3, r2, #1
100091f6:	d0f0      	beq.n	100091da <_strtoll_l.constprop.0+0xa2>
100091f8:	42b9      	cmp	r1, r7
100091fa:	d9dc      	bls.n	100091b6 <_strtoll_l.constprop.0+0x7e>
100091fc:	2201      	movs	r2, #1
100091fe:	4252      	negs	r2, r2
10009200:	e7eb      	b.n	100091da <_strtoll_l.constprop.0+0xa2>
10009202:	782c      	ldrb	r4, [r5, #0]
10009204:	1c9d      	adds	r5, r3, #2
10009206:	e7b0      	b.n	1000916a <_strtoll_l.constprop.0+0x32>
10009208:	001c      	movs	r4, r3
1000920a:	3c61      	subs	r4, #97	@ 0x61
1000920c:	2c19      	cmp	r4, #25
1000920e:	d803      	bhi.n	10009218 <_strtoll_l.constprop.0+0xe0>
10009210:	3b57      	subs	r3, #87	@ 0x57
10009212:	001c      	movs	r4, r3
10009214:	42a6      	cmp	r6, r4
10009216:	dced      	bgt.n	100091f4 <_strtoll_l.constprop.0+0xbc>
10009218:	1c53      	adds	r3, r2, #1
1000921a:	d01e      	beq.n	1000925a <_strtoll_l.constprop.0+0x122>
1000921c:	9b06      	ldr	r3, [sp, #24]
1000921e:	2b00      	cmp	r3, #0
10009220:	d004      	beq.n	1000922c <_strtoll_l.constprop.0+0xf4>
10009222:	0003      	movs	r3, r0
10009224:	000c      	movs	r4, r1
10009226:	2100      	movs	r1, #0
10009228:	4258      	negs	r0, r3
1000922a:	41a1      	sbcs	r1, r4
1000922c:	465b      	mov	r3, fp
1000922e:	2b00      	cmp	r3, #0
10009230:	d004      	beq.n	1000923c <_strtoll_l.constprop.0+0x104>
10009232:	2a00      	cmp	r2, #0
10009234:	d148      	bne.n	100092c8 <_strtoll_l.constprop.0+0x190>
10009236:	465b      	mov	r3, fp
10009238:	9a05      	ldr	r2, [sp, #20]
1000923a:	601a      	str	r2, [r3, #0]
1000923c:	b009      	add	sp, #36	@ 0x24
1000923e:	bcf0      	pop	{r4, r5, r6, r7}
10009240:	46bb      	mov	fp, r7
10009242:	46b2      	mov	sl, r6
10009244:	46a9      	mov	r9, r5
10009246:	46a0      	mov	r8, r4
10009248:	bdf0      	pop	{r4, r5, r6, r7, pc}
1000924a:	428f      	cmp	r7, r1
1000924c:	d1b9      	bne.n	100091c2 <_strtoll_l.constprop.0+0x8a>
1000924e:	9b02      	ldr	r3, [sp, #8]
10009250:	42a3      	cmp	r3, r4
10009252:	dab6      	bge.n	100091c2 <_strtoll_l.constprop.0+0x8a>
10009254:	2201      	movs	r2, #1
10009256:	4252      	negs	r2, r2
10009258:	e7bf      	b.n	100091da <_strtoll_l.constprop.0+0xa2>
1000925a:	2322      	movs	r3, #34	@ 0x22
1000925c:	9a07      	ldr	r2, [sp, #28]
1000925e:	6013      	str	r3, [r2, #0]
10009260:	465b      	mov	r3, fp
10009262:	2b00      	cmp	r3, #0
10009264:	d02d      	beq.n	100092c2 <_strtoll_l.constprop.0+0x18a>
10009266:	1e6b      	subs	r3, r5, #1
10009268:	9803      	ldr	r0, [sp, #12]
1000926a:	9904      	ldr	r1, [sp, #16]
1000926c:	9305      	str	r3, [sp, #20]
1000926e:	e7e2      	b.n	10009236 <_strtoll_l.constprop.0+0xfe>
10009270:	782c      	ldrb	r4, [r5, #0]
10009272:	1c9d      	adds	r5, r3, #2
10009274:	2300      	movs	r3, #0
10009276:	9303      	str	r3, [sp, #12]
10009278:	2380      	movs	r3, #128	@ 0x80
1000927a:	061b      	lsls	r3, r3, #24
1000927c:	9304      	str	r3, [sp, #16]
1000927e:	2301      	movs	r3, #1
10009280:	9306      	str	r3, [sp, #24]
10009282:	e779      	b.n	10009178 <_strtoll_l.constprop.0+0x40>
10009284:	2220      	movs	r2, #32
10009286:	782b      	ldrb	r3, [r5, #0]
10009288:	4393      	bics	r3, r2
1000928a:	2b58      	cmp	r3, #88	@ 0x58
1000928c:	d011      	beq.n	100092b2 <_strtoll_l.constprop.0+0x17a>
1000928e:	2308      	movs	r3, #8
10009290:	469a      	mov	sl, r3
10009292:	2300      	movs	r3, #0
10009294:	2608      	movs	r6, #8
10009296:	4699      	mov	r9, r3
10009298:	e77f      	b.n	1000919a <_strtoll_l.constprop.0+0x62>
1000929a:	2c30      	cmp	r4, #48	@ 0x30
1000929c:	d004      	beq.n	100092a8 <_strtoll_l.constprop.0+0x170>
1000929e:	2310      	movs	r3, #16
100092a0:	469a      	mov	sl, r3
100092a2:	2300      	movs	r3, #0
100092a4:	4699      	mov	r9, r3
100092a6:	e778      	b.n	1000919a <_strtoll_l.constprop.0+0x62>
100092a8:	2220      	movs	r2, #32
100092aa:	782b      	ldrb	r3, [r5, #0]
100092ac:	4393      	bics	r3, r2
100092ae:	2b58      	cmp	r3, #88	@ 0x58
100092b0:	d1f5      	bne.n	1000929e <_strtoll_l.constprop.0+0x166>
100092b2:	2310      	movs	r3, #16
100092b4:	469a      	mov	sl, r3
100092b6:	2300      	movs	r3, #0
100092b8:	786c      	ldrb	r4, [r5, #1]
100092ba:	4699      	mov	r9, r3
100092bc:	2610      	movs	r6, #16
100092be:	3502      	adds	r5, #2
100092c0:	e76b      	b.n	1000919a <_strtoll_l.constprop.0+0x62>
100092c2:	9803      	ldr	r0, [sp, #12]
100092c4:	9904      	ldr	r1, [sp, #16]
100092c6:	e7b9      	b.n	1000923c <_strtoll_l.constprop.0+0x104>
100092c8:	9003      	str	r0, [sp, #12]
100092ca:	9104      	str	r1, [sp, #16]
100092cc:	e7cb      	b.n	10009266 <_strtoll_l.constprop.0+0x12e>
100092ce:	46c0      	nop			@ (mov r8, r8)
100092d0:	1000b675 	.word	0x1000b675
100092d4:	7fffffff 	.word	0x7fffffff

100092d8 <_strtoll_r>:
100092d8:	b510      	push	{r4, lr}
100092da:	f7ff ff2d 	bl	10009138 <_strtoll_l.constprop.0>
100092de:	bd10      	pop	{r4, pc}

100092e0 <_strtoull_l.constprop.0>:
100092e0:	b5f0      	push	{r4, r5, r6, r7, lr}
100092e2:	4645      	mov	r5, r8
100092e4:	46de      	mov	lr, fp
100092e6:	4657      	mov	r7, sl
100092e8:	464e      	mov	r6, r9
100092ea:	b5e0      	push	{r5, r6, r7, lr}
100092ec:	b087      	sub	sp, #28
100092ee:	000d      	movs	r5, r1
100092f0:	9103      	str	r1, [sp, #12]
100092f2:	4698      	mov	r8, r3
100092f4:	2108      	movs	r1, #8
100092f6:	9005      	str	r0, [sp, #20]
100092f8:	4865      	ldr	r0, [pc, #404]	@ (10009490 <_strtoull_l.constprop.0+0x1b0>)
100092fa:	9201      	str	r2, [sp, #4]
100092fc:	002b      	movs	r3, r5
100092fe:	781c      	ldrb	r4, [r3, #0]
10009300:	3501      	adds	r5, #1
10009302:	5d02      	ldrb	r2, [r0, r4]
10009304:	4211      	tst	r1, r2
10009306:	d1f9      	bne.n	100092fc <_strtoull_l.constprop.0+0x1c>
10009308:	2c2d      	cmp	r4, #45	@ 0x2d
1000930a:	d100      	bne.n	1000930e <_strtoull_l.constprop.0+0x2e>
1000930c:	e088      	b.n	10009420 <_strtoull_l.constprop.0+0x140>
1000930e:	2200      	movs	r2, #0
10009310:	9204      	str	r2, [sp, #16]
10009312:	2c2b      	cmp	r4, #43	@ 0x2b
10009314:	d067      	beq.n	100093e6 <_strtoull_l.constprop.0+0x106>
10009316:	4643      	mov	r3, r8
10009318:	2b00      	cmp	r3, #0
1000931a:	d10f      	bne.n	1000933c <_strtoull_l.constprop.0+0x5c>
1000931c:	2c30      	cmp	r4, #48	@ 0x30
1000931e:	d100      	bne.n	10009322 <_strtoull_l.constprop.0+0x42>
10009320:	e083      	b.n	1000942a <_strtoull_l.constprop.0+0x14a>
10009322:	3305      	adds	r3, #5
10009324:	9302      	str	r3, [sp, #8]
10009326:	4b5b      	ldr	r3, [pc, #364]	@ (10009494 <_strtoull_l.constprop.0+0x1b4>)
10009328:	469a      	mov	sl, r3
1000932a:	4b5b      	ldr	r3, [pc, #364]	@ (10009498 <_strtoull_l.constprop.0+0x1b8>)
1000932c:	4699      	mov	r9, r3
1000932e:	230a      	movs	r3, #10
10009330:	9300      	str	r3, [sp, #0]
10009332:	2300      	movs	r3, #0
10009334:	469b      	mov	fp, r3
10009336:	330a      	adds	r3, #10
10009338:	4698      	mov	r8, r3
1000933a:	e015      	b.n	10009368 <_strtoull_l.constprop.0+0x88>
1000933c:	2b10      	cmp	r3, #16
1000933e:	d100      	bne.n	10009342 <_strtoull_l.constprop.0+0x62>
10009340:	e085      	b.n	1000944e <_strtoull_l.constprop.0+0x16e>
10009342:	4642      	mov	r2, r8
10009344:	9300      	str	r3, [sp, #0]
10009346:	2001      	movs	r0, #1
10009348:	4240      	negs	r0, r0
1000934a:	17c1      	asrs	r1, r0, #31
1000934c:	17db      	asrs	r3, r3, #31
1000934e:	469b      	mov	fp, r3
10009350:	f7f8 ffb2 	bl	100022b8 <__wrap___aeabi_uldivmod>
10009354:	4642      	mov	r2, r8
10009356:	4682      	mov	sl, r0
10009358:	4689      	mov	r9, r1
1000935a:	465b      	mov	r3, fp
1000935c:	2001      	movs	r0, #1
1000935e:	4240      	negs	r0, r0
10009360:	17c1      	asrs	r1, r0, #31
10009362:	f7f8 ffa9 	bl	100022b8 <__wrap___aeabi_uldivmod>
10009366:	9202      	str	r2, [sp, #8]
10009368:	2200      	movs	r2, #0
1000936a:	2000      	movs	r0, #0
1000936c:	2100      	movs	r1, #0
1000936e:	e016      	b.n	1000939e <_strtoull_l.constprop.0+0xbe>
10009370:	001c      	movs	r4, r3
10009372:	45a0      	cmp	r8, r4
10009374:	dd1e      	ble.n	100093b4 <_strtoull_l.constprop.0+0xd4>
10009376:	1c53      	adds	r3, r2, #1
10009378:	d00f      	beq.n	1000939a <_strtoull_l.constprop.0+0xba>
1000937a:	4549      	cmp	r1, r9
1000937c:	d83b      	bhi.n	100093f6 <_strtoull_l.constprop.0+0x116>
1000937e:	d101      	bne.n	10009384 <_strtoull_l.constprop.0+0xa4>
10009380:	4550      	cmp	r0, sl
10009382:	d838      	bhi.n	100093f6 <_strtoull_l.constprop.0+0x116>
10009384:	4550      	cmp	r0, sl
10009386:	d031      	beq.n	100093ec <_strtoull_l.constprop.0+0x10c>
10009388:	9a00      	ldr	r2, [sp, #0]
1000938a:	465b      	mov	r3, fp
1000938c:	f7f9 fe48 	bl	10003020 <__wrap___aeabi_lmul>
10009390:	0026      	movs	r6, r4
10009392:	17e7      	asrs	r7, r4, #31
10009394:	1980      	adds	r0, r0, r6
10009396:	4179      	adcs	r1, r7
10009398:	2201      	movs	r2, #1
1000939a:	782c      	ldrb	r4, [r5, #0]
1000939c:	3501      	adds	r5, #1
1000939e:	0023      	movs	r3, r4
100093a0:	3b30      	subs	r3, #48	@ 0x30
100093a2:	2b09      	cmp	r3, #9
100093a4:	d9e4      	bls.n	10009370 <_strtoull_l.constprop.0+0x90>
100093a6:	0023      	movs	r3, r4
100093a8:	3b41      	subs	r3, #65	@ 0x41
100093aa:	2b19      	cmp	r3, #25
100093ac:	d826      	bhi.n	100093fc <_strtoull_l.constprop.0+0x11c>
100093ae:	3c37      	subs	r4, #55	@ 0x37
100093b0:	45a0      	cmp	r8, r4
100093b2:	dce0      	bgt.n	10009376 <_strtoull_l.constprop.0+0x96>
100093b4:	1c53      	adds	r3, r2, #1
100093b6:	d027      	beq.n	10009408 <_strtoull_l.constprop.0+0x128>
100093b8:	9b04      	ldr	r3, [sp, #16]
100093ba:	2b00      	cmp	r3, #0
100093bc:	d004      	beq.n	100093c8 <_strtoull_l.constprop.0+0xe8>
100093be:	0003      	movs	r3, r0
100093c0:	000c      	movs	r4, r1
100093c2:	2100      	movs	r1, #0
100093c4:	4258      	negs	r0, r3
100093c6:	41a1      	sbcs	r1, r4
100093c8:	9b01      	ldr	r3, [sp, #4]
100093ca:	2b00      	cmp	r3, #0
100093cc:	d004      	beq.n	100093d8 <_strtoull_l.constprop.0+0xf8>
100093ce:	2a00      	cmp	r2, #0
100093d0:	d123      	bne.n	1000941a <_strtoull_l.constprop.0+0x13a>
100093d2:	9b01      	ldr	r3, [sp, #4]
100093d4:	9a03      	ldr	r2, [sp, #12]
100093d6:	601a      	str	r2, [r3, #0]
100093d8:	b007      	add	sp, #28
100093da:	bcf0      	pop	{r4, r5, r6, r7}
100093dc:	46bb      	mov	fp, r7
100093de:	46b2      	mov	sl, r6
100093e0:	46a9      	mov	r9, r5
100093e2:	46a0      	mov	r8, r4
100093e4:	bdf0      	pop	{r4, r5, r6, r7, pc}
100093e6:	782c      	ldrb	r4, [r5, #0]
100093e8:	1c9d      	adds	r5, r3, #2
100093ea:	e794      	b.n	10009316 <_strtoull_l.constprop.0+0x36>
100093ec:	4549      	cmp	r1, r9
100093ee:	d1cb      	bne.n	10009388 <_strtoull_l.constprop.0+0xa8>
100093f0:	9b02      	ldr	r3, [sp, #8]
100093f2:	429c      	cmp	r4, r3
100093f4:	ddc8      	ble.n	10009388 <_strtoull_l.constprop.0+0xa8>
100093f6:	2201      	movs	r2, #1
100093f8:	4252      	negs	r2, r2
100093fa:	e7ce      	b.n	1000939a <_strtoull_l.constprop.0+0xba>
100093fc:	0023      	movs	r3, r4
100093fe:	3b61      	subs	r3, #97	@ 0x61
10009400:	2b19      	cmp	r3, #25
10009402:	d8d7      	bhi.n	100093b4 <_strtoull_l.constprop.0+0xd4>
10009404:	3c57      	subs	r4, #87	@ 0x57
10009406:	e7b4      	b.n	10009372 <_strtoull_l.constprop.0+0x92>
10009408:	2322      	movs	r3, #34	@ 0x22
1000940a:	9a05      	ldr	r2, [sp, #20]
1000940c:	2001      	movs	r0, #1
1000940e:	4240      	negs	r0, r0
10009410:	17c1      	asrs	r1, r0, #31
10009412:	6013      	str	r3, [r2, #0]
10009414:	9b01      	ldr	r3, [sp, #4]
10009416:	2b00      	cmp	r3, #0
10009418:	d0de      	beq.n	100093d8 <_strtoull_l.constprop.0+0xf8>
1000941a:	1e6b      	subs	r3, r5, #1
1000941c:	9303      	str	r3, [sp, #12]
1000941e:	e7d8      	b.n	100093d2 <_strtoull_l.constprop.0+0xf2>
10009420:	782c      	ldrb	r4, [r5, #0]
10009422:	1c9d      	adds	r5, r3, #2
10009424:	2301      	movs	r3, #1
10009426:	9304      	str	r3, [sp, #16]
10009428:	e775      	b.n	10009316 <_strtoull_l.constprop.0+0x36>
1000942a:	2220      	movs	r2, #32
1000942c:	782b      	ldrb	r3, [r5, #0]
1000942e:	4393      	bics	r3, r2
10009430:	2b58      	cmp	r3, #88	@ 0x58
10009432:	d01e      	beq.n	10009472 <_strtoull_l.constprop.0+0x192>
10009434:	2307      	movs	r3, #7
10009436:	9302      	str	r3, [sp, #8]
10009438:	3b08      	subs	r3, #8
1000943a:	469a      	mov	sl, r3
1000943c:	4b17      	ldr	r3, [pc, #92]	@ (1000949c <_strtoull_l.constprop.0+0x1bc>)
1000943e:	4699      	mov	r9, r3
10009440:	2308      	movs	r3, #8
10009442:	9300      	str	r3, [sp, #0]
10009444:	2300      	movs	r3, #0
10009446:	469b      	mov	fp, r3
10009448:	3308      	adds	r3, #8
1000944a:	4698      	mov	r8, r3
1000944c:	e78c      	b.n	10009368 <_strtoull_l.constprop.0+0x88>
1000944e:	2c30      	cmp	r4, #48	@ 0x30
10009450:	d00a      	beq.n	10009468 <_strtoull_l.constprop.0+0x188>
10009452:	230f      	movs	r3, #15
10009454:	9302      	str	r3, [sp, #8]
10009456:	3b10      	subs	r3, #16
10009458:	469a      	mov	sl, r3
1000945a:	4b11      	ldr	r3, [pc, #68]	@ (100094a0 <_strtoull_l.constprop.0+0x1c0>)
1000945c:	4699      	mov	r9, r3
1000945e:	2310      	movs	r3, #16
10009460:	9300      	str	r3, [sp, #0]
10009462:	2300      	movs	r3, #0
10009464:	469b      	mov	fp, r3
10009466:	e77f      	b.n	10009368 <_strtoull_l.constprop.0+0x88>
10009468:	2220      	movs	r2, #32
1000946a:	782b      	ldrb	r3, [r5, #0]
1000946c:	4393      	bics	r3, r2
1000946e:	2b58      	cmp	r3, #88	@ 0x58
10009470:	d1ef      	bne.n	10009452 <_strtoull_l.constprop.0+0x172>
10009472:	230f      	movs	r3, #15
10009474:	9302      	str	r3, [sp, #8]
10009476:	3b10      	subs	r3, #16
10009478:	469a      	mov	sl, r3
1000947a:	4b09      	ldr	r3, [pc, #36]	@ (100094a0 <_strtoull_l.constprop.0+0x1c0>)
1000947c:	786c      	ldrb	r4, [r5, #1]
1000947e:	4699      	mov	r9, r3
10009480:	2310      	movs	r3, #16
10009482:	9300      	str	r3, [sp, #0]
10009484:	2300      	movs	r3, #0
10009486:	469b      	mov	fp, r3
10009488:	3310      	adds	r3, #16
1000948a:	4698      	mov	r8, r3
1000948c:	3502      	adds	r5, #2
1000948e:	e76b      	b.n	10009368 <_strtoull_l.constprop.0+0x88>
10009490:	1000b675 	.word	0x1000b675
10009494:	99999999 	.word	0x99999999
10009498:	19999999 	.word	0x19999999
1000949c:	1fffffff 	.word	0x1fffffff
100094a0:	0fffffff 	.word	0x0fffffff

100094a4 <_strtoull_r>:
100094a4:	b510      	push	{r4, lr}
100094a6:	f7ff ff1b 	bl	100092e0 <_strtoull_l.constprop.0>
100094aa:	bd10      	pop	{r4, pc}

100094ac <iswspace>:
100094ac:	b510      	push	{r4, lr}
100094ae:	2100      	movs	r1, #0
100094b0:	f000 f802 	bl	100094b8 <iswspace_l>
100094b4:	bd10      	pop	{r4, pc}
100094b6:	46c0      	nop			@ (mov r8, r8)

100094b8 <iswspace_l>:
100094b8:	b510      	push	{r4, lr}
100094ba:	f000 f933 	bl	10009724 <_jp2uc_l>
100094be:	0004      	movs	r4, r0
100094c0:	f000 f852 	bl	10009568 <category>
100094c4:	381a      	subs	r0, #26
100094c6:	b2c0      	uxtb	r0, r0
100094c8:	2802      	cmp	r0, #2
100094ca:	d905      	bls.n	100094d8 <iswspace_l+0x20>
100094cc:	2000      	movs	r0, #0
100094ce:	2304      	movs	r3, #4
100094d0:	3c09      	subs	r4, #9
100094d2:	42a3      	cmp	r3, r4
100094d4:	4140      	adcs	r0, r0
100094d6:	bd10      	pop	{r4, pc}
100094d8:	2001      	movs	r0, #1
100094da:	e7fc      	b.n	100094d6 <iswspace_l+0x1e>

100094dc <stpncpy>:
100094dc:	000b      	movs	r3, r1
100094de:	4303      	orrs	r3, r0
100094e0:	b5f0      	push	{r4, r5, r6, r7, lr}
100094e2:	0004      	movs	r4, r0
100094e4:	079b      	lsls	r3, r3, #30
100094e6:	d101      	bne.n	100094ec <stpncpy+0x10>
100094e8:	2a03      	cmp	r2, #3
100094ea:	d81c      	bhi.n	10009526 <stpncpy+0x4a>
100094ec:	0020      	movs	r0, r4
100094ee:	2300      	movs	r3, #0
100094f0:	e008      	b.n	10009504 <stpncpy+0x28>
100094f2:	5ccd      	ldrb	r5, [r1, r3]
100094f4:	1e57      	subs	r7, r2, #1
100094f6:	54e5      	strb	r5, [r4, r3]
100094f8:	1c46      	adds	r6, r0, #1
100094fa:	3301      	adds	r3, #1
100094fc:	2d00      	cmp	r5, #0
100094fe:	d004      	beq.n	1000950a <stpncpy+0x2e>
10009500:	003a      	movs	r2, r7
10009502:	0030      	movs	r0, r6
10009504:	2a00      	cmp	r2, #0
10009506:	d1f4      	bne.n	100094f2 <stpncpy+0x16>
10009508:	bdf0      	pop	{r4, r5, r6, r7, pc}
1000950a:	0033      	movs	r3, r6
1000950c:	2100      	movs	r1, #0
1000950e:	19f4      	adds	r4, r6, r7
10009510:	2f00      	cmp	r7, #0
10009512:	d004      	beq.n	1000951e <stpncpy+0x42>
10009514:	7019      	strb	r1, [r3, #0]
10009516:	3301      	adds	r3, #1
10009518:	42a3      	cmp	r3, r4
1000951a:	d1fb      	bne.n	10009514 <stpncpy+0x38>
1000951c:	1886      	adds	r6, r0, r2
1000951e:	2800      	cmp	r0, #0
10009520:	d1f2      	bne.n	10009508 <stpncpy+0x2c>
10009522:	0030      	movs	r0, r6
10009524:	e7f0      	b.n	10009508 <stpncpy+0x2c>
10009526:	4d07      	ldr	r5, [pc, #28]	@ (10009544 <stpncpy+0x68>)
10009528:	e004      	b.n	10009534 <stpncpy+0x58>
1000952a:	3a04      	subs	r2, #4
1000952c:	3104      	adds	r1, #4
1000952e:	c401      	stmia	r4!, {r0}
10009530:	2a03      	cmp	r2, #3
10009532:	d9db      	bls.n	100094ec <stpncpy+0x10>
10009534:	6808      	ldr	r0, [r1, #0]
10009536:	4b04      	ldr	r3, [pc, #16]	@ (10009548 <stpncpy+0x6c>)
10009538:	18c3      	adds	r3, r0, r3
1000953a:	4383      	bics	r3, r0
1000953c:	422b      	tst	r3, r5
1000953e:	d0f4      	beq.n	1000952a <stpncpy+0x4e>
10009540:	e7d4      	b.n	100094ec <stpncpy+0x10>
10009542:	46c0      	nop			@ (mov r8, r8)
10009544:	80808080 	.word	0x80808080
10009548:	fefefeff 	.word	0xfefefeff

1000954c <__ascii_wctomb>:
1000954c:	2900      	cmp	r1, #0
1000954e:	d009      	beq.n	10009564 <__ascii_wctomb+0x18>
10009550:	2aff      	cmp	r2, #255	@ 0xff
10009552:	d802      	bhi.n	1000955a <__ascii_wctomb+0xe>
10009554:	2001      	movs	r0, #1
10009556:	700a      	strb	r2, [r1, #0]
10009558:	4770      	bx	lr
1000955a:	238a      	movs	r3, #138	@ 0x8a
1000955c:	6003      	str	r3, [r0, #0]
1000955e:	2001      	movs	r0, #1
10009560:	4240      	negs	r0, r0
10009562:	e7f9      	b.n	10009558 <__ascii_wctomb+0xc>
10009564:	2000      	movs	r0, #0
10009566:	e7f7      	b.n	10009558 <__ascii_wctomb+0xc>

10009568 <category>:
10009568:	4b10      	ldr	r3, [pc, #64]	@ (100095ac <category+0x44>)
1000956a:	b5f0      	push	{r4, r5, r6, r7, lr}
1000956c:	4298      	cmp	r0, r3
1000956e:	d819      	bhi.n	100095a4 <category+0x3c>
10009570:	2500      	movs	r5, #0
10009572:	4e0f      	ldr	r6, [pc, #60]	@ (100095b0 <category+0x48>)
10009574:	4f0f      	ldr	r7, [pc, #60]	@ (100095b4 <category+0x4c>)
10009576:	e002      	b.n	1000957e <category+0x16>
10009578:	1c4d      	adds	r5, r1, #1
1000957a:	42ae      	cmp	r6, r5
1000957c:	db12      	blt.n	100095a4 <category+0x3c>
1000957e:	19a9      	adds	r1, r5, r6
10009580:	1049      	asrs	r1, r1, #1
10009582:	004b      	lsls	r3, r1, #1
10009584:	185b      	adds	r3, r3, r1
10009586:	005b      	lsls	r3, r3, #1
10009588:	18fb      	adds	r3, r7, r3
1000958a:	885a      	ldrh	r2, [r3, #2]
1000958c:	785c      	ldrb	r4, [r3, #1]
1000958e:	0212      	lsls	r2, r2, #8
10009590:	4322      	orrs	r2, r4
10009592:	889c      	ldrh	r4, [r3, #4]
10009594:	18a4      	adds	r4, r4, r2
10009596:	42a0      	cmp	r0, r4
10009598:	d8ee      	bhi.n	10009578 <category+0x10>
1000959a:	4290      	cmp	r0, r2
1000959c:	d204      	bcs.n	100095a8 <category+0x40>
1000959e:	1e4e      	subs	r6, r1, #1
100095a0:	42ae      	cmp	r6, r5
100095a2:	daec      	bge.n	1000957e <category+0x16>
100095a4:	20ff      	movs	r0, #255	@ 0xff
100095a6:	bdf0      	pop	{r4, r5, r6, r7, pc}
100095a8:	7818      	ldrb	r0, [r3, #0]
100095aa:	e7fc      	b.n	100095a6 <category+0x3e>
100095ac:	000e01ef 	.word	0x000e01ef
100095b0:	000008f9 	.word	0x000008f9
100095b4:	1000ba20 	.word	0x1000ba20

100095b8 <_sbrk_r>:
100095b8:	2300      	movs	r3, #0
100095ba:	b570      	push	{r4, r5, r6, lr}
100095bc:	4c06      	ldr	r4, [pc, #24]	@ (100095d8 <_sbrk_r+0x20>)
100095be:	0005      	movs	r5, r0
100095c0:	0008      	movs	r0, r1
100095c2:	6023      	str	r3, [r4, #0]
100095c4:	f7fb fa10 	bl	100049e8 <_sbrk>
100095c8:	1c43      	adds	r3, r0, #1
100095ca:	d000      	beq.n	100095ce <_sbrk_r+0x16>
100095cc:	bd70      	pop	{r4, r5, r6, pc}
100095ce:	6823      	ldr	r3, [r4, #0]
100095d0:	2b00      	cmp	r3, #0
100095d2:	d0fb      	beq.n	100095cc <_sbrk_r+0x14>
100095d4:	602b      	str	r3, [r5, #0]
100095d6:	e7f9      	b.n	100095cc <_sbrk_r+0x14>
100095d8:	20000e4c 	.word	0x20000e4c

100095dc <__errno>:
100095dc:	4b01      	ldr	r3, [pc, #4]	@ (100095e4 <__errno+0x8>)
100095de:	6818      	ldr	r0, [r3, #0]
100095e0:	4770      	bx	lr
100095e2:	46c0      	nop			@ (mov r8, r8)
100095e4:	2000076c 	.word	0x2000076c

100095e8 <__jp2uc>:
100095e8:	0a03      	lsrs	r3, r0, #8
100095ea:	b530      	push	{r4, r5, lr}
100095ec:	b2db      	uxtb	r3, r3
100095ee:	0005      	movs	r5, r0
100095f0:	b2c4      	uxtb	r4, r0
100095f2:	2902      	cmp	r1, #2
100095f4:	d023      	beq.n	1000963e <__jp2uc+0x56>
100095f6:	2903      	cmp	r1, #3
100095f8:	d11c      	bne.n	10009634 <__jp2uc+0x4c>
100095fa:	001a      	movs	r2, r3
100095fc:	3250      	adds	r2, #80	@ 0x50
100095fe:	b2d2      	uxtb	r2, r2
10009600:	2a1f      	cmp	r2, #31
10009602:	d90a      	bls.n	1000961a <__jp2uc+0x32>
10009604:	001a      	movs	r2, r3
10009606:	3230      	adds	r2, #48	@ 0x30
10009608:	b2d2      	uxtb	r2, r2
1000960a:	2a24      	cmp	r2, #36	@ 0x24
1000960c:	d830      	bhi.n	10009670 <__jp2uc+0x88>
1000960e:	4a38      	ldr	r2, [pc, #224]	@ (100096f0 <__jp2uc+0x108>)
10009610:	4295      	cmp	r5, r2
10009612:	d92a      	bls.n	1000966a <__jp2uc+0x82>
10009614:	2001      	movs	r0, #1
10009616:	4240      	negs	r0, r0
10009618:	bd30      	pop	{r4, r5, pc}
1000961a:	4a36      	ldr	r2, [pc, #216]	@ (100096f4 <__jp2uc+0x10c>)
1000961c:	4295      	cmp	r5, r2
1000961e:	d8f9      	bhi.n	10009614 <__jp2uc+0x2c>
10009620:	4935      	ldr	r1, [pc, #212]	@ (100096f8 <__jp2uc+0x110>)
10009622:	3bb0      	subs	r3, #176	@ 0xb0
10009624:	01d8      	lsls	r0, r3, #7
10009626:	1ac0      	subs	r0, r0, r3
10009628:	0040      	lsls	r0, r0, #1
1000962a:	3ca1      	subs	r4, #161	@ 0xa1
1000962c:	1900      	adds	r0, r0, r4
1000962e:	0040      	lsls	r0, r0, #1
10009630:	5a40      	ldrh	r0, [r0, r1]
10009632:	e7f1      	b.n	10009618 <__jp2uc+0x30>
10009634:	3b80      	subs	r3, #128	@ 0x80
10009636:	3c80      	subs	r4, #128	@ 0x80
10009638:	b2db      	uxtb	r3, r3
1000963a:	b2e4      	uxtb	r4, r4
1000963c:	e7dd      	b.n	100095fa <__jp2uc+0x12>
1000963e:	2c9e      	cmp	r4, #158	@ 0x9e
10009640:	d909      	bls.n	10009656 <__jp2uc+0x6e>
10009642:	3423      	adds	r4, #35	@ 0x23
10009644:	2280      	movs	r2, #128	@ 0x80
10009646:	b2e4      	uxtb	r4, r4
10009648:	2b9f      	cmp	r3, #159	@ 0x9f
1000964a:	d809      	bhi.n	10009660 <__jp2uc+0x78>
1000964c:	3b70      	subs	r3, #112	@ 0x70
1000964e:	005b      	lsls	r3, r3, #1
10009650:	18d3      	adds	r3, r2, r3
10009652:	b2db      	uxtb	r3, r3
10009654:	e7d1      	b.n	100095fa <__jp2uc+0x12>
10009656:	3c7e      	subs	r4, #126	@ 0x7e
10009658:	227f      	movs	r2, #127	@ 0x7f
1000965a:	b2e4      	uxtb	r4, r4
1000965c:	2b9f      	cmp	r3, #159	@ 0x9f
1000965e:	d9f5      	bls.n	1000964c <__jp2uc+0x64>
10009660:	3350      	adds	r3, #80	@ 0x50
10009662:	005b      	lsls	r3, r3, #1
10009664:	18d3      	adds	r3, r2, r3
10009666:	b2db      	uxtb	r3, r3
10009668:	e7c7      	b.n	100095fa <__jp2uc+0x12>
1000966a:	4924      	ldr	r1, [pc, #144]	@ (100096fc <__jp2uc+0x114>)
1000966c:	3bd0      	subs	r3, #208	@ 0xd0
1000966e:	e7d9      	b.n	10009624 <__jp2uc+0x3c>
10009670:	335f      	adds	r3, #95	@ 0x5f
10009672:	b2da      	uxtb	r2, r3
10009674:	2a07      	cmp	r2, #7
10009676:	d8cd      	bhi.n	10009614 <__jp2uc+0x2c>
10009678:	4b21      	ldr	r3, [pc, #132]	@ (10009700 <__jp2uc+0x118>)
1000967a:	0092      	lsls	r2, r2, #2
1000967c:	589b      	ldr	r3, [r3, r2]
1000967e:	469f      	mov	pc, r3
10009680:	2cf1      	cmp	r4, #241	@ 0xf1
10009682:	d8c7      	bhi.n	10009614 <__jp2uc+0x2c>
10009684:	4a1f      	ldr	r2, [pc, #124]	@ (10009704 <__jp2uc+0x11c>)
10009686:	3ca1      	subs	r4, #161	@ 0xa1
10009688:	0060      	lsls	r0, r4, #1
1000968a:	5a80      	ldrh	r0, [r0, r2]
1000968c:	2800      	cmp	r0, #0
1000968e:	d0c1      	beq.n	10009614 <__jp2uc+0x2c>
10009690:	e7c2      	b.n	10009618 <__jp2uc+0x30>
10009692:	2cd8      	cmp	r4, #216	@ 0xd8
10009694:	d8be      	bhi.n	10009614 <__jp2uc+0x2c>
10009696:	4a1c      	ldr	r2, [pc, #112]	@ (10009708 <__jp2uc+0x120>)
10009698:	3ca1      	subs	r4, #161	@ 0xa1
1000969a:	0060      	lsls	r0, r4, #1
1000969c:	5a80      	ldrh	r0, [r0, r2]
1000969e:	2800      	cmp	r0, #0
100096a0:	d0b8      	beq.n	10009614 <__jp2uc+0x2c>
100096a2:	e7b9      	b.n	10009618 <__jp2uc+0x30>
100096a4:	2cf6      	cmp	r4, #246	@ 0xf6
100096a6:	d8b5      	bhi.n	10009614 <__jp2uc+0x2c>
100096a8:	23c0      	movs	r3, #192	@ 0xc0
100096aa:	019b      	lsls	r3, r3, #6
100096ac:	18e0      	adds	r0, r4, r3
100096ae:	e7b3      	b.n	10009618 <__jp2uc+0x30>
100096b0:	2cf3      	cmp	r4, #243	@ 0xf3
100096b2:	d8af      	bhi.n	10009614 <__jp2uc+0x2c>
100096b4:	4b15      	ldr	r3, [pc, #84]	@ (1000970c <__jp2uc+0x124>)
100096b6:	18e0      	adds	r0, r4, r3
100096b8:	e7ae      	b.n	10009618 <__jp2uc+0x30>
100096ba:	4b15      	ldr	r3, [pc, #84]	@ (10009710 <__jp2uc+0x128>)
100096bc:	5ce3      	ldrb	r3, [r4, r3]
100096be:	2b00      	cmp	r3, #0
100096c0:	d0a8      	beq.n	10009614 <__jp2uc+0x2c>
100096c2:	4b14      	ldr	r3, [pc, #80]	@ (10009714 <__jp2uc+0x12c>)
100096c4:	18e0      	adds	r0, r4, r3
100096c6:	e7a7      	b.n	10009618 <__jp2uc+0x30>
100096c8:	4a13      	ldr	r2, [pc, #76]	@ (10009718 <__jp2uc+0x130>)
100096ca:	3ca1      	subs	r4, #161	@ 0xa1
100096cc:	0060      	lsls	r0, r4, #1
100096ce:	5a80      	ldrh	r0, [r0, r2]
100096d0:	2800      	cmp	r0, #0
100096d2:	d09f      	beq.n	10009614 <__jp2uc+0x2c>
100096d4:	e7a0      	b.n	10009618 <__jp2uc+0x30>
100096d6:	4a11      	ldr	r2, [pc, #68]	@ (1000971c <__jp2uc+0x134>)
100096d8:	3ca1      	subs	r4, #161	@ 0xa1
100096da:	0060      	lsls	r0, r4, #1
100096dc:	5a80      	ldrh	r0, [r0, r2]
100096de:	e79b      	b.n	10009618 <__jp2uc+0x30>
100096e0:	2cc0      	cmp	r4, #192	@ 0xc0
100096e2:	d900      	bls.n	100096e6 <__jp2uc+0xfe>
100096e4:	e796      	b.n	10009614 <__jp2uc+0x2c>
100096e6:	4a0e      	ldr	r2, [pc, #56]	@ (10009720 <__jp2uc+0x138>)
100096e8:	3ca1      	subs	r4, #161	@ 0xa1
100096ea:	0060      	lsls	r0, r4, #1
100096ec:	5a80      	ldrh	r0, [r0, r2]
100096ee:	e793      	b.n	10009618 <__jp2uc+0x30>
100096f0:	0000f4a6 	.word	0x0000f4a6
100096f4:	0000cfd3 	.word	0x0000cfd3
100096f8:	10010aac 	.word	0x10010aac
100096fc:	1000f030 	.word	0x1000f030
10009700:	1000effc 	.word	0x1000effc
10009704:	10012218 	.word	0x10012218
10009708:	100122bc 	.word	0x100122bc
1000970c:	00002fa0 	.word	0x00002fa0
10009710:	1001228b 	.word	0x1001228b
10009714:	0000fe60 	.word	0x0000fe60
10009718:	10012388 	.word	0x10012388
1000971c:	10012444 	.word	0x10012444
10009720:	100121d8 	.word	0x100121d8

10009724 <_jp2uc_l>:
10009724:	b570      	push	{r4, r5, r6, lr}
10009726:	0005      	movs	r5, r0
10009728:	2900      	cmp	r1, #0
1000972a:	d018      	beq.n	1000975e <_jp2uc_l+0x3a>
1000972c:	312b      	adds	r1, #43	@ 0x2b
1000972e:	31ff      	adds	r1, #255	@ 0xff
10009730:	000c      	movs	r4, r1
10009732:	0020      	movs	r0, r4
10009734:	4911      	ldr	r1, [pc, #68]	@ (1000977c <_jp2uc_l+0x58>)
10009736:	f7fd fbdf 	bl	10006ef8 <strcmp>
1000973a:	2800      	cmp	r0, #0
1000973c:	d104      	bne.n	10009748 <_jp2uc_l+0x24>
1000973e:	2101      	movs	r1, #1
10009740:	0028      	movs	r0, r5
10009742:	f7ff ff51 	bl	100095e8 <__jp2uc>
10009746:	bd70      	pop	{r4, r5, r6, pc}
10009748:	0020      	movs	r0, r4
1000974a:	490d      	ldr	r1, [pc, #52]	@ (10009780 <_jp2uc_l+0x5c>)
1000974c:	f7fd fbd4 	bl	10006ef8 <strcmp>
10009750:	2800      	cmp	r0, #0
10009752:	d106      	bne.n	10009762 <_jp2uc_l+0x3e>
10009754:	2102      	movs	r1, #2
10009756:	0028      	movs	r0, r5
10009758:	f7ff ff46 	bl	100095e8 <__jp2uc>
1000975c:	e7f3      	b.n	10009746 <_jp2uc_l+0x22>
1000975e:	4c09      	ldr	r4, [pc, #36]	@ (10009784 <_jp2uc_l+0x60>)
10009760:	e7e7      	b.n	10009732 <_jp2uc_l+0xe>
10009762:	0020      	movs	r0, r4
10009764:	4908      	ldr	r1, [pc, #32]	@ (10009788 <_jp2uc_l+0x64>)
10009766:	f7fd fbc7 	bl	10006ef8 <strcmp>
1000976a:	0003      	movs	r3, r0
1000976c:	0028      	movs	r0, r5
1000976e:	2b00      	cmp	r3, #0
10009770:	d1e9      	bne.n	10009746 <_jp2uc_l+0x22>
10009772:	2103      	movs	r1, #3
10009774:	f7ff ff38 	bl	100095e8 <__jp2uc>
10009778:	e7e5      	b.n	10009746 <_jp2uc_l+0x22>
1000977a:	46c0      	nop			@ (mov r8, r8)
1000977c:	1000f01c 	.word	0x1000f01c
10009780:	1000f020 	.word	0x1000f020
10009784:	2000072a 	.word	0x2000072a
10009788:	1000f028 	.word	0x1000f028

1000978c <_sungetc_r>:
1000978c:	b570      	push	{r4, r5, r6, lr}
1000978e:	0014      	movs	r4, r2
10009790:	1c4b      	adds	r3, r1, #1
10009792:	d01b      	beq.n	100097cc <_sungetc_r+0x40>
10009794:	8993      	ldrh	r3, [r2, #12]
10009796:	2220      	movs	r2, #32
10009798:	25ff      	movs	r5, #255	@ 0xff
1000979a:	4393      	bics	r3, r2
1000979c:	6b22      	ldr	r2, [r4, #48]	@ 0x30
1000979e:	81a3      	strh	r3, [r4, #12]
100097a0:	b2ce      	uxtb	r6, r1
100097a2:	6863      	ldr	r3, [r4, #4]
100097a4:	400d      	ands	r5, r1
100097a6:	2a00      	cmp	r2, #0
100097a8:	d013      	beq.n	100097d2 <_sungetc_r+0x46>
100097aa:	6b62      	ldr	r2, [r4, #52]	@ 0x34
100097ac:	429a      	cmp	r2, r3
100097ae:	dd08      	ble.n	100097c2 <_sungetc_r+0x36>
100097b0:	6823      	ldr	r3, [r4, #0]
100097b2:	3b01      	subs	r3, #1
100097b4:	6023      	str	r3, [r4, #0]
100097b6:	701e      	strb	r6, [r3, #0]
100097b8:	6863      	ldr	r3, [r4, #4]
100097ba:	3301      	adds	r3, #1
100097bc:	6063      	str	r3, [r4, #4]
100097be:	0028      	movs	r0, r5
100097c0:	bd70      	pop	{r4, r5, r6, pc}
100097c2:	0021      	movs	r1, r4
100097c4:	f000 fe7e 	bl	1000a4c4 <__submore>
100097c8:	2800      	cmp	r0, #0
100097ca:	d0f1      	beq.n	100097b0 <_sungetc_r+0x24>
100097cc:	2501      	movs	r5, #1
100097ce:	426d      	negs	r5, r5
100097d0:	e7f5      	b.n	100097be <_sungetc_r+0x32>
100097d2:	6921      	ldr	r1, [r4, #16]
100097d4:	6822      	ldr	r2, [r4, #0]
100097d6:	2900      	cmp	r1, #0
100097d8:	d005      	beq.n	100097e6 <_sungetc_r+0x5a>
100097da:	4291      	cmp	r1, r2
100097dc:	d203      	bcs.n	100097e6 <_sungetc_r+0x5a>
100097de:	1e51      	subs	r1, r2, #1
100097e0:	7808      	ldrb	r0, [r1, #0]
100097e2:	42a8      	cmp	r0, r5
100097e4:	d00d      	beq.n	10009802 <_sungetc_r+0x76>
100097e6:	63e3      	str	r3, [r4, #60]	@ 0x3c
100097e8:	0023      	movs	r3, r4
100097ea:	3340      	adds	r3, #64	@ 0x40
100097ec:	6323      	str	r3, [r4, #48]	@ 0x30
100097ee:	2303      	movs	r3, #3
100097f0:	6363      	str	r3, [r4, #52]	@ 0x34
100097f2:	333f      	adds	r3, #63	@ 0x3f
100097f4:	63a2      	str	r2, [r4, #56]	@ 0x38
100097f6:	54e6      	strb	r6, [r4, r3]
100097f8:	0023      	movs	r3, r4
100097fa:	3342      	adds	r3, #66	@ 0x42
100097fc:	6023      	str	r3, [r4, #0]
100097fe:	2301      	movs	r3, #1
10009800:	e7dc      	b.n	100097bc <_sungetc_r+0x30>
10009802:	6021      	str	r1, [r4, #0]
10009804:	3301      	adds	r3, #1
10009806:	e7d9      	b.n	100097bc <_sungetc_r+0x30>

10009808 <__ssrefill_r>:
10009808:	b510      	push	{r4, lr}
1000980a:	000c      	movs	r4, r1
1000980c:	6b09      	ldr	r1, [r1, #48]	@ 0x30
1000980e:	2900      	cmp	r1, #0
10009810:	d00f      	beq.n	10009832 <__ssrefill_r+0x2a>
10009812:	0023      	movs	r3, r4
10009814:	3340      	adds	r3, #64	@ 0x40
10009816:	4299      	cmp	r1, r3
10009818:	d001      	beq.n	1000981e <__ssrefill_r+0x16>
1000981a:	f7fe fe0d 	bl	10008438 <_free_r>
1000981e:	2300      	movs	r3, #0
10009820:	6323      	str	r3, [r4, #48]	@ 0x30
10009822:	6be3      	ldr	r3, [r4, #60]	@ 0x3c
10009824:	6063      	str	r3, [r4, #4]
10009826:	2b00      	cmp	r3, #0
10009828:	d003      	beq.n	10009832 <__ssrefill_r+0x2a>
1000982a:	2000      	movs	r0, #0
1000982c:	6ba3      	ldr	r3, [r4, #56]	@ 0x38
1000982e:	6023      	str	r3, [r4, #0]
10009830:	bd10      	pop	{r4, pc}
10009832:	2200      	movs	r2, #0
10009834:	2120      	movs	r1, #32
10009836:	2001      	movs	r0, #1
10009838:	6062      	str	r2, [r4, #4]
1000983a:	89a2      	ldrh	r2, [r4, #12]
1000983c:	6923      	ldr	r3, [r4, #16]
1000983e:	430a      	orrs	r2, r1
10009840:	81a2      	strh	r2, [r4, #12]
10009842:	4240      	negs	r0, r0
10009844:	e7f3      	b.n	1000982e <__ssrefill_r+0x26>
10009846:	46c0      	nop			@ (mov r8, r8)

10009848 <_sfread_r>:
10009848:	b5f0      	push	{r4, r5, r6, r7, lr}
1000984a:	46de      	mov	lr, fp
1000984c:	4657      	mov	r7, sl
1000984e:	464e      	mov	r6, r9
10009850:	4645      	mov	r5, r8
10009852:	4683      	mov	fp, r0
10009854:	0018      	movs	r0, r3
10009856:	b5e0      	push	{r5, r6, r7, lr}
10009858:	4350      	muls	r0, r2
1000985a:	b085      	sub	sp, #20
1000985c:	000f      	movs	r7, r1
1000985e:	9c0e      	ldr	r4, [sp, #56]	@ 0x38
10009860:	9301      	str	r3, [sp, #4]
10009862:	2800      	cmp	r0, #0
10009864:	d035      	beq.n	100098d2 <_sfread_r+0x8a>
10009866:	2300      	movs	r3, #0
10009868:	4698      	mov	r8, r3
1000986a:	3340      	adds	r3, #64	@ 0x40
1000986c:	4699      	mov	r9, r3
1000986e:	6865      	ldr	r5, [r4, #4]
10009870:	0006      	movs	r6, r0
10009872:	6821      	ldr	r1, [r4, #0]
10009874:	44a1      	add	r9, r4
10009876:	42a8      	cmp	r0, r5
10009878:	d920      	bls.n	100098bc <_sfread_r+0x74>
1000987a:	9002      	str	r0, [sp, #8]
1000987c:	9203      	str	r2, [sp, #12]
1000987e:	0038      	movs	r0, r7
10009880:	002a      	movs	r2, r5
10009882:	f7f9 fcc9 	bl	10003218 <__wrap___aeabi_memcpy>
10009886:	6823      	ldr	r3, [r4, #0]
10009888:	6b21      	ldr	r1, [r4, #48]	@ 0x30
1000988a:	195b      	adds	r3, r3, r5
1000988c:	6023      	str	r3, [r4, #0]
1000988e:	4643      	mov	r3, r8
10009890:	46b2      	mov	sl, r6
10009892:	6063      	str	r3, [r4, #4]
10009894:	197f      	adds	r7, r7, r5
10009896:	1b76      	subs	r6, r6, r5
10009898:	2900      	cmp	r1, #0
1000989a:	d021      	beq.n	100098e0 <_sfread_r+0x98>
1000989c:	4549      	cmp	r1, r9
1000989e:	d002      	beq.n	100098a6 <_sfread_r+0x5e>
100098a0:	4658      	mov	r0, fp
100098a2:	f7fe fdc9 	bl	10008438 <_free_r>
100098a6:	4643      	mov	r3, r8
100098a8:	6323      	str	r3, [r4, #48]	@ 0x30
100098aa:	6be3      	ldr	r3, [r4, #60]	@ 0x3c
100098ac:	6063      	str	r3, [r4, #4]
100098ae:	2b00      	cmp	r3, #0
100098b0:	d016      	beq.n	100098e0 <_sfread_r+0x98>
100098b2:	6ba1      	ldr	r1, [r4, #56]	@ 0x38
100098b4:	001d      	movs	r5, r3
100098b6:	6021      	str	r1, [r4, #0]
100098b8:	42b3      	cmp	r3, r6
100098ba:	d3e0      	bcc.n	1000987e <_sfread_r+0x36>
100098bc:	0032      	movs	r2, r6
100098be:	0038      	movs	r0, r7
100098c0:	f7f9 fcaa 	bl	10003218 <__wrap___aeabi_memcpy>
100098c4:	6863      	ldr	r3, [r4, #4]
100098c6:	9801      	ldr	r0, [sp, #4]
100098c8:	1b9b      	subs	r3, r3, r6
100098ca:	6063      	str	r3, [r4, #4]
100098cc:	6823      	ldr	r3, [r4, #0]
100098ce:	199b      	adds	r3, r3, r6
100098d0:	6023      	str	r3, [r4, #0]
100098d2:	b005      	add	sp, #20
100098d4:	bcf0      	pop	{r4, r5, r6, r7}
100098d6:	46bb      	mov	fp, r7
100098d8:	46b2      	mov	sl, r6
100098da:	46a9      	mov	r9, r5
100098dc:	46a0      	mov	r8, r4
100098de:	bdf0      	pop	{r4, r5, r6, r7, pc}
100098e0:	6923      	ldr	r3, [r4, #16]
100098e2:	2120      	movs	r1, #32
100098e4:	6023      	str	r3, [r4, #0]
100098e6:	2300      	movs	r3, #0
100098e8:	6063      	str	r3, [r4, #4]
100098ea:	89a3      	ldrh	r3, [r4, #12]
100098ec:	9802      	ldr	r0, [sp, #8]
100098ee:	430b      	orrs	r3, r1
100098f0:	81a3      	strh	r3, [r4, #12]
100098f2:	4653      	mov	r3, sl
100098f4:	9a03      	ldr	r2, [sp, #12]
100098f6:	1940      	adds	r0, r0, r5
100098f8:	0011      	movs	r1, r2
100098fa:	1ac0      	subs	r0, r0, r3
100098fc:	f7f8 fc9e 	bl	1000223c <__wrap___aeabi_uidiv>
10009900:	e7e7      	b.n	100098d2 <_sfread_r+0x8a>
10009902:	46c0      	nop			@ (mov r8, r8)

10009904 <__ascii_mbtowc>:
10009904:	b082      	sub	sp, #8
10009906:	2900      	cmp	r1, #0
10009908:	d00a      	beq.n	10009920 <__ascii_mbtowc+0x1c>
1000990a:	2a00      	cmp	r2, #0
1000990c:	d00b      	beq.n	10009926 <__ascii_mbtowc+0x22>
1000990e:	2b00      	cmp	r3, #0
10009910:	d00b      	beq.n	1000992a <__ascii_mbtowc+0x26>
10009912:	7813      	ldrb	r3, [r2, #0]
10009914:	600b      	str	r3, [r1, #0]
10009916:	7810      	ldrb	r0, [r2, #0]
10009918:	1e43      	subs	r3, r0, #1
1000991a:	4198      	sbcs	r0, r3
1000991c:	b002      	add	sp, #8
1000991e:	4770      	bx	lr
10009920:	a901      	add	r1, sp, #4
10009922:	2a00      	cmp	r2, #0
10009924:	d1f3      	bne.n	1000990e <__ascii_mbtowc+0xa>
10009926:	2000      	movs	r0, #0
10009928:	e7f8      	b.n	1000991c <__ascii_mbtowc+0x18>
1000992a:	2002      	movs	r0, #2
1000992c:	4240      	negs	r0, r0
1000992e:	e7f5      	b.n	1000991c <__ascii_mbtowc+0x18>

10009930 <memmove>:
10009930:	b5f0      	push	{r4, r5, r6, r7, lr}
10009932:	4288      	cmp	r0, r1
10009934:	d90a      	bls.n	1000994c <memmove+0x1c>
10009936:	188b      	adds	r3, r1, r2
10009938:	4298      	cmp	r0, r3
1000993a:	d207      	bcs.n	1000994c <memmove+0x1c>
1000993c:	1e53      	subs	r3, r2, #1
1000993e:	2a00      	cmp	r2, #0
10009940:	d003      	beq.n	1000994a <memmove+0x1a>
10009942:	5cca      	ldrb	r2, [r1, r3]
10009944:	54c2      	strb	r2, [r0, r3]
10009946:	3b01      	subs	r3, #1
10009948:	d2fb      	bcs.n	10009942 <memmove+0x12>
1000994a:	bdf0      	pop	{r4, r5, r6, r7, pc}
1000994c:	0005      	movs	r5, r0
1000994e:	2a0f      	cmp	r2, #15
10009950:	d80a      	bhi.n	10009968 <memmove+0x38>
10009952:	1e56      	subs	r6, r2, #1
10009954:	2a00      	cmp	r2, #0
10009956:	d0f8      	beq.n	1000994a <memmove+0x1a>
10009958:	2300      	movs	r3, #0
1000995a:	5ccc      	ldrb	r4, [r1, r3]
1000995c:	001a      	movs	r2, r3
1000995e:	54ec      	strb	r4, [r5, r3]
10009960:	3301      	adds	r3, #1
10009962:	4296      	cmp	r6, r2
10009964:	d1f9      	bne.n	1000995a <memmove+0x2a>
10009966:	e7f0      	b.n	1000994a <memmove+0x1a>
10009968:	2403      	movs	r4, #3
1000996a:	0003      	movs	r3, r0
1000996c:	0026      	movs	r6, r4
1000996e:	430b      	orrs	r3, r1
10009970:	401e      	ands	r6, r3
10009972:	421c      	tst	r4, r3
10009974:	d130      	bne.n	100099d8 <memmove+0xa8>
10009976:	0015      	movs	r5, r2
10009978:	3d10      	subs	r5, #16
1000997a:	092d      	lsrs	r5, r5, #4
1000997c:	0003      	movs	r3, r0
1000997e:	000c      	movs	r4, r1
10009980:	46ac      	mov	ip, r5
10009982:	012f      	lsls	r7, r5, #4
10009984:	183f      	adds	r7, r7, r0
10009986:	6825      	ldr	r5, [r4, #0]
10009988:	601d      	str	r5, [r3, #0]
1000998a:	6865      	ldr	r5, [r4, #4]
1000998c:	605d      	str	r5, [r3, #4]
1000998e:	68a5      	ldr	r5, [r4, #8]
10009990:	609d      	str	r5, [r3, #8]
10009992:	68e5      	ldr	r5, [r4, #12]
10009994:	3410      	adds	r4, #16
10009996:	60dd      	str	r5, [r3, #12]
10009998:	001d      	movs	r5, r3
1000999a:	3310      	adds	r3, #16
1000999c:	42bd      	cmp	r5, r7
1000999e:	d1f2      	bne.n	10009986 <memmove+0x56>
100099a0:	4665      	mov	r5, ip
100099a2:	230f      	movs	r3, #15
100099a4:	240c      	movs	r4, #12
100099a6:	3501      	adds	r5, #1
100099a8:	012d      	lsls	r5, r5, #4
100099aa:	1949      	adds	r1, r1, r5
100099ac:	4013      	ands	r3, r2
100099ae:	1945      	adds	r5, r0, r5
100099b0:	4214      	tst	r4, r2
100099b2:	d013      	beq.n	100099dc <memmove+0xac>
100099b4:	598c      	ldr	r4, [r1, r6]
100099b6:	51ac      	str	r4, [r5, r6]
100099b8:	3604      	adds	r6, #4
100099ba:	1b9c      	subs	r4, r3, r6
100099bc:	2c03      	cmp	r4, #3
100099be:	d8f9      	bhi.n	100099b4 <memmove+0x84>
100099c0:	3b04      	subs	r3, #4
100099c2:	089b      	lsrs	r3, r3, #2
100099c4:	3301      	adds	r3, #1
100099c6:	009b      	lsls	r3, r3, #2
100099c8:	18ed      	adds	r5, r5, r3
100099ca:	18c9      	adds	r1, r1, r3
100099cc:	2303      	movs	r3, #3
100099ce:	401a      	ands	r2, r3
100099d0:	1e56      	subs	r6, r2, #1
100099d2:	2a00      	cmp	r2, #0
100099d4:	d1c0      	bne.n	10009958 <memmove+0x28>
100099d6:	e7b8      	b.n	1000994a <memmove+0x1a>
100099d8:	1e56      	subs	r6, r2, #1
100099da:	e7bd      	b.n	10009958 <memmove+0x28>
100099dc:	001a      	movs	r2, r3
100099de:	e7b8      	b.n	10009952 <memmove+0x22>

100099e0 <_Balloc>:
100099e0:	6c43      	ldr	r3, [r0, #68]	@ 0x44
100099e2:	b570      	push	{r4, r5, r6, lr}
100099e4:	0004      	movs	r4, r0
100099e6:	000d      	movs	r5, r1
100099e8:	2b00      	cmp	r3, #0
100099ea:	d00a      	beq.n	10009a02 <_Balloc+0x22>
100099ec:	00aa      	lsls	r2, r5, #2
100099ee:	189b      	adds	r3, r3, r2
100099f0:	6818      	ldr	r0, [r3, #0]
100099f2:	2800      	cmp	r0, #0
100099f4:	d00e      	beq.n	10009a14 <_Balloc+0x34>
100099f6:	6802      	ldr	r2, [r0, #0]
100099f8:	601a      	str	r2, [r3, #0]
100099fa:	2300      	movs	r3, #0
100099fc:	6103      	str	r3, [r0, #16]
100099fe:	60c3      	str	r3, [r0, #12]
10009a00:	bd70      	pop	{r4, r5, r6, pc}
10009a02:	2221      	movs	r2, #33	@ 0x21
10009a04:	2104      	movs	r1, #4
10009a06:	f7fd facb 	bl	10006fa0 <_calloc_r>
10009a0a:	1e03      	subs	r3, r0, #0
10009a0c:	6460      	str	r0, [r4, #68]	@ 0x44
10009a0e:	d1ed      	bne.n	100099ec <_Balloc+0xc>
10009a10:	2000      	movs	r0, #0
10009a12:	e7f5      	b.n	10009a00 <_Balloc+0x20>
10009a14:	2601      	movs	r6, #1
10009a16:	40ae      	lsls	r6, r5
10009a18:	1d72      	adds	r2, r6, #5
10009a1a:	2101      	movs	r1, #1
10009a1c:	0020      	movs	r0, r4
10009a1e:	0092      	lsls	r2, r2, #2
10009a20:	f7fd fabe 	bl	10006fa0 <_calloc_r>
10009a24:	2800      	cmp	r0, #0
10009a26:	d0f3      	beq.n	10009a10 <_Balloc+0x30>
10009a28:	6045      	str	r5, [r0, #4]
10009a2a:	6086      	str	r6, [r0, #8]
10009a2c:	e7e5      	b.n	100099fa <_Balloc+0x1a>
10009a2e:	46c0      	nop			@ (mov r8, r8)

10009a30 <_Bfree>:
10009a30:	2900      	cmp	r1, #0
10009a32:	d006      	beq.n	10009a42 <_Bfree+0x12>
10009a34:	684a      	ldr	r2, [r1, #4]
10009a36:	6c43      	ldr	r3, [r0, #68]	@ 0x44
10009a38:	0092      	lsls	r2, r2, #2
10009a3a:	189b      	adds	r3, r3, r2
10009a3c:	681a      	ldr	r2, [r3, #0]
10009a3e:	600a      	str	r2, [r1, #0]
10009a40:	6019      	str	r1, [r3, #0]
10009a42:	4770      	bx	lr

10009a44 <__multadd>:
10009a44:	b5f0      	push	{r4, r5, r6, r7, lr}
10009a46:	46c6      	mov	lr, r8
10009a48:	001f      	movs	r7, r3
10009a4a:	4680      	mov	r8, r0
10009a4c:	2300      	movs	r3, #0
10009a4e:	b500      	push	{lr}
10009a50:	000e      	movs	r6, r1
10009a52:	690d      	ldr	r5, [r1, #16]
10009a54:	3114      	adds	r1, #20
10009a56:	680c      	ldr	r4, [r1, #0]
10009a58:	3301      	adds	r3, #1
10009a5a:	0420      	lsls	r0, r4, #16
10009a5c:	0c00      	lsrs	r0, r0, #16
10009a5e:	4350      	muls	r0, r2
10009a60:	0c24      	lsrs	r4, r4, #16
10009a62:	4354      	muls	r4, r2
10009a64:	19c0      	adds	r0, r0, r7
10009a66:	0c07      	lsrs	r7, r0, #16
10009a68:	19e4      	adds	r4, r4, r7
10009a6a:	0400      	lsls	r0, r0, #16
10009a6c:	0c27      	lsrs	r7, r4, #16
10009a6e:	0c00      	lsrs	r0, r0, #16
10009a70:	0424      	lsls	r4, r4, #16
10009a72:	1824      	adds	r4, r4, r0
10009a74:	c110      	stmia	r1!, {r4}
10009a76:	429d      	cmp	r5, r3
10009a78:	dced      	bgt.n	10009a56 <__multadd+0x12>
10009a7a:	2f00      	cmp	r7, #0
10009a7c:	d008      	beq.n	10009a90 <__multadd+0x4c>
10009a7e:	68b3      	ldr	r3, [r6, #8]
10009a80:	42ab      	cmp	r3, r5
10009a82:	dd09      	ble.n	10009a98 <__multadd+0x54>
10009a84:	1d2b      	adds	r3, r5, #4
10009a86:	009b      	lsls	r3, r3, #2
10009a88:	18f3      	adds	r3, r6, r3
10009a8a:	3501      	adds	r5, #1
10009a8c:	605f      	str	r7, [r3, #4]
10009a8e:	6135      	str	r5, [r6, #16]
10009a90:	0030      	movs	r0, r6
10009a92:	bc80      	pop	{r7}
10009a94:	46b8      	mov	r8, r7
10009a96:	bdf0      	pop	{r4, r5, r6, r7, pc}
10009a98:	6871      	ldr	r1, [r6, #4]
10009a9a:	4640      	mov	r0, r8
10009a9c:	3101      	adds	r1, #1
10009a9e:	f7ff ff9f 	bl	100099e0 <_Balloc>
10009aa2:	1e04      	subs	r4, r0, #0
10009aa4:	d017      	beq.n	10009ad6 <__multadd+0x92>
10009aa6:	0031      	movs	r1, r6
10009aa8:	6932      	ldr	r2, [r6, #16]
10009aaa:	310c      	adds	r1, #12
10009aac:	3202      	adds	r2, #2
10009aae:	0092      	lsls	r2, r2, #2
10009ab0:	300c      	adds	r0, #12
10009ab2:	f7f9 fbb1 	bl	10003218 <__wrap___aeabi_memcpy>
10009ab6:	4643      	mov	r3, r8
10009ab8:	6872      	ldr	r2, [r6, #4]
10009aba:	6c5b      	ldr	r3, [r3, #68]	@ 0x44
10009abc:	0092      	lsls	r2, r2, #2
10009abe:	189b      	adds	r3, r3, r2
10009ac0:	681a      	ldr	r2, [r3, #0]
10009ac2:	6032      	str	r2, [r6, #0]
10009ac4:	601e      	str	r6, [r3, #0]
10009ac6:	0026      	movs	r6, r4
10009ac8:	1d2b      	adds	r3, r5, #4
10009aca:	009b      	lsls	r3, r3, #2
10009acc:	18f3      	adds	r3, r6, r3
10009ace:	3501      	adds	r5, #1
10009ad0:	605f      	str	r7, [r3, #4]
10009ad2:	6135      	str	r5, [r6, #16]
10009ad4:	e7dc      	b.n	10009a90 <__multadd+0x4c>
10009ad6:	2200      	movs	r2, #0
10009ad8:	21ba      	movs	r1, #186	@ 0xba
10009ada:	4b02      	ldr	r3, [pc, #8]	@ (10009ae4 <__multadd+0xa0>)
10009adc:	4802      	ldr	r0, [pc, #8]	@ (10009ae8 <__multadd+0xa4>)
10009ade:	f7fa ffa1 	bl	10004a24 <__assert_func>
10009ae2:	46c0      	nop			@ (mov r8, r8)
10009ae4:	1000b8a8 	.word	0x1000b8a8
10009ae8:	10012500 	.word	0x10012500

10009aec <__s2b>:
10009aec:	b5f8      	push	{r3, r4, r5, r6, r7, lr}
10009aee:	4647      	mov	r7, r8
10009af0:	46ce      	mov	lr, r9
10009af2:	0006      	movs	r6, r0
10009af4:	0018      	movs	r0, r3
10009af6:	b580      	push	{r7, lr}
10009af8:	000c      	movs	r4, r1
10009afa:	3008      	adds	r0, #8
10009afc:	2109      	movs	r1, #9
10009afe:	001f      	movs	r7, r3
10009b00:	4690      	mov	r8, r2
10009b02:	f7f8 fb73 	bl	100021ec <__wrap___aeabi_idiv>
10009b06:	2f09      	cmp	r7, #9
10009b08:	dd3b      	ble.n	10009b82 <__s2b+0x96>
10009b0a:	2501      	movs	r5, #1
10009b0c:	2100      	movs	r1, #0
10009b0e:	006d      	lsls	r5, r5, #1
10009b10:	3101      	adds	r1, #1
10009b12:	42a8      	cmp	r0, r5
10009b14:	dcfb      	bgt.n	10009b0e <__s2b+0x22>
10009b16:	0030      	movs	r0, r6
10009b18:	f7ff ff62 	bl	100099e0 <_Balloc>
10009b1c:	1e01      	subs	r1, r0, #0
10009b1e:	d032      	beq.n	10009b86 <__s2b+0x9a>
10009b20:	9b08      	ldr	r3, [sp, #32]
10009b22:	6143      	str	r3, [r0, #20]
10009b24:	2301      	movs	r3, #1
10009b26:	6103      	str	r3, [r0, #16]
10009b28:	4643      	mov	r3, r8
10009b2a:	2b09      	cmp	r3, #9
10009b2c:	dc16      	bgt.n	10009b5c <__s2b+0x70>
10009b2e:	2309      	movs	r3, #9
10009b30:	4698      	mov	r8, r3
10009b32:	340a      	adds	r4, #10
10009b34:	4547      	cmp	r7, r8
10009b36:	dd0c      	ble.n	10009b52 <__s2b+0x66>
10009b38:	4643      	mov	r3, r8
10009b3a:	19e7      	adds	r7, r4, r7
10009b3c:	1aff      	subs	r7, r7, r3
10009b3e:	7823      	ldrb	r3, [r4, #0]
10009b40:	220a      	movs	r2, #10
10009b42:	0030      	movs	r0, r6
10009b44:	3b30      	subs	r3, #48	@ 0x30
10009b46:	f7ff ff7d 	bl	10009a44 <__multadd>
10009b4a:	3401      	adds	r4, #1
10009b4c:	0001      	movs	r1, r0
10009b4e:	42bc      	cmp	r4, r7
10009b50:	d1f5      	bne.n	10009b3e <__s2b+0x52>
10009b52:	0008      	movs	r0, r1
10009b54:	bcc0      	pop	{r6, r7}
10009b56:	46b9      	mov	r9, r7
10009b58:	46b0      	mov	r8, r6
10009b5a:	bdf8      	pop	{r3, r4, r5, r6, r7, pc}
10009b5c:	2309      	movs	r3, #9
10009b5e:	4699      	mov	r9, r3
10009b60:	44a1      	add	r9, r4
10009b62:	464d      	mov	r5, r9
10009b64:	4444      	add	r4, r8
10009b66:	782b      	ldrb	r3, [r5, #0]
10009b68:	220a      	movs	r2, #10
10009b6a:	0030      	movs	r0, r6
10009b6c:	3b30      	subs	r3, #48	@ 0x30
10009b6e:	f7ff ff69 	bl	10009a44 <__multadd>
10009b72:	3501      	adds	r5, #1
10009b74:	0001      	movs	r1, r0
10009b76:	42a5      	cmp	r5, r4
10009b78:	d1f5      	bne.n	10009b66 <__s2b+0x7a>
10009b7a:	4644      	mov	r4, r8
10009b7c:	3c08      	subs	r4, #8
10009b7e:	444c      	add	r4, r9
10009b80:	e7d8      	b.n	10009b34 <__s2b+0x48>
10009b82:	2100      	movs	r1, #0
10009b84:	e7c7      	b.n	10009b16 <__s2b+0x2a>
10009b86:	2200      	movs	r2, #0
10009b88:	4b02      	ldr	r3, [pc, #8]	@ (10009b94 <__s2b+0xa8>)
10009b8a:	4803      	ldr	r0, [pc, #12]	@ (10009b98 <__s2b+0xac>)
10009b8c:	31d3      	adds	r1, #211	@ 0xd3
10009b8e:	f7fa ff49 	bl	10004a24 <__assert_func>
10009b92:	46c0      	nop			@ (mov r8, r8)
10009b94:	1000b8a8 	.word	0x1000b8a8
10009b98:	10012500 	.word	0x10012500

10009b9c <__hi0bits>:
10009b9c:	2280      	movs	r2, #128	@ 0x80
10009b9e:	0003      	movs	r3, r0
10009ba0:	0252      	lsls	r2, r2, #9
10009ba2:	2000      	movs	r0, #0
10009ba4:	4293      	cmp	r3, r2
10009ba6:	d201      	bcs.n	10009bac <__hi0bits+0x10>
10009ba8:	041b      	lsls	r3, r3, #16
10009baa:	3010      	adds	r0, #16
10009bac:	2280      	movs	r2, #128	@ 0x80
10009bae:	0452      	lsls	r2, r2, #17
10009bb0:	4293      	cmp	r3, r2
10009bb2:	d201      	bcs.n	10009bb8 <__hi0bits+0x1c>
10009bb4:	3008      	adds	r0, #8
10009bb6:	021b      	lsls	r3, r3, #8
10009bb8:	2280      	movs	r2, #128	@ 0x80
10009bba:	0552      	lsls	r2, r2, #21
10009bbc:	4293      	cmp	r3, r2
10009bbe:	d201      	bcs.n	10009bc4 <__hi0bits+0x28>
10009bc0:	3004      	adds	r0, #4
10009bc2:	011b      	lsls	r3, r3, #4
10009bc4:	2280      	movs	r2, #128	@ 0x80
10009bc6:	05d2      	lsls	r2, r2, #23
10009bc8:	4293      	cmp	r3, r2
10009bca:	d303      	bcc.n	10009bd4 <__hi0bits+0x38>
10009bcc:	43db      	mvns	r3, r3
10009bce:	0fdb      	lsrs	r3, r3, #31
10009bd0:	18c0      	adds	r0, r0, r3
10009bd2:	4770      	bx	lr
10009bd4:	0099      	lsls	r1, r3, #2
10009bd6:	009b      	lsls	r3, r3, #2
10009bd8:	d404      	bmi.n	10009be4 <__hi0bits+0x48>
10009bda:	3003      	adds	r0, #3
10009bdc:	4211      	tst	r1, r2
10009bde:	d1f8      	bne.n	10009bd2 <__hi0bits+0x36>
10009be0:	2020      	movs	r0, #32
10009be2:	e7f6      	b.n	10009bd2 <__hi0bits+0x36>
10009be4:	3002      	adds	r0, #2
10009be6:	e7f4      	b.n	10009bd2 <__hi0bits+0x36>

10009be8 <__lo0bits>:
10009be8:	6803      	ldr	r3, [r0, #0]
10009bea:	0002      	movs	r2, r0
10009bec:	0759      	lsls	r1, r3, #29
10009bee:	d007      	beq.n	10009c00 <__lo0bits+0x18>
10009bf0:	07d9      	lsls	r1, r3, #31
10009bf2:	d41e      	bmi.n	10009c32 <__lo0bits+0x4a>
10009bf4:	0799      	lsls	r1, r3, #30
10009bf6:	d520      	bpl.n	10009c3a <__lo0bits+0x52>
10009bf8:	085b      	lsrs	r3, r3, #1
10009bfa:	6003      	str	r3, [r0, #0]
10009bfc:	2001      	movs	r0, #1
10009bfe:	4770      	bx	lr
10009c00:	2000      	movs	r0, #0
10009c02:	0419      	lsls	r1, r3, #16
10009c04:	d101      	bne.n	10009c0a <__lo0bits+0x22>
10009c06:	0c1b      	lsrs	r3, r3, #16
10009c08:	3010      	adds	r0, #16
10009c0a:	21ff      	movs	r1, #255	@ 0xff
10009c0c:	4219      	tst	r1, r3
10009c0e:	d101      	bne.n	10009c14 <__lo0bits+0x2c>
10009c10:	3008      	adds	r0, #8
10009c12:	0a1b      	lsrs	r3, r3, #8
10009c14:	0719      	lsls	r1, r3, #28
10009c16:	d101      	bne.n	10009c1c <__lo0bits+0x34>
10009c18:	3004      	adds	r0, #4
10009c1a:	091b      	lsrs	r3, r3, #4
10009c1c:	0799      	lsls	r1, r3, #30
10009c1e:	d101      	bne.n	10009c24 <__lo0bits+0x3c>
10009c20:	3002      	adds	r0, #2
10009c22:	089b      	lsrs	r3, r3, #2
10009c24:	07d9      	lsls	r1, r3, #31
10009c26:	d402      	bmi.n	10009c2e <__lo0bits+0x46>
10009c28:	3001      	adds	r0, #1
10009c2a:	085b      	lsrs	r3, r3, #1
10009c2c:	d003      	beq.n	10009c36 <__lo0bits+0x4e>
10009c2e:	6013      	str	r3, [r2, #0]
10009c30:	e7e5      	b.n	10009bfe <__lo0bits+0x16>
10009c32:	2000      	movs	r0, #0
10009c34:	e7e3      	b.n	10009bfe <__lo0bits+0x16>
10009c36:	2020      	movs	r0, #32
10009c38:	e7e1      	b.n	10009bfe <__lo0bits+0x16>
10009c3a:	089b      	lsrs	r3, r3, #2
10009c3c:	6003      	str	r3, [r0, #0]
10009c3e:	2002      	movs	r0, #2
10009c40:	e7dd      	b.n	10009bfe <__lo0bits+0x16>
10009c42:	46c0      	nop			@ (mov r8, r8)

10009c44 <__i2b>:
10009c44:	6c43      	ldr	r3, [r0, #68]	@ 0x44
10009c46:	b570      	push	{r4, r5, r6, lr}
10009c48:	0004      	movs	r4, r0
10009c4a:	000d      	movs	r5, r1
10009c4c:	2b00      	cmp	r3, #0
10009c4e:	d00a      	beq.n	10009c66 <__i2b+0x22>
10009c50:	6858      	ldr	r0, [r3, #4]
10009c52:	2800      	cmp	r0, #0
10009c54:	d015      	beq.n	10009c82 <__i2b+0x3e>
10009c56:	6802      	ldr	r2, [r0, #0]
10009c58:	605a      	str	r2, [r3, #4]
10009c5a:	2300      	movs	r3, #0
10009c5c:	60c3      	str	r3, [r0, #12]
10009c5e:	3301      	adds	r3, #1
10009c60:	6145      	str	r5, [r0, #20]
10009c62:	6103      	str	r3, [r0, #16]
10009c64:	bd70      	pop	{r4, r5, r6, pc}
10009c66:	2221      	movs	r2, #33	@ 0x21
10009c68:	2104      	movs	r1, #4
10009c6a:	f7fd f999 	bl	10006fa0 <_calloc_r>
10009c6e:	1e03      	subs	r3, r0, #0
10009c70:	6460      	str	r0, [r4, #68]	@ 0x44
10009c72:	d1ed      	bne.n	10009c50 <__i2b+0xc>
10009c74:	2146      	movs	r1, #70	@ 0x46
10009c76:	2200      	movs	r2, #0
10009c78:	4b08      	ldr	r3, [pc, #32]	@ (10009c9c <__i2b+0x58>)
10009c7a:	4809      	ldr	r0, [pc, #36]	@ (10009ca0 <__i2b+0x5c>)
10009c7c:	31ff      	adds	r1, #255	@ 0xff
10009c7e:	f7fa fed1 	bl	10004a24 <__assert_func>
10009c82:	221c      	movs	r2, #28
10009c84:	2101      	movs	r1, #1
10009c86:	0020      	movs	r0, r4
10009c88:	f7fd f98a 	bl	10006fa0 <_calloc_r>
10009c8c:	2800      	cmp	r0, #0
10009c8e:	d0f1      	beq.n	10009c74 <__i2b+0x30>
10009c90:	2301      	movs	r3, #1
10009c92:	6043      	str	r3, [r0, #4]
10009c94:	3301      	adds	r3, #1
10009c96:	6083      	str	r3, [r0, #8]
10009c98:	e7df      	b.n	10009c5a <__i2b+0x16>
10009c9a:	46c0      	nop			@ (mov r8, r8)
10009c9c:	1000b8a8 	.word	0x1000b8a8
10009ca0:	10012500 	.word	0x10012500

10009ca4 <__multiply>:
10009ca4:	b5f0      	push	{r4, r5, r6, r7, lr}
10009ca6:	464e      	mov	r6, r9
10009ca8:	4657      	mov	r7, sl
10009caa:	4645      	mov	r5, r8
10009cac:	46de      	mov	lr, fp
10009cae:	b5e0      	push	{r5, r6, r7, lr}
10009cb0:	690b      	ldr	r3, [r1, #16]
10009cb2:	6916      	ldr	r6, [r2, #16]
10009cb4:	468a      	mov	sl, r1
10009cb6:	4691      	mov	r9, r2
10009cb8:	4698      	mov	r8, r3
10009cba:	b085      	sub	sp, #20
10009cbc:	42b3      	cmp	r3, r6
10009cbe:	db04      	blt.n	10009cca <__multiply+0x26>
10009cc0:	0033      	movs	r3, r6
10009cc2:	4689      	mov	r9, r1
10009cc4:	4646      	mov	r6, r8
10009cc6:	4692      	mov	sl, r2
10009cc8:	4698      	mov	r8, r3
10009cca:	464b      	mov	r3, r9
10009ccc:	6859      	ldr	r1, [r3, #4]
10009cce:	4643      	mov	r3, r8
10009cd0:	18f5      	adds	r5, r6, r3
10009cd2:	464b      	mov	r3, r9
10009cd4:	689b      	ldr	r3, [r3, #8]
10009cd6:	42ab      	cmp	r3, r5
10009cd8:	da00      	bge.n	10009cdc <__multiply+0x38>
10009cda:	3101      	adds	r1, #1
10009cdc:	f7ff fe80 	bl	100099e0 <_Balloc>
10009ce0:	1e07      	subs	r7, r0, #0
10009ce2:	d100      	bne.n	10009ce6 <__multiply+0x42>
10009ce4:	e0aa      	b.n	10009e3c <__multiply+0x198>
10009ce6:	2314      	movs	r3, #20
10009ce8:	469c      	mov	ip, r3
10009cea:	4484      	add	ip, r0
10009cec:	4663      	mov	r3, ip
10009cee:	00ac      	lsls	r4, r5, #2
10009cf0:	4464      	add	r4, ip
10009cf2:	0018      	movs	r0, r3
10009cf4:	2200      	movs	r2, #0
10009cf6:	42a3      	cmp	r3, r4
10009cf8:	d202      	bcs.n	10009d00 <__multiply+0x5c>
10009cfa:	c304      	stmia	r3!, {r2}
10009cfc:	429c      	cmp	r4, r3
10009cfe:	d8fc      	bhi.n	10009cfa <__multiply+0x56>
10009d00:	2314      	movs	r3, #20
10009d02:	444b      	add	r3, r9
10009d04:	469b      	mov	fp, r3
10009d06:	4643      	mov	r3, r8
10009d08:	4651      	mov	r1, sl
10009d0a:	009b      	lsls	r3, r3, #2
10009d0c:	4698      	mov	r8, r3
10009d0e:	3114      	adds	r1, #20
10009d10:	00b6      	lsls	r6, r6, #2
10009d12:	4488      	add	r8, r1
10009d14:	445e      	add	r6, fp
10009d16:	4541      	cmp	r1, r8
10009d18:	d275      	bcs.n	10009e06 <__multiply+0x162>
10009d1a:	2304      	movs	r3, #4
10009d1c:	469a      	mov	sl, r3
10009d1e:	464b      	mov	r3, r9
10009d20:	3315      	adds	r3, #21
10009d22:	429e      	cmp	r6, r3
10009d24:	d300      	bcc.n	10009d28 <__multiply+0x84>
10009d26:	e081      	b.n	10009e2c <__multiply+0x188>
10009d28:	4643      	mov	r3, r8
10009d2a:	9300      	str	r3, [sp, #0]
10009d2c:	4653      	mov	r3, sl
10009d2e:	9301      	str	r3, [sp, #4]
10009d30:	465b      	mov	r3, fp
10009d32:	46a2      	mov	sl, r4
10009d34:	46b4      	mov	ip, r6
10009d36:	46b9      	mov	r9, r7
10009d38:	000c      	movs	r4, r1
10009d3a:	46ab      	mov	fp, r5
10009d3c:	9302      	str	r3, [sp, #8]
10009d3e:	e006      	b.n	10009d4e <__multiply+0xaa>
10009d40:	0c2d      	lsrs	r5, r5, #16
10009d42:	d132      	bne.n	10009daa <__multiply+0x106>
10009d44:	9b00      	ldr	r3, [sp, #0]
10009d46:	3404      	adds	r4, #4
10009d48:	3004      	adds	r0, #4
10009d4a:	42a3      	cmp	r3, r4
10009d4c:	d958      	bls.n	10009e00 <__multiply+0x15c>
10009d4e:	6825      	ldr	r5, [r4, #0]
10009d50:	042b      	lsls	r3, r5, #16
10009d52:	0c19      	lsrs	r1, r3, #16
10009d54:	2b00      	cmp	r3, #0
10009d56:	d0f3      	beq.n	10009d40 <__multiply+0x9c>
10009d58:	9d02      	ldr	r5, [sp, #8]
10009d5a:	4653      	mov	r3, sl
10009d5c:	0007      	movs	r7, r0
10009d5e:	46a0      	mov	r8, r4
10009d60:	4682      	mov	sl, r0
10009d62:	2600      	movs	r6, #0
10009d64:	000c      	movs	r4, r1
10009d66:	0028      	movs	r0, r5
10009d68:	9303      	str	r3, [sp, #12]
10009d6a:	c808      	ldmia	r0!, {r3}
10009d6c:	6839      	ldr	r1, [r7, #0]
10009d6e:	041a      	lsls	r2, r3, #16
10009d70:	0c12      	lsrs	r2, r2, #16
10009d72:	4362      	muls	r2, r4
10009d74:	0c1b      	lsrs	r3, r3, #16
10009d76:	040d      	lsls	r5, r1, #16
10009d78:	4363      	muls	r3, r4
10009d7a:	0c2d      	lsrs	r5, r5, #16
10009d7c:	1952      	adds	r2, r2, r5
10009d7e:	1992      	adds	r2, r2, r6
10009d80:	0c09      	lsrs	r1, r1, #16
10009d82:	185b      	adds	r3, r3, r1
10009d84:	0c11      	lsrs	r1, r2, #16
10009d86:	185b      	adds	r3, r3, r1
10009d88:	0412      	lsls	r2, r2, #16
10009d8a:	0c1e      	lsrs	r6, r3, #16
10009d8c:	0c12      	lsrs	r2, r2, #16
10009d8e:	041b      	lsls	r3, r3, #16
10009d90:	4313      	orrs	r3, r2
10009d92:	c708      	stmia	r7!, {r3}
10009d94:	4584      	cmp	ip, r0
10009d96:	d8e8      	bhi.n	10009d6a <__multiply+0xc6>
10009d98:	4650      	mov	r0, sl
10009d9a:	4644      	mov	r4, r8
10009d9c:	9b03      	ldr	r3, [sp, #12]
10009d9e:	469a      	mov	sl, r3
10009da0:	9b01      	ldr	r3, [sp, #4]
10009da2:	50c6      	str	r6, [r0, r3]
10009da4:	6825      	ldr	r5, [r4, #0]
10009da6:	0c2d      	lsrs	r5, r5, #16
10009da8:	d0cc      	beq.n	10009d44 <__multiply+0xa0>
10009daa:	0006      	movs	r6, r0
10009dac:	2200      	movs	r2, #0
10009dae:	6803      	ldr	r3, [r0, #0]
10009db0:	46a0      	mov	r8, r4
10009db2:	4660      	mov	r0, ip
10009db4:	0019      	movs	r1, r3
10009db6:	0014      	movs	r4, r2
10009db8:	46b4      	mov	ip, r6
10009dba:	9f02      	ldr	r7, [sp, #8]
10009dbc:	883a      	ldrh	r2, [r7, #0]
10009dbe:	0c09      	lsrs	r1, r1, #16
10009dc0:	436a      	muls	r2, r5
10009dc2:	1912      	adds	r2, r2, r4
10009dc4:	1852      	adds	r2, r2, r1
10009dc6:	041b      	lsls	r3, r3, #16
10009dc8:	0411      	lsls	r1, r2, #16
10009dca:	0c1b      	lsrs	r3, r3, #16
10009dcc:	430b      	orrs	r3, r1
10009dce:	6033      	str	r3, [r6, #0]
10009dd0:	cf10      	ldmia	r7!, {r4}
10009dd2:	6871      	ldr	r1, [r6, #4]
10009dd4:	0c24      	lsrs	r4, r4, #16
10009dd6:	436c      	muls	r4, r5
10009dd8:	040b      	lsls	r3, r1, #16
10009dda:	0c1b      	lsrs	r3, r3, #16
10009ddc:	18e3      	adds	r3, r4, r3
10009dde:	0c12      	lsrs	r2, r2, #16
10009de0:	189b      	adds	r3, r3, r2
10009de2:	0c1c      	lsrs	r4, r3, #16
10009de4:	3604      	adds	r6, #4
10009de6:	42b8      	cmp	r0, r7
10009de8:	d8e8      	bhi.n	10009dbc <__multiply+0x118>
10009dea:	4662      	mov	r2, ip
10009dec:	4684      	mov	ip, r0
10009dee:	0010      	movs	r0, r2
10009df0:	4644      	mov	r4, r8
10009df2:	9a01      	ldr	r2, [sp, #4]
10009df4:	3404      	adds	r4, #4
10009df6:	5083      	str	r3, [r0, r2]
10009df8:	9b00      	ldr	r3, [sp, #0]
10009dfa:	3004      	adds	r0, #4
10009dfc:	42a3      	cmp	r3, r4
10009dfe:	d8a6      	bhi.n	10009d4e <__multiply+0xaa>
10009e00:	4654      	mov	r4, sl
10009e02:	465d      	mov	r5, fp
10009e04:	464f      	mov	r7, r9
10009e06:	2d00      	cmp	r5, #0
10009e08:	dc03      	bgt.n	10009e12 <__multiply+0x16e>
10009e0a:	e006      	b.n	10009e1a <__multiply+0x176>
10009e0c:	3d01      	subs	r5, #1
10009e0e:	2d00      	cmp	r5, #0
10009e10:	d003      	beq.n	10009e1a <__multiply+0x176>
10009e12:	3c04      	subs	r4, #4
10009e14:	6823      	ldr	r3, [r4, #0]
10009e16:	2b00      	cmp	r3, #0
10009e18:	d0f8      	beq.n	10009e0c <__multiply+0x168>
10009e1a:	0038      	movs	r0, r7
10009e1c:	613d      	str	r5, [r7, #16]
10009e1e:	b005      	add	sp, #20
10009e20:	bcf0      	pop	{r4, r5, r6, r7}
10009e22:	46bb      	mov	fp, r7
10009e24:	46b2      	mov	sl, r6
10009e26:	46a9      	mov	r9, r5
10009e28:	46a0      	mov	r8, r4
10009e2a:	bdf0      	pop	{r4, r5, r6, r7, pc}
10009e2c:	464b      	mov	r3, r9
10009e2e:	1af3      	subs	r3, r6, r3
10009e30:	3b15      	subs	r3, #21
10009e32:	089b      	lsrs	r3, r3, #2
10009e34:	3301      	adds	r3, #1
10009e36:	009b      	lsls	r3, r3, #2
10009e38:	469a      	mov	sl, r3
10009e3a:	e775      	b.n	10009d28 <__multiply+0x84>
10009e3c:	21b1      	movs	r1, #177	@ 0xb1
10009e3e:	2200      	movs	r2, #0
10009e40:	4b02      	ldr	r3, [pc, #8]	@ (10009e4c <__multiply+0x1a8>)
10009e42:	4803      	ldr	r0, [pc, #12]	@ (10009e50 <__multiply+0x1ac>)
10009e44:	0049      	lsls	r1, r1, #1
10009e46:	f7fa fded 	bl	10004a24 <__assert_func>
10009e4a:	46c0      	nop			@ (mov r8, r8)
10009e4c:	1000b8a8 	.word	0x1000b8a8
10009e50:	10012500 	.word	0x10012500

10009e54 <__pow5mult>:
10009e54:	b5f8      	push	{r3, r4, r5, r6, r7, lr}
10009e56:	2303      	movs	r3, #3
10009e58:	4647      	mov	r7, r8
10009e5a:	0014      	movs	r4, r2
10009e5c:	46ce      	mov	lr, r9
10009e5e:	001a      	movs	r2, r3
10009e60:	b580      	push	{r7, lr}
10009e62:	000e      	movs	r6, r1
10009e64:	0007      	movs	r7, r0
10009e66:	4022      	ands	r2, r4
10009e68:	4223      	tst	r3, r4
10009e6a:	d134      	bne.n	10009ed6 <__pow5mult+0x82>
10009e6c:	10a4      	asrs	r4, r4, #2
10009e6e:	d023      	beq.n	10009eb8 <__pow5mult+0x64>
10009e70:	6c3d      	ldr	r5, [r7, #64]	@ 0x40
10009e72:	2d00      	cmp	r5, #0
10009e74:	d038      	beq.n	10009ee8 <__pow5mult+0x94>
10009e76:	2301      	movs	r3, #1
10009e78:	4698      	mov	r8, r3
10009e7a:	2300      	movs	r3, #0
10009e7c:	4699      	mov	r9, r3
10009e7e:	4643      	mov	r3, r8
10009e80:	4223      	tst	r3, r4
10009e82:	d108      	bne.n	10009e96 <__pow5mult+0x42>
10009e84:	1064      	asrs	r4, r4, #1
10009e86:	d017      	beq.n	10009eb8 <__pow5mult+0x64>
10009e88:	6828      	ldr	r0, [r5, #0]
10009e8a:	2800      	cmp	r0, #0
10009e8c:	d019      	beq.n	10009ec2 <__pow5mult+0x6e>
10009e8e:	0005      	movs	r5, r0
10009e90:	4643      	mov	r3, r8
10009e92:	4223      	tst	r3, r4
10009e94:	d0f6      	beq.n	10009e84 <__pow5mult+0x30>
10009e96:	002a      	movs	r2, r5
10009e98:	0031      	movs	r1, r6
10009e9a:	0038      	movs	r0, r7
10009e9c:	f7ff ff02 	bl	10009ca4 <__multiply>
10009ea0:	2e00      	cmp	r6, #0
10009ea2:	d006      	beq.n	10009eb2 <__pow5mult+0x5e>
10009ea4:	6872      	ldr	r2, [r6, #4]
10009ea6:	6c7b      	ldr	r3, [r7, #68]	@ 0x44
10009ea8:	0092      	lsls	r2, r2, #2
10009eaa:	189b      	adds	r3, r3, r2
10009eac:	681a      	ldr	r2, [r3, #0]
10009eae:	6032      	str	r2, [r6, #0]
10009eb0:	601e      	str	r6, [r3, #0]
10009eb2:	0006      	movs	r6, r0
10009eb4:	1064      	asrs	r4, r4, #1
10009eb6:	d1e7      	bne.n	10009e88 <__pow5mult+0x34>
10009eb8:	0030      	movs	r0, r6
10009eba:	bcc0      	pop	{r6, r7}
10009ebc:	46b9      	mov	r9, r7
10009ebe:	46b0      	mov	r8, r6
10009ec0:	bdf8      	pop	{r3, r4, r5, r6, r7, pc}
10009ec2:	002a      	movs	r2, r5
10009ec4:	0029      	movs	r1, r5
10009ec6:	0038      	movs	r0, r7
10009ec8:	f7ff feec 	bl	10009ca4 <__multiply>
10009ecc:	464b      	mov	r3, r9
10009ece:	6028      	str	r0, [r5, #0]
10009ed0:	0005      	movs	r5, r0
10009ed2:	6003      	str	r3, [r0, #0]
10009ed4:	e7dc      	b.n	10009e90 <__pow5mult+0x3c>
10009ed6:	4b0f      	ldr	r3, [pc, #60]	@ (10009f14 <__pow5mult+0xc0>)
10009ed8:	3a01      	subs	r2, #1
10009eda:	0092      	lsls	r2, r2, #2
10009edc:	58d2      	ldr	r2, [r2, r3]
10009ede:	2300      	movs	r3, #0
10009ee0:	f7ff fdb0 	bl	10009a44 <__multadd>
10009ee4:	0006      	movs	r6, r0
10009ee6:	e7c1      	b.n	10009e6c <__pow5mult+0x18>
10009ee8:	2101      	movs	r1, #1
10009eea:	0038      	movs	r0, r7
10009eec:	f7ff fd78 	bl	100099e0 <_Balloc>
10009ef0:	1e05      	subs	r5, r0, #0
10009ef2:	d007      	beq.n	10009f04 <__pow5mult+0xb0>
10009ef4:	4b08      	ldr	r3, [pc, #32]	@ (10009f18 <__pow5mult+0xc4>)
10009ef6:	6143      	str	r3, [r0, #20]
10009ef8:	2301      	movs	r3, #1
10009efa:	6103      	str	r3, [r0, #16]
10009efc:	2300      	movs	r3, #0
10009efe:	6438      	str	r0, [r7, #64]	@ 0x40
10009f00:	6003      	str	r3, [r0, #0]
10009f02:	e7b8      	b.n	10009e76 <__pow5mult+0x22>
10009f04:	2146      	movs	r1, #70	@ 0x46
10009f06:	2200      	movs	r2, #0
10009f08:	4b04      	ldr	r3, [pc, #16]	@ (10009f1c <__pow5mult+0xc8>)
10009f0a:	4805      	ldr	r0, [pc, #20]	@ (10009f20 <__pow5mult+0xcc>)
10009f0c:	31ff      	adds	r1, #255	@ 0xff
10009f0e:	f7fa fd89 	bl	10004a24 <__assert_func>
10009f12:	46c0      	nop			@ (mov r8, r8)
10009f14:	1001255c 	.word	0x1001255c
10009f18:	00000271 	.word	0x00000271
10009f1c:	1000b8a8 	.word	0x1000b8a8
10009f20:	10012500 	.word	0x10012500

10009f24 <__lshift>:
10009f24:	b5f0      	push	{r4, r5, r6, r7, lr}
10009f26:	4645      	mov	r5, r8
10009f28:	46de      	mov	lr, fp
10009f2a:	4657      	mov	r7, sl
10009f2c:	464e      	mov	r6, r9
10009f2e:	b5e0      	push	{r5, r6, r7, lr}
10009f30:	000d      	movs	r5, r1
10009f32:	692b      	ldr	r3, [r5, #16]
10009f34:	1154      	asrs	r4, r2, #5
10009f36:	4698      	mov	r8, r3
10009f38:	44a0      	add	r8, r4
10009f3a:	4643      	mov	r3, r8
10009f3c:	1c5e      	adds	r6, r3, #1
10009f3e:	68ab      	ldr	r3, [r5, #8]
10009f40:	4683      	mov	fp, r0
10009f42:	0017      	movs	r7, r2
10009f44:	6849      	ldr	r1, [r1, #4]
10009f46:	b083      	sub	sp, #12
10009f48:	429e      	cmp	r6, r3
10009f4a:	dd03      	ble.n	10009f54 <__lshift+0x30>
10009f4c:	3101      	adds	r1, #1
10009f4e:	005b      	lsls	r3, r3, #1
10009f50:	429e      	cmp	r6, r3
10009f52:	dcfb      	bgt.n	10009f4c <__lshift+0x28>
10009f54:	4658      	mov	r0, fp
10009f56:	f7ff fd43 	bl	100099e0 <_Balloc>
10009f5a:	4684      	mov	ip, r0
10009f5c:	2800      	cmp	r0, #0
10009f5e:	d053      	beq.n	1000a008 <__lshift+0xe4>
10009f60:	0001      	movs	r1, r0
10009f62:	3114      	adds	r1, #20
10009f64:	000b      	movs	r3, r1
10009f66:	9101      	str	r1, [sp, #4]
10009f68:	2c00      	cmp	r4, #0
10009f6a:	dd0c      	ble.n	10009f86 <__lshift+0x62>
10009f6c:	00a4      	lsls	r4, r4, #2
10009f6e:	0022      	movs	r2, r4
10009f70:	2000      	movs	r0, #0
10009f72:	3214      	adds	r2, #20
10009f74:	4462      	add	r2, ip
10009f76:	c301      	stmia	r3!, {r0}
10009f78:	4293      	cmp	r3, r2
10009f7a:	d1fc      	bne.n	10009f76 <__lshift+0x52>
10009f7c:	9b01      	ldr	r3, [sp, #4]
10009f7e:	4699      	mov	r9, r3
10009f80:	44a1      	add	r9, r4
10009f82:	464b      	mov	r3, r9
10009f84:	9301      	str	r3, [sp, #4]
10009f86:	221f      	movs	r2, #31
10009f88:	002b      	movs	r3, r5
10009f8a:	0011      	movs	r1, r2
10009f8c:	692c      	ldr	r4, [r5, #16]
10009f8e:	3314      	adds	r3, #20
10009f90:	00a4      	lsls	r4, r4, #2
10009f92:	4039      	ands	r1, r7
10009f94:	468a      	mov	sl, r1
10009f96:	191c      	adds	r4, r3, r4
10009f98:	423a      	tst	r2, r7
10009f9a:	d02f      	beq.n	10009ffc <__lshift+0xd8>
10009f9c:	3201      	adds	r2, #1
10009f9e:	1a52      	subs	r2, r2, r1
10009fa0:	4691      	mov	r9, r2
10009fa2:	2700      	movs	r7, #0
10009fa4:	9801      	ldr	r0, [sp, #4]
10009fa6:	4651      	mov	r1, sl
10009fa8:	681a      	ldr	r2, [r3, #0]
10009faa:	408a      	lsls	r2, r1
10009fac:	433a      	orrs	r2, r7
10009fae:	c004      	stmia	r0!, {r2}
10009fb0:	464a      	mov	r2, r9
10009fb2:	cb80      	ldmia	r3!, {r7}
10009fb4:	40d7      	lsrs	r7, r2
10009fb6:	429c      	cmp	r4, r3
10009fb8:	d8f5      	bhi.n	10009fa6 <__lshift+0x82>
10009fba:	002a      	movs	r2, r5
10009fbc:	3215      	adds	r2, #21
10009fbe:	2304      	movs	r3, #4
10009fc0:	4294      	cmp	r4, r2
10009fc2:	d304      	bcc.n	10009fce <__lshift+0xaa>
10009fc4:	1b63      	subs	r3, r4, r5
10009fc6:	3b15      	subs	r3, #21
10009fc8:	089b      	lsrs	r3, r3, #2
10009fca:	3301      	adds	r3, #1
10009fcc:	009b      	lsls	r3, r3, #2
10009fce:	9a01      	ldr	r2, [sp, #4]
10009fd0:	50d7      	str	r7, [r2, r3]
10009fd2:	2f00      	cmp	r7, #0
10009fd4:	d100      	bne.n	10009fd8 <__lshift+0xb4>
10009fd6:	4646      	mov	r6, r8
10009fd8:	4663      	mov	r3, ip
10009fda:	611e      	str	r6, [r3, #16]
10009fdc:	465b      	mov	r3, fp
10009fde:	4660      	mov	r0, ip
10009fe0:	686a      	ldr	r2, [r5, #4]
10009fe2:	6c5b      	ldr	r3, [r3, #68]	@ 0x44
10009fe4:	0092      	lsls	r2, r2, #2
10009fe6:	189b      	adds	r3, r3, r2
10009fe8:	681a      	ldr	r2, [r3, #0]
10009fea:	602a      	str	r2, [r5, #0]
10009fec:	601d      	str	r5, [r3, #0]
10009fee:	b003      	add	sp, #12
10009ff0:	bcf0      	pop	{r4, r5, r6, r7}
10009ff2:	46bb      	mov	fp, r7
10009ff4:	46b2      	mov	sl, r6
10009ff6:	46a9      	mov	r9, r5
10009ff8:	46a0      	mov	r8, r4
10009ffa:	bdf0      	pop	{r4, r5, r6, r7, pc}
10009ffc:	9901      	ldr	r1, [sp, #4]
10009ffe:	cb04      	ldmia	r3!, {r2}
1000a000:	c104      	stmia	r1!, {r2}
1000a002:	429c      	cmp	r4, r3
1000a004:	d8fb      	bhi.n	10009ffe <__lshift+0xda>
1000a006:	e7e6      	b.n	10009fd6 <__lshift+0xb2>
1000a008:	21ef      	movs	r1, #239	@ 0xef
1000a00a:	2200      	movs	r2, #0
1000a00c:	4b02      	ldr	r3, [pc, #8]	@ (1000a018 <__lshift+0xf4>)
1000a00e:	4803      	ldr	r0, [pc, #12]	@ (1000a01c <__lshift+0xf8>)
1000a010:	0049      	lsls	r1, r1, #1
1000a012:	f7fa fd07 	bl	10004a24 <__assert_func>
1000a016:	46c0      	nop			@ (mov r8, r8)
1000a018:	1000b8a8 	.word	0x1000b8a8
1000a01c:	10012500 	.word	0x10012500

1000a020 <__mcmp>:
1000a020:	6902      	ldr	r2, [r0, #16]
1000a022:	690b      	ldr	r3, [r1, #16]
1000a024:	b530      	push	{r4, r5, lr}
1000a026:	0005      	movs	r5, r0
1000a028:	1ad0      	subs	r0, r2, r3
1000a02a:	429a      	cmp	r2, r3
1000a02c:	d114      	bne.n	1000a058 <__mcmp+0x38>
1000a02e:	009b      	lsls	r3, r3, #2
1000a030:	3514      	adds	r5, #20
1000a032:	3114      	adds	r1, #20
1000a034:	18ea      	adds	r2, r5, r3
1000a036:	18cb      	adds	r3, r1, r3
1000a038:	e001      	b.n	1000a03e <__mcmp+0x1e>
1000a03a:	4295      	cmp	r5, r2
1000a03c:	d20c      	bcs.n	1000a058 <__mcmp+0x38>
1000a03e:	3a04      	subs	r2, #4
1000a040:	3b04      	subs	r3, #4
1000a042:	6814      	ldr	r4, [r2, #0]
1000a044:	6819      	ldr	r1, [r3, #0]
1000a046:	428c      	cmp	r4, r1
1000a048:	d0f7      	beq.n	1000a03a <__mcmp+0x1a>
1000a04a:	2300      	movs	r3, #0
1000a04c:	428c      	cmp	r4, r1
1000a04e:	415b      	adcs	r3, r3
1000a050:	2002      	movs	r0, #2
1000a052:	425b      	negs	r3, r3
1000a054:	4018      	ands	r0, r3
1000a056:	3801      	subs	r0, #1
1000a058:	bd30      	pop	{r4, r5, pc}
1000a05a:	46c0      	nop			@ (mov r8, r8)

1000a05c <__mdiff>:
1000a05c:	b5f0      	push	{r4, r5, r6, r7, lr}
1000a05e:	4657      	mov	r7, sl
1000a060:	4645      	mov	r5, r8
1000a062:	46de      	mov	lr, fp
1000a064:	464e      	mov	r6, r9
1000a066:	b5e0      	push	{r5, r6, r7, lr}
1000a068:	0017      	movs	r7, r2
1000a06a:	4688      	mov	r8, r1
1000a06c:	690a      	ldr	r2, [r1, #16]
1000a06e:	6939      	ldr	r1, [r7, #16]
1000a070:	b083      	sub	sp, #12
1000a072:	1a54      	subs	r4, r2, r1
1000a074:	428a      	cmp	r2, r1
1000a076:	d116      	bne.n	1000a0a6 <__mdiff+0x4a>
1000a078:	4646      	mov	r6, r8
1000a07a:	003a      	movs	r2, r7
1000a07c:	0089      	lsls	r1, r1, #2
1000a07e:	3614      	adds	r6, #20
1000a080:	3214      	adds	r2, #20
1000a082:	1873      	adds	r3, r6, r1
1000a084:	1852      	adds	r2, r2, r1
1000a086:	e002      	b.n	1000a08e <__mdiff+0x32>
1000a088:	429e      	cmp	r6, r3
1000a08a:	d300      	bcc.n	1000a08e <__mdiff+0x32>
1000a08c:	e091      	b.n	1000a1b2 <__mdiff+0x156>
1000a08e:	3b04      	subs	r3, #4
1000a090:	3a04      	subs	r2, #4
1000a092:	681d      	ldr	r5, [r3, #0]
1000a094:	6811      	ldr	r1, [r2, #0]
1000a096:	428d      	cmp	r5, r1
1000a098:	d0f6      	beq.n	1000a088 <__mdiff+0x2c>
1000a09a:	d207      	bcs.n	1000a0ac <__mdiff+0x50>
1000a09c:	4643      	mov	r3, r8
1000a09e:	2401      	movs	r4, #1
1000a0a0:	46b8      	mov	r8, r7
1000a0a2:	001f      	movs	r7, r3
1000a0a4:	e002      	b.n	1000a0ac <__mdiff+0x50>
1000a0a6:	2c00      	cmp	r4, #0
1000a0a8:	dbf8      	blt.n	1000a09c <__mdiff+0x40>
1000a0aa:	2400      	movs	r4, #0
1000a0ac:	4643      	mov	r3, r8
1000a0ae:	6859      	ldr	r1, [r3, #4]
1000a0b0:	f7ff fc96 	bl	100099e0 <_Balloc>
1000a0b4:	2800      	cmp	r0, #0
1000a0b6:	d100      	bne.n	1000a0ba <__mdiff+0x5e>
1000a0b8:	e094      	b.n	1000a1e4 <__mdiff+0x188>
1000a0ba:	2214      	movs	r2, #20
1000a0bc:	4442      	add	r2, r8
1000a0be:	4691      	mov	r9, r2
1000a0c0:	693a      	ldr	r2, [r7, #16]
1000a0c2:	4643      	mov	r3, r8
1000a0c4:	0092      	lsls	r2, r2, #2
1000a0c6:	4694      	mov	ip, r2
1000a0c8:	2214      	movs	r2, #20
1000a0ca:	0039      	movs	r1, r7
1000a0cc:	4692      	mov	sl, r2
1000a0ce:	2200      	movs	r2, #0
1000a0d0:	691b      	ldr	r3, [r3, #16]
1000a0d2:	3114      	adds	r1, #20
1000a0d4:	464d      	mov	r5, r9
1000a0d6:	60c4      	str	r4, [r0, #12]
1000a0d8:	448c      	add	ip, r1
1000a0da:	009c      	lsls	r4, r3, #2
1000a0dc:	444c      	add	r4, r9
1000a0de:	46bb      	mov	fp, r7
1000a0e0:	4482      	add	sl, r0
1000a0e2:	4667      	mov	r7, ip
1000a0e4:	2614      	movs	r6, #20
1000a0e6:	4684      	mov	ip, r0
1000a0e8:	4699      	mov	r9, r3
1000a0ea:	0010      	movs	r0, r2
1000a0ec:	000a      	movs	r2, r1
1000a0ee:	9500      	str	r5, [sp, #0]
1000a0f0:	9401      	str	r4, [sp, #4]
1000a0f2:	4643      	mov	r3, r8
1000a0f4:	ca02      	ldmia	r2!, {r1}
1000a0f6:	599d      	ldr	r5, [r3, r6]
1000a0f8:	040b      	lsls	r3, r1, #16
1000a0fa:	042c      	lsls	r4, r5, #16
1000a0fc:	0c1b      	lsrs	r3, r3, #16
1000a0fe:	0c24      	lsrs	r4, r4, #16
1000a100:	1ae4      	subs	r4, r4, r3
1000a102:	4663      	mov	r3, ip
1000a104:	1824      	adds	r4, r4, r0
1000a106:	0c09      	lsrs	r1, r1, #16
1000a108:	0c2d      	lsrs	r5, r5, #16
1000a10a:	1a6d      	subs	r5, r5, r1
1000a10c:	1421      	asrs	r1, r4, #16
1000a10e:	1869      	adds	r1, r5, r1
1000a110:	0424      	lsls	r4, r4, #16
1000a112:	1408      	asrs	r0, r1, #16
1000a114:	0c24      	lsrs	r4, r4, #16
1000a116:	0409      	lsls	r1, r1, #16
1000a118:	430c      	orrs	r4, r1
1000a11a:	519c      	str	r4, [r3, r6]
1000a11c:	3604      	adds	r6, #4
1000a11e:	4297      	cmp	r7, r2
1000a120:	d8e7      	bhi.n	1000a0f2 <__mdiff+0x96>
1000a122:	9900      	ldr	r1, [sp, #0]
1000a124:	0002      	movs	r2, r0
1000a126:	464b      	mov	r3, r9
1000a128:	4660      	mov	r0, ip
1000a12a:	4689      	mov	r9, r1
1000a12c:	46bc      	mov	ip, r7
1000a12e:	2115      	movs	r1, #21
1000a130:	465f      	mov	r7, fp
1000a132:	4688      	mov	r8, r1
1000a134:	4661      	mov	r1, ip
1000a136:	1bcf      	subs	r7, r1, r7
1000a138:	3f15      	subs	r7, #21
1000a13a:	08b9      	lsrs	r1, r7, #2
1000a13c:	44d8      	add	r8, fp
1000a13e:	0025      	movs	r5, r4
1000a140:	468b      	mov	fp, r1
1000a142:	9c01      	ldr	r4, [sp, #4]
1000a144:	2104      	movs	r1, #4
1000a146:	45c4      	cmp	ip, r8
1000a148:	d302      	bcc.n	1000a150 <__mdiff+0xf4>
1000a14a:	4659      	mov	r1, fp
1000a14c:	3101      	adds	r1, #1
1000a14e:	0089      	lsls	r1, r1, #2
1000a150:	4489      	add	r9, r1
1000a152:	464e      	mov	r6, r9
1000a154:	4451      	add	r1, sl
1000a156:	454c      	cmp	r4, r9
1000a158:	d935      	bls.n	1000a1c6 <__mdiff+0x16a>
1000a15a:	469c      	mov	ip, r3
1000a15c:	4688      	mov	r8, r1
1000a15e:	000b      	movs	r3, r1
1000a160:	0017      	movs	r7, r2
1000a162:	0039      	movs	r1, r7
1000a164:	ce04      	ldmia	r6!, {r2}
1000a166:	0415      	lsls	r5, r2, #16
1000a168:	0c2d      	lsrs	r5, r5, #16
1000a16a:	19ed      	adds	r5, r5, r7
1000a16c:	142d      	asrs	r5, r5, #16
1000a16e:	0c17      	lsrs	r7, r2, #16
1000a170:	1852      	adds	r2, r2, r1
1000a172:	19ed      	adds	r5, r5, r7
1000a174:	0412      	lsls	r2, r2, #16
1000a176:	142f      	asrs	r7, r5, #16
1000a178:	0c12      	lsrs	r2, r2, #16
1000a17a:	042d      	lsls	r5, r5, #16
1000a17c:	4315      	orrs	r5, r2
1000a17e:	c320      	stmia	r3!, {r5}
1000a180:	42b4      	cmp	r4, r6
1000a182:	d8ee      	bhi.n	1000a162 <__mdiff+0x106>
1000a184:	464a      	mov	r2, r9
1000a186:	4641      	mov	r1, r8
1000a188:	4663      	mov	r3, ip
1000a18a:	3c01      	subs	r4, #1
1000a18c:	1aa2      	subs	r2, r4, r2
1000a18e:	0892      	lsrs	r2, r2, #2
1000a190:	0092      	lsls	r2, r2, #2
1000a192:	1889      	adds	r1, r1, r2
1000a194:	2d00      	cmp	r5, #0
1000a196:	d104      	bne.n	1000a1a2 <__mdiff+0x146>
1000a198:	3904      	subs	r1, #4
1000a19a:	680a      	ldr	r2, [r1, #0]
1000a19c:	3b01      	subs	r3, #1
1000a19e:	2a00      	cmp	r2, #0
1000a1a0:	d0fa      	beq.n	1000a198 <__mdiff+0x13c>
1000a1a2:	6103      	str	r3, [r0, #16]
1000a1a4:	b003      	add	sp, #12
1000a1a6:	bcf0      	pop	{r4, r5, r6, r7}
1000a1a8:	46bb      	mov	fp, r7
1000a1aa:	46b2      	mov	sl, r6
1000a1ac:	46a9      	mov	r9, r5
1000a1ae:	46a0      	mov	r8, r4
1000a1b0:	bdf0      	pop	{r4, r5, r6, r7, pc}
1000a1b2:	2100      	movs	r1, #0
1000a1b4:	f7ff fc14 	bl	100099e0 <_Balloc>
1000a1b8:	2800      	cmp	r0, #0
1000a1ba:	d00d      	beq.n	1000a1d8 <__mdiff+0x17c>
1000a1bc:	2301      	movs	r3, #1
1000a1be:	6103      	str	r3, [r0, #16]
1000a1c0:	2300      	movs	r3, #0
1000a1c2:	6143      	str	r3, [r0, #20]
1000a1c4:	e7ee      	b.n	1000a1a4 <__mdiff+0x148>
1000a1c6:	2100      	movs	r1, #0
1000a1c8:	45c4      	cmp	ip, r8
1000a1ca:	d201      	bcs.n	1000a1d0 <__mdiff+0x174>
1000a1cc:	4451      	add	r1, sl
1000a1ce:	e7e1      	b.n	1000a194 <__mdiff+0x138>
1000a1d0:	465a      	mov	r2, fp
1000a1d2:	0091      	lsls	r1, r2, #2
1000a1d4:	4451      	add	r1, sl
1000a1d6:	e7dd      	b.n	1000a194 <__mdiff+0x138>
1000a1d8:	2200      	movs	r2, #0
1000a1da:	4b05      	ldr	r3, [pc, #20]	@ (1000a1f0 <__mdiff+0x194>)
1000a1dc:	4805      	ldr	r0, [pc, #20]	@ (1000a1f4 <__mdiff+0x198>)
1000a1de:	4906      	ldr	r1, [pc, #24]	@ (1000a1f8 <__mdiff+0x19c>)
1000a1e0:	f7fa fc20 	bl	10004a24 <__assert_func>
1000a1e4:	2200      	movs	r2, #0
1000a1e6:	4b02      	ldr	r3, [pc, #8]	@ (1000a1f0 <__mdiff+0x194>)
1000a1e8:	4802      	ldr	r0, [pc, #8]	@ (1000a1f4 <__mdiff+0x198>)
1000a1ea:	4904      	ldr	r1, [pc, #16]	@ (1000a1fc <__mdiff+0x1a0>)
1000a1ec:	f7fa fc1a 	bl	10004a24 <__assert_func>
1000a1f0:	1000b8a8 	.word	0x1000b8a8
1000a1f4:	10012500 	.word	0x10012500
1000a1f8:	00000237 	.word	0x00000237
1000a1fc:	00000245 	.word	0x00000245

1000a200 <__ulp>:
1000a200:	4a0d      	ldr	r2, [pc, #52]	@ (1000a238 <__ulp+0x38>)
1000a202:	4b0e      	ldr	r3, [pc, #56]	@ (1000a23c <__ulp+0x3c>)
1000a204:	4694      	mov	ip, r2
1000a206:	400b      	ands	r3, r1
1000a208:	4463      	add	r3, ip
1000a20a:	2200      	movs	r2, #0
1000a20c:	2b00      	cmp	r3, #0
1000a20e:	dd02      	ble.n	1000a216 <__ulp+0x16>
1000a210:	0019      	movs	r1, r3
1000a212:	0010      	movs	r0, r2
1000a214:	4770      	bx	lr
1000a216:	425b      	negs	r3, r3
1000a218:	1519      	asrs	r1, r3, #20
1000a21a:	2913      	cmp	r1, #19
1000a21c:	dc03      	bgt.n	1000a226 <__ulp+0x26>
1000a21e:	2380      	movs	r3, #128	@ 0x80
1000a220:	031b      	lsls	r3, r3, #12
1000a222:	410b      	asrs	r3, r1
1000a224:	e7f4      	b.n	1000a210 <__ulp+0x10>
1000a226:	3914      	subs	r1, #20
1000a228:	2201      	movs	r2, #1
1000a22a:	291e      	cmp	r1, #30
1000a22c:	dc02      	bgt.n	1000a234 <__ulp+0x34>
1000a22e:	2280      	movs	r2, #128	@ 0x80
1000a230:	0612      	lsls	r2, r2, #24
1000a232:	40ca      	lsrs	r2, r1
1000a234:	2300      	movs	r3, #0
1000a236:	e7eb      	b.n	1000a210 <__ulp+0x10>
1000a238:	fcc00000 	.word	0xfcc00000
1000a23c:	7ff00000 	.word	0x7ff00000

1000a240 <__b2d>:
1000a240:	b5f8      	push	{r3, r4, r5, r6, r7, lr}
1000a242:	0006      	movs	r6, r0
1000a244:	4647      	mov	r7, r8
1000a246:	46ce      	mov	lr, r9
1000a248:	6904      	ldr	r4, [r0, #16]
1000a24a:	3614      	adds	r6, #20
1000a24c:	00a4      	lsls	r4, r4, #2
1000a24e:	1934      	adds	r4, r6, r4
1000a250:	1f23      	subs	r3, r4, #4
1000a252:	681d      	ldr	r5, [r3, #0]
1000a254:	b580      	push	{r7, lr}
1000a256:	0028      	movs	r0, r5
1000a258:	000f      	movs	r7, r1
1000a25a:	4698      	mov	r8, r3
1000a25c:	f7ff fc9e 	bl	10009b9c <__hi0bits>
1000a260:	2220      	movs	r2, #32
1000a262:	1a11      	subs	r1, r2, r0
1000a264:	0003      	movs	r3, r0
1000a266:	6039      	str	r1, [r7, #0]
1000a268:	280a      	cmp	r0, #10
1000a26a:	dd2e      	ble.n	1000a2ca <__b2d+0x8a>
1000a26c:	0007      	movs	r7, r0
1000a26e:	3f0b      	subs	r7, #11
1000a270:	4546      	cmp	r6, r8
1000a272:	d219      	bcs.n	1000a2a8 <__b2d+0x68>
1000a274:	2308      	movs	r3, #8
1000a276:	425b      	negs	r3, r3
1000a278:	469c      	mov	ip, r3
1000a27a:	44a4      	add	ip, r4
1000a27c:	4663      	mov	r3, ip
1000a27e:	681b      	ldr	r3, [r3, #0]
1000a280:	2f00      	cmp	r7, #0
1000a282:	d01a      	beq.n	1000a2ba <__b2d+0x7a>
1000a284:	0019      	movs	r1, r3
1000a286:	1bd2      	subs	r2, r2, r7
1000a288:	40d1      	lsrs	r1, r2
1000a28a:	40bd      	lsls	r5, r7
1000a28c:	4691      	mov	r9, r2
1000a28e:	4a19      	ldr	r2, [pc, #100]	@ (1000a2f4 <__b2d+0xb4>)
1000a290:	430d      	orrs	r5, r1
1000a292:	432a      	orrs	r2, r5
1000a294:	0011      	movs	r1, r2
1000a296:	40bb      	lsls	r3, r7
1000a298:	4566      	cmp	r6, ip
1000a29a:	d211      	bcs.n	1000a2c0 <__b2d+0x80>
1000a29c:	464a      	mov	r2, r9
1000a29e:	3c0c      	subs	r4, #12
1000a2a0:	6824      	ldr	r4, [r4, #0]
1000a2a2:	40d4      	lsrs	r4, r2
1000a2a4:	4323      	orrs	r3, r4
1000a2a6:	e00b      	b.n	1000a2c0 <__b2d+0x80>
1000a2a8:	280b      	cmp	r0, #11
1000a2aa:	d005      	beq.n	1000a2b8 <__b2d+0x78>
1000a2ac:	40bd      	lsls	r5, r7
1000a2ae:	4b11      	ldr	r3, [pc, #68]	@ (1000a2f4 <__b2d+0xb4>)
1000a2b0:	432b      	orrs	r3, r5
1000a2b2:	0019      	movs	r1, r3
1000a2b4:	2300      	movs	r3, #0
1000a2b6:	e003      	b.n	1000a2c0 <__b2d+0x80>
1000a2b8:	2300      	movs	r3, #0
1000a2ba:	4a0e      	ldr	r2, [pc, #56]	@ (1000a2f4 <__b2d+0xb4>)
1000a2bc:	432a      	orrs	r2, r5
1000a2be:	0011      	movs	r1, r2
1000a2c0:	0018      	movs	r0, r3
1000a2c2:	bcc0      	pop	{r6, r7}
1000a2c4:	46b9      	mov	r9, r7
1000a2c6:	46b0      	mov	r8, r6
1000a2c8:	bdf8      	pop	{r3, r4, r5, r6, r7, pc}
1000a2ca:	002f      	movs	r7, r5
1000a2cc:	3a15      	subs	r2, #21
1000a2ce:	1a12      	subs	r2, r2, r0
1000a2d0:	40d7      	lsrs	r7, r2
1000a2d2:	4691      	mov	r9, r2
1000a2d4:	4a07      	ldr	r2, [pc, #28]	@ (1000a2f4 <__b2d+0xb4>)
1000a2d6:	433a      	orrs	r2, r7
1000a2d8:	0011      	movs	r1, r2
1000a2da:	2700      	movs	r7, #0
1000a2dc:	4546      	cmp	r6, r8
1000a2de:	d203      	bcs.n	1000a2e8 <__b2d+0xa8>
1000a2e0:	464a      	mov	r2, r9
1000a2e2:	3c08      	subs	r4, #8
1000a2e4:	6827      	ldr	r7, [r4, #0]
1000a2e6:	40d7      	lsrs	r7, r2
1000a2e8:	3315      	adds	r3, #21
1000a2ea:	409d      	lsls	r5, r3
1000a2ec:	002b      	movs	r3, r5
1000a2ee:	433b      	orrs	r3, r7
1000a2f0:	e7e6      	b.n	1000a2c0 <__b2d+0x80>
1000a2f2:	46c0      	nop			@ (mov r8, r8)
1000a2f4:	3ff00000 	.word	0x3ff00000

1000a2f8 <__d2b>:
1000a2f8:	b5f0      	push	{r4, r5, r6, r7, lr}
1000a2fa:	2101      	movs	r1, #1
1000a2fc:	b083      	sub	sp, #12
1000a2fe:	0014      	movs	r4, r2
1000a300:	001d      	movs	r5, r3
1000a302:	f7ff fb6d 	bl	100099e0 <_Balloc>
1000a306:	1e06      	subs	r6, r0, #0
1000a308:	d04a      	beq.n	1000a3a0 <__d2b+0xa8>
1000a30a:	032b      	lsls	r3, r5, #12
1000a30c:	006f      	lsls	r7, r5, #1
1000a30e:	0b1b      	lsrs	r3, r3, #12
1000a310:	0d7f      	lsrs	r7, r7, #21
1000a312:	d002      	beq.n	1000a31a <__d2b+0x22>
1000a314:	2280      	movs	r2, #128	@ 0x80
1000a316:	0352      	lsls	r2, r2, #13
1000a318:	4313      	orrs	r3, r2
1000a31a:	9301      	str	r3, [sp, #4]
1000a31c:	2c00      	cmp	r4, #0
1000a31e:	d116      	bne.n	1000a34e <__d2b+0x56>
1000a320:	a801      	add	r0, sp, #4
1000a322:	f7ff fc61 	bl	10009be8 <__lo0bits>
1000a326:	2401      	movs	r4, #1
1000a328:	9b01      	ldr	r3, [sp, #4]
1000a32a:	3020      	adds	r0, #32
1000a32c:	6173      	str	r3, [r6, #20]
1000a32e:	6134      	str	r4, [r6, #16]
1000a330:	2f00      	cmp	r7, #0
1000a332:	d024      	beq.n	1000a37e <__d2b+0x86>
1000a334:	4b1d      	ldr	r3, [pc, #116]	@ (1000a3ac <__d2b+0xb4>)
1000a336:	2435      	movs	r4, #53	@ 0x35
1000a338:	469c      	mov	ip, r3
1000a33a:	9b08      	ldr	r3, [sp, #32]
1000a33c:	4467      	add	r7, ip
1000a33e:	183f      	adds	r7, r7, r0
1000a340:	601f      	str	r7, [r3, #0]
1000a342:	1a24      	subs	r4, r4, r0
1000a344:	0030      	movs	r0, r6
1000a346:	9b09      	ldr	r3, [sp, #36]	@ 0x24
1000a348:	601c      	str	r4, [r3, #0]
1000a34a:	b003      	add	sp, #12
1000a34c:	bdf0      	pop	{r4, r5, r6, r7, pc}
1000a34e:	4668      	mov	r0, sp
1000a350:	9400      	str	r4, [sp, #0]
1000a352:	f7ff fc49 	bl	10009be8 <__lo0bits>
1000a356:	9c01      	ldr	r4, [sp, #4]
1000a358:	2800      	cmp	r0, #0
1000a35a:	d01f      	beq.n	1000a39c <__d2b+0xa4>
1000a35c:	2320      	movs	r3, #32
1000a35e:	0022      	movs	r2, r4
1000a360:	1a1b      	subs	r3, r3, r0
1000a362:	409a      	lsls	r2, r3
1000a364:	40c4      	lsrs	r4, r0
1000a366:	0013      	movs	r3, r2
1000a368:	9a00      	ldr	r2, [sp, #0]
1000a36a:	9401      	str	r4, [sp, #4]
1000a36c:	4313      	orrs	r3, r2
1000a36e:	6173      	str	r3, [r6, #20]
1000a370:	61b4      	str	r4, [r6, #24]
1000a372:	1e63      	subs	r3, r4, #1
1000a374:	419c      	sbcs	r4, r3
1000a376:	3401      	adds	r4, #1
1000a378:	6134      	str	r4, [r6, #16]
1000a37a:	2f00      	cmp	r7, #0
1000a37c:	d1da      	bne.n	1000a334 <__d2b+0x3c>
1000a37e:	4b0c      	ldr	r3, [pc, #48]	@ (1000a3b0 <__d2b+0xb8>)
1000a380:	469c      	mov	ip, r3
1000a382:	9b08      	ldr	r3, [sp, #32]
1000a384:	4460      	add	r0, ip
1000a386:	6018      	str	r0, [r3, #0]
1000a388:	4b0a      	ldr	r3, [pc, #40]	@ (1000a3b4 <__d2b+0xbc>)
1000a38a:	18e3      	adds	r3, r4, r3
1000a38c:	009b      	lsls	r3, r3, #2
1000a38e:	18f3      	adds	r3, r6, r3
1000a390:	6958      	ldr	r0, [r3, #20]
1000a392:	f7ff fc03 	bl	10009b9c <__hi0bits>
1000a396:	0164      	lsls	r4, r4, #5
1000a398:	1a24      	subs	r4, r4, r0
1000a39a:	e7d3      	b.n	1000a344 <__d2b+0x4c>
1000a39c:	9b00      	ldr	r3, [sp, #0]
1000a39e:	e7e6      	b.n	1000a36e <__d2b+0x76>
1000a3a0:	2200      	movs	r2, #0
1000a3a2:	4b05      	ldr	r3, [pc, #20]	@ (1000a3b8 <__d2b+0xc0>)
1000a3a4:	4805      	ldr	r0, [pc, #20]	@ (1000a3bc <__d2b+0xc4>)
1000a3a6:	4906      	ldr	r1, [pc, #24]	@ (1000a3c0 <__d2b+0xc8>)
1000a3a8:	f7fa fb3c 	bl	10004a24 <__assert_func>
1000a3ac:	fffffbcd 	.word	0xfffffbcd
1000a3b0:	fffffbce 	.word	0xfffffbce
1000a3b4:	3fffffff 	.word	0x3fffffff
1000a3b8:	1000b8a8 	.word	0x1000b8a8
1000a3bc:	10012500 	.word	0x10012500
1000a3c0:	0000030f 	.word	0x0000030f

1000a3c4 <__ratio>:
1000a3c4:	b5f0      	push	{r4, r5, r6, r7, lr}
1000a3c6:	46ce      	mov	lr, r9
1000a3c8:	4647      	mov	r7, r8
1000a3ca:	b580      	push	{r7, lr}
1000a3cc:	b085      	sub	sp, #20
1000a3ce:	4688      	mov	r8, r1
1000a3d0:	a902      	add	r1, sp, #8
1000a3d2:	4681      	mov	r9, r0
1000a3d4:	f7ff ff34 	bl	1000a240 <__b2d>
1000a3d8:	0004      	movs	r4, r0
1000a3da:	000d      	movs	r5, r1
1000a3dc:	4640      	mov	r0, r8
1000a3de:	a903      	add	r1, sp, #12
1000a3e0:	f7ff ff2e 	bl	1000a240 <__b2d>
1000a3e4:	0002      	movs	r2, r0
1000a3e6:	000b      	movs	r3, r1
1000a3e8:	4640      	mov	r0, r8
1000a3ea:	4649      	mov	r1, r9
1000a3ec:	6900      	ldr	r0, [r0, #16]
1000a3ee:	6909      	ldr	r1, [r1, #16]
1000a3f0:	9200      	str	r2, [sp, #0]
1000a3f2:	9301      	str	r3, [sp, #4]
1000a3f4:	1a09      	subs	r1, r1, r0
1000a3f6:	0149      	lsls	r1, r1, #5
1000a3f8:	4688      	mov	r8, r1
1000a3fa:	9802      	ldr	r0, [sp, #8]
1000a3fc:	9903      	ldr	r1, [sp, #12]
1000a3fe:	1a40      	subs	r0, r0, r1
1000a400:	0001      	movs	r1, r0
1000a402:	4441      	add	r1, r8
1000a404:	2900      	cmp	r1, #0
1000a406:	dd0b      	ble.n	1000a420 <__ratio+0x5c>
1000a408:	0509      	lsls	r1, r1, #20
1000a40a:	194f      	adds	r7, r1, r5
1000a40c:	003d      	movs	r5, r7
1000a40e:	0020      	movs	r0, r4
1000a410:	0029      	movs	r1, r5
1000a412:	f7f8 f960 	bl	100026d6 <__wrap___aeabi_ddiv>
1000a416:	b005      	add	sp, #20
1000a418:	bcc0      	pop	{r6, r7}
1000a41a:	46b9      	mov	r9, r7
1000a41c:	46b0      	mov	r8, r6
1000a41e:	bdf0      	pop	{r4, r5, r6, r7, pc}
1000a420:	0509      	lsls	r1, r1, #20
1000a422:	1a5b      	subs	r3, r3, r1
1000a424:	9301      	str	r3, [sp, #4]
1000a426:	9a00      	ldr	r2, [sp, #0]
1000a428:	9b01      	ldr	r3, [sp, #4]
1000a42a:	e7f0      	b.n	1000a40e <__ratio+0x4a>

1000a42c <__copybits>:
1000a42c:	0013      	movs	r3, r2
1000a42e:	3901      	subs	r1, #1
1000a430:	b570      	push	{r4, r5, r6, lr}
1000a432:	114c      	asrs	r4, r1, #5
1000a434:	6911      	ldr	r1, [r2, #16]
1000a436:	3401      	adds	r4, #1
1000a438:	3314      	adds	r3, #20
1000a43a:	0089      	lsls	r1, r1, #2
1000a43c:	00a4      	lsls	r4, r4, #2
1000a43e:	1859      	adds	r1, r3, r1
1000a440:	1904      	adds	r4, r0, r4
1000a442:	428b      	cmp	r3, r1
1000a444:	d20a      	bcs.n	1000a45c <__copybits+0x30>
1000a446:	0005      	movs	r5, r0
1000a448:	cb40      	ldmia	r3!, {r6}
1000a44a:	c540      	stmia	r5!, {r6}
1000a44c:	4299      	cmp	r1, r3
1000a44e:	d8fb      	bhi.n	1000a448 <__copybits+0x1c>
1000a450:	1a8b      	subs	r3, r1, r2
1000a452:	3b15      	subs	r3, #21
1000a454:	089b      	lsrs	r3, r3, #2
1000a456:	3301      	adds	r3, #1
1000a458:	009b      	lsls	r3, r3, #2
1000a45a:	18c0      	adds	r0, r0, r3
1000a45c:	4284      	cmp	r4, r0
1000a45e:	d903      	bls.n	1000a468 <__copybits+0x3c>
1000a460:	2300      	movs	r3, #0
1000a462:	c008      	stmia	r0!, {r3}
1000a464:	4284      	cmp	r4, r0
1000a466:	d8fc      	bhi.n	1000a462 <__copybits+0x36>
1000a468:	bd70      	pop	{r4, r5, r6, pc}
1000a46a:	46c0      	nop			@ (mov r8, r8)

1000a46c <__any_on>:
1000a46c:	b510      	push	{r4, lr}
1000a46e:	0004      	movs	r4, r0
1000a470:	6902      	ldr	r2, [r0, #16]
1000a472:	3414      	adds	r4, #20
1000a474:	1148      	asrs	r0, r1, #5
1000a476:	4282      	cmp	r2, r0
1000a478:	da0a      	bge.n	1000a490 <__any_on+0x24>
1000a47a:	0092      	lsls	r2, r2, #2
1000a47c:	18a3      	adds	r3, r4, r2
1000a47e:	e003      	b.n	1000a488 <__any_on+0x1c>
1000a480:	3b04      	subs	r3, #4
1000a482:	681a      	ldr	r2, [r3, #0]
1000a484:	2a00      	cmp	r2, #0
1000a486:	d114      	bne.n	1000a4b2 <__any_on+0x46>
1000a488:	42a3      	cmp	r3, r4
1000a48a:	d8f9      	bhi.n	1000a480 <__any_on+0x14>
1000a48c:	2000      	movs	r0, #0
1000a48e:	bd10      	pop	{r4, pc}
1000a490:	0083      	lsls	r3, r0, #2
1000a492:	18e3      	adds	r3, r4, r3
1000a494:	4282      	cmp	r2, r0
1000a496:	ddf7      	ble.n	1000a488 <__any_on+0x1c>
1000a498:	221f      	movs	r2, #31
1000a49a:	0010      	movs	r0, r2
1000a49c:	4008      	ands	r0, r1
1000a49e:	420a      	tst	r2, r1
1000a4a0:	d0f2      	beq.n	1000a488 <__any_on+0x1c>
1000a4a2:	6819      	ldr	r1, [r3, #0]
1000a4a4:	000a      	movs	r2, r1
1000a4a6:	40c2      	lsrs	r2, r0
1000a4a8:	4082      	lsls	r2, r0
1000a4aa:	2001      	movs	r0, #1
1000a4ac:	4291      	cmp	r1, r2
1000a4ae:	d1ee      	bne.n	1000a48e <__any_on+0x22>
1000a4b0:	e7ea      	b.n	1000a488 <__any_on+0x1c>
1000a4b2:	2001      	movs	r0, #1
1000a4b4:	e7eb      	b.n	1000a48e <__any_on+0x22>
1000a4b6:	46c0      	nop			@ (mov r8, r8)

1000a4b8 <nan>:
1000a4b8:	2000      	movs	r0, #0
1000a4ba:	4901      	ldr	r1, [pc, #4]	@ (1000a4c0 <nan+0x8>)
1000a4bc:	4770      	bx	lr
1000a4be:	46c0      	nop			@ (mov r8, r8)
1000a4c0:	7ff80000 	.word	0x7ff80000

1000a4c4 <__submore>:
1000a4c4:	b5f0      	push	{r4, r5, r6, r7, lr}
1000a4c6:	000c      	movs	r4, r1
1000a4c8:	0023      	movs	r3, r4
1000a4ca:	46c6      	mov	lr, r8
1000a4cc:	6b09      	ldr	r1, [r1, #48]	@ 0x30
1000a4ce:	3340      	adds	r3, #64	@ 0x40
1000a4d0:	b500      	push	{lr}
1000a4d2:	4299      	cmp	r1, r3
1000a4d4:	d015      	beq.n	1000a502 <__submore+0x3e>
1000a4d6:	6b66      	ldr	r6, [r4, #52]	@ 0x34
1000a4d8:	0077      	lsls	r7, r6, #1
1000a4da:	003a      	movs	r2, r7
1000a4dc:	f7fc fe32 	bl	10007144 <_realloc_r>
1000a4e0:	1e05      	subs	r5, r0, #0
1000a4e2:	d027      	beq.n	1000a534 <__submore+0x70>
1000a4e4:	1983      	adds	r3, r0, r6
1000a4e6:	4698      	mov	r8, r3
1000a4e8:	0001      	movs	r1, r0
1000a4ea:	0032      	movs	r2, r6
1000a4ec:	0018      	movs	r0, r3
1000a4ee:	f7f8 fe93 	bl	10003218 <__wrap___aeabi_memcpy>
1000a4f2:	4643      	mov	r3, r8
1000a4f4:	6325      	str	r5, [r4, #48]	@ 0x30
1000a4f6:	6023      	str	r3, [r4, #0]
1000a4f8:	6367      	str	r7, [r4, #52]	@ 0x34
1000a4fa:	2000      	movs	r0, #0
1000a4fc:	bc80      	pop	{r7}
1000a4fe:	46b8      	mov	r8, r7
1000a500:	bdf0      	pop	{r4, r5, r6, r7, pc}
1000a502:	2580      	movs	r5, #128	@ 0x80
1000a504:	00ed      	lsls	r5, r5, #3
1000a506:	0029      	movs	r1, r5
1000a508:	f7fc f9cc 	bl	100068a4 <_malloc_r>
1000a50c:	2800      	cmp	r0, #0
1000a50e:	d011      	beq.n	1000a534 <__submore+0x70>
1000a510:	2342      	movs	r3, #66	@ 0x42
1000a512:	6320      	str	r0, [r4, #48]	@ 0x30
1000a514:	6365      	str	r5, [r4, #52]	@ 0x34
1000a516:	5ce2      	ldrb	r2, [r4, r3]
1000a518:	4b08      	ldr	r3, [pc, #32]	@ (1000a53c <__submore+0x78>)
1000a51a:	54c2      	strb	r2, [r0, r3]
1000a51c:	2341      	movs	r3, #65	@ 0x41
1000a51e:	5ce2      	ldrb	r2, [r4, r3]
1000a520:	4b07      	ldr	r3, [pc, #28]	@ (1000a540 <__submore+0x7c>)
1000a522:	54c2      	strb	r2, [r0, r3]
1000a524:	2340      	movs	r3, #64	@ 0x40
1000a526:	5ce2      	ldrb	r2, [r4, r3]
1000a528:	4b06      	ldr	r3, [pc, #24]	@ (1000a544 <__submore+0x80>)
1000a52a:	469c      	mov	ip, r3
1000a52c:	54c2      	strb	r2, [r0, r3]
1000a52e:	4460      	add	r0, ip
1000a530:	6020      	str	r0, [r4, #0]
1000a532:	e7e2      	b.n	1000a4fa <__submore+0x36>
1000a534:	2001      	movs	r0, #1
1000a536:	4240      	negs	r0, r0
1000a538:	e7e0      	b.n	1000a4fc <__submore+0x38>
1000a53a:	46c0      	nop			@ (mov r8, r8)
1000a53c:	000003ff 	.word	0x000003ff
1000a540:	000003fe 	.word	0x000003fe
1000a544:	000003fd 	.word	0x000003fd

1000a548 <_fini>:
1000a548:	b5f8      	push	{r3, r4, r5, r6, r7, lr}
1000a54a:	46c0      	nop			@ (mov r8, r8)
1000a54c:	0000      	movs	r0, r0
	...

1000a550 <__mutex_exit_veneer>:
1000a550:	b401      	push	{r0}
1000a552:	4802      	ldr	r0, [pc, #8]	@ (1000a55c <__mutex_exit_veneer+0xc>)
1000a554:	4684      	mov	ip, r0
1000a556:	bc01      	pop	{r0}
1000a558:	4760      	bx	ip
1000a55a:	bf00      	nop
1000a55c:	2000015d 	.word	0x2000015d

1000a560 <____aeabi_ldiv0_veneer>:
1000a560:	b401      	push	{r0}
1000a562:	4802      	ldr	r0, [pc, #8]	@ (1000a56c <____aeabi_ldiv0_veneer+0xc>)
1000a564:	4684      	mov	ip, r0
1000a566:	bc01      	pop	{r0}
1000a568:	4760      	bx	ip
1000a56a:	bf00      	nop
1000a56c:	20000185 	.word	0x20000185

1000a570 <____aeabi_idiv0_veneer>:
1000a570:	b401      	push	{r0}
1000a572:	4802      	ldr	r0, [pc, #8]	@ (1000a57c <____aeabi_idiv0_veneer+0xc>)
1000a574:	4684      	mov	ip, r0
1000a576:	bc01      	pop	{r0}
1000a578:	4760      	bx	ip
1000a57a:	bf00      	nop
1000a57c:	20000185 	.word	0x20000185

1000a580 <__mutex_try_enter_block_until_veneer>:
1000a580:	b401      	push	{r0}
1000a582:	4802      	ldr	r0, [pc, #8]	@ (1000a58c <__mutex_try_enter_block_until_veneer+0xc>)
1000a584:	4684      	mov	ip, r0
1000a586:	bc01      	pop	{r0}
1000a588:	4760      	bx	ip
1000a58a:	bf00      	nop
1000a58c:	200000c1 	.word	0x200000c1

1000a590 <__pre_init_runtime_init_early_resets>:
1000a590:	10002065                                e ..

1000a594 <__pre_init_runtime_init_usb_power_down>:
1000a594:	10002091 100021dd 100031fd 10002919     . ...!...1...)..
1000a5a4:	100030d5                                .0..

1000a5a8 <__pre_init_runtime_init_clocks>:
1000a5a8:	10002105                                .!..

1000a5ac <__pre_init_runtime_init_post_clock_resets>:
1000a5ac:	100020ad                                . ..

1000a5b0 <__pre_init_runtime_init_rp2040_gpio_ie_disable>:
1000a5b0:	100020cd                                . ..

1000a5b4 <__pre_init_runtime_init_spin_locks_reset>:
1000a5b4:	100020e1                                . ..

1000a5b8 <__pre_init_runtime_init_mutex>:
1000a5b8:	10001321                                !...

1000a5bc <__pre_init_runtime_init_install_ram_vector_table>:
1000a5bc:	100020e9                                . ..

1000a5c0 <__pre_init_runtime_init_default_alarm_pool>:
1000a5c0:	100016ad                                ....

1000a5c4 <__pre_init_first_per_core_initializer>:
1000a5c4:	1000202d                                - ..

1000a5c8 <__pre_init_runtime_init_per_core_irq_priorities>:
1000a5c8:	10001275                                u...

1000a5cc <__frame_dummy_init_array_entry>:
1000a5cc:	100002b1                                ....

Disassembly of section .data:

200000c0 <mutex_try_enter_block_until>:
200000c0:	b5f0      	push	{r4, r5, r6, r7, lr}
200000c2:	46c6      	mov	lr, r8
200000c4:	0015      	movs	r5, r2
200000c6:	b500      	push	{lr}
200000c8:	0004      	movs	r4, r0
200000ca:	001e      	movs	r6, r3
200000cc:	6802      	ldr	r2, [r0, #0]
200000ce:	f3ef 8110 	mrs	r1, PRIMASK
200000d2:	b672      	cpsid	i
200000d4:	6813      	ldr	r3, [r2, #0]
200000d6:	2b00      	cmp	r3, #0
200000d8:	d0fc      	beq.n	200000d4 <mutex_try_enter_block_until+0x14>
200000da:	f3bf 8f5f 	dmb	sy
200000de:	2304      	movs	r3, #4
200000e0:	56e3      	ldrsb	r3, [r4, r3]
200000e2:	2b00      	cmp	r3, #0
200000e4:	db2d      	blt.n	20000142 <mutex_try_enter_block_until+0x82>
200000e6:	6822      	ldr	r2, [r4, #0]
200000e8:	f3bf 8f5f 	dmb	sy
200000ec:	2000      	movs	r0, #0
200000ee:	6010      	str	r0, [r2, #0]
200000f0:	f381 8810 	msr	PRIMASK, r1
200000f4:	22d0      	movs	r2, #208	@ 0xd0
200000f6:	0612      	lsls	r2, r2, #24
200000f8:	7812      	ldrb	r2, [r2, #0]
200000fa:	b252      	sxtb	r2, r2
200000fc:	4690      	mov	r8, r2
200000fe:	429a      	cmp	r2, r3
20000100:	d103      	bne.n	2000010a <mutex_try_enter_block_until+0x4a>
20000102:	2000      	movs	r0, #0
20000104:	bc80      	pop	{r7}
20000106:	46b8      	mov	r8, r7
20000108:	bdf0      	pop	{r4, r5, r6, r7, pc}
2000010a:	2700      	movs	r7, #0
2000010c:	e00b      	b.n	20000126 <mutex_try_enter_block_until+0x66>
2000010e:	6823      	ldr	r3, [r4, #0]
20000110:	f3bf 8f5f 	dmb	sy
20000114:	601f      	str	r7, [r3, #0]
20000116:	f381 8810 	msr	PRIMASK, r1
2000011a:	0028      	movs	r0, r5
2000011c:	0031      	movs	r1, r6
2000011e:	f000 f833 	bl	20000188 <__best_effort_wfe_or_timeout_veneer>
20000122:	2800      	cmp	r0, #0
20000124:	d1ed      	bne.n	20000102 <mutex_try_enter_block_until+0x42>
20000126:	6822      	ldr	r2, [r4, #0]
20000128:	f3ef 8110 	mrs	r1, PRIMASK
2000012c:	b672      	cpsid	i
2000012e:	6813      	ldr	r3, [r2, #0]
20000130:	2b00      	cmp	r3, #0
20000132:	d0fc      	beq.n	2000012e <mutex_try_enter_block_until+0x6e>
20000134:	f3bf 8f5f 	dmb	sy
20000138:	7923      	ldrb	r3, [r4, #4]
2000013a:	2b7f      	cmp	r3, #127	@ 0x7f
2000013c:	d9e7      	bls.n	2000010e <mutex_try_enter_block_until+0x4e>
2000013e:	4643      	mov	r3, r8
20000140:	e002      	b.n	20000148 <mutex_try_enter_block_until+0x88>
20000142:	23d0      	movs	r3, #208	@ 0xd0
20000144:	061b      	lsls	r3, r3, #24
20000146:	681b      	ldr	r3, [r3, #0]
20000148:	7123      	strb	r3, [r4, #4]
2000014a:	6823      	ldr	r3, [r4, #0]
2000014c:	f3bf 8f5f 	dmb	sy
20000150:	2200      	movs	r2, #0
20000152:	601a      	str	r2, [r3, #0]
20000154:	f381 8810 	msr	PRIMASK, r1
20000158:	2001      	movs	r0, #1
2000015a:	e7d3      	b.n	20000104 <mutex_try_enter_block_until+0x44>

2000015c <mutex_exit>:
2000015c:	6802      	ldr	r2, [r0, #0]
2000015e:	f3ef 8110 	mrs	r1, PRIMASK
20000162:	b672      	cpsid	i
20000164:	6813      	ldr	r3, [r2, #0]
20000166:	2b00      	cmp	r3, #0
20000168:	d0fc      	beq.n	20000164 <mutex_exit+0x8>
2000016a:	f3bf 8f5f 	dmb	sy
2000016e:	23ff      	movs	r3, #255	@ 0xff
20000170:	7103      	strb	r3, [r0, #4]
20000172:	6803      	ldr	r3, [r0, #0]
20000174:	f3bf 8f5f 	dmb	sy
20000178:	2200      	movs	r2, #0
2000017a:	601a      	str	r2, [r3, #0]
2000017c:	f381 8810 	msr	PRIMASK, r1
20000180:	bf40      	sev
20000182:	4770      	bx	lr

20000184 <__aeabi_idiv0>:
20000184:	4770      	bx	lr
20000186:	46c0      	nop			@ (mov r8, r8)

20000188 <__best_effort_wfe_or_timeout_veneer>:
20000188:	b401      	push	{r0}
2000018a:	4802      	ldr	r0, [pc, #8]	@ (20000194 <__best_effort_wfe_or_timeout_veneer+0xc>)
2000018c:	4684      	mov	ip, r0
2000018e:	bc01      	pop	{r0}
20000190:	4760      	bx	ip
20000192:	bf00      	nop
20000194:	100019bd 	.word	0x100019bd

20000198 <soil_wet_threshold>:
20000198:	                                         ..

2000019a <soil_dry_threshold>:
2000019a:	                                         ,.

2000019c <temp_low_threshold>:
2000019c:	41200000                                .. A

200001a0 <temp_high_threshold>:
200001a0:	41f00000                                ...A

200001a4 <light_low_threshold>:
200001a4:	42480000                                ..HB

200001a8 <light_high_threshold>:
200001a8:	447a0000                                ..zD

200001ac <striped_spin_lock_num>:
200001ac:	00000010                                ....

200001b0 <default_alarm_pool>:
	...
200001c4:	20000898 00000000 00000000              ... ........

200001d0 <aeabi_bits_funcs>:
200001d0:	00003350 	.word	0x00003350
200001d4:	0000334c 	.word	0x0000334c
200001d8:	00003354 	.word	0x00003354
200001dc:	00003352 	.word	0x00003352

200001e0 <aeabi_bits_funcs_end>:
200001e0:	0000534d 	.word	0x0000534d
200001e4:	0000434d 	.word	0x0000434d
200001e8:	00003453 	.word	0x00003453
200001ec:	00003443 	.word	0x00003443

200001f0 <__malloc_sbrk_base>:
200001f0:	ffffffff                                ....

200001f4 <__malloc_trim_threshold>:
200001f4:	00020000                                ....

200001f8 <__malloc_av_>:
	...
20000200:	200001f8 200001f8 20000200 20000200     ... ... ... ... 
20000210:	20000208 20000208 20000210 20000210     ... ... ... ... 
20000220:	20000218 20000218 20000220 20000220     ... ...  ..  .. 
20000230:	20000228 20000228 20000230 20000230     (.. (.. 0.. 0.. 
20000240:	20000238 20000238 20000240 20000240     8.. 8.. @.. @.. 
20000250:	20000248 20000248 20000250 20000250     H.. H.. P.. P.. 
20000260:	20000258 20000258 20000260 20000260     X.. X.. `.. `.. 
20000270:	20000268 20000268 20000270 20000270     h.. h.. p.. p.. 
20000280:	20000278 20000278 20000280 20000280     x.. x.. ... ... 
20000290:	20000288 20000288 20000290 20000290     ... ... ... ... 
200002a0:	20000298 20000298 200002a0 200002a0     ... ... ... ... 
200002b0:	200002a8 200002a8 200002b0 200002b0     ... ... ... ... 
200002c0:	200002b8 200002b8 200002c0 200002c0     ... ... ... ... 
200002d0:	200002c8 200002c8 200002d0 200002d0     ... ... ... ... 
200002e0:	200002d8 200002d8 200002e0 200002e0     ... ... ... ... 
200002f0:	200002e8 200002e8 200002f0 200002f0     ... ... ... ... 
20000300:	200002f8 200002f8 20000300 20000300     ... ... ... ... 
20000310:	20000308 20000308 20000310 20000310     ... ... ... ... 
20000320:	20000318 20000318 20000320 20000320     ... ...  ..  .. 
20000330:	20000328 20000328 20000330 20000330     (.. (.. 0.. 0.. 
20000340:	20000338 20000338 20000340 20000340     8.. 8.. @.. @.. 
20000350:	20000348 20000348 20000350 20000350     H.. H.. P.. P.. 
20000360:	20000358 20000358 20000360 20000360     X.. X.. `.. `.. 
20000370:	20000368 20000368 20000370 20000370     h.. h.. p.. p.. 
20000380:	20000378 20000378 20000380 20000380     x.. x.. ... ... 
20000390:	20000388 20000388 20000390 20000390     ... ... ... ... 
200003a0:	20000398 20000398 200003a0 200003a0     ... ... ... ... 
200003b0:	200003a8 200003a8 200003b0 200003b0     ... ... ... ... 
200003c0:	200003b8 200003b8 200003c0 200003c0     ... ... ... ... 
200003d0:	200003c8 200003c8 200003d0 200003d0     ... ... ... ... 
200003e0:	200003d8 200003d8 200003e0 200003e0     ... ... ... ... 
200003f0:	200003e8 200003e8 200003f0 200003f0     ... ... ... ... 
20000400:	200003f8 200003f8 20000400 20000400     ... ... ... ... 
20000410:	20000408 20000408 20000410 20000410     ... ... ... ... 
20000420:	20000418 20000418 20000420 20000420     ... ...  ..  .. 
20000430:	20000428 20000428 20000430 20000430     (.. (.. 0.. 0.. 
20000440:	20000438 20000438 20000440 20000440     8.. 8.. @.. @.. 
20000450:	20000448 20000448 20000450 20000450     H.. H.. P.. P.. 
20000460:	20000458 20000458 20000460 20000460     X.. X.. `.. `.. 
20000470:	20000468 20000468 20000470 20000470     h.. h.. p.. p.. 
20000480:	20000478 20000478 20000480 20000480     x.. x.. ... ... 
20000490:	20000488 20000488 20000490 20000490     ... ... ... ... 
200004a0:	20000498 20000498 200004a0 200004a0     ... ... ... ... 
200004b0:	200004a8 200004a8 200004b0 200004b0     ... ... ... ... 
200004c0:	200004b8 200004b8 200004c0 200004c0     ... ... ... ... 
200004d0:	200004c8 200004c8 200004d0 200004d0     ... ... ... ... 
200004e0:	200004d8 200004d8 200004e0 200004e0     ... ... ... ... 
200004f0:	200004e8 200004e8 200004f0 200004f0     ... ... ... ... 
20000500:	200004f8 200004f8 20000500 20000500     ... ... ... ... 
20000510:	20000508 20000508 20000510 20000510     ... ... ... ... 
20000520:	20000518 20000518 20000520 20000520     ... ...  ..  .. 
20000530:	20000528 20000528 20000530 20000530     (.. (.. 0.. 0.. 
20000540:	20000538 20000538 20000540 20000540     8.. 8.. @.. @.. 
20000550:	20000548 20000548 20000550 20000550     H.. H.. P.. P.. 
20000560:	20000558 20000558 20000560 20000560     X.. X.. `.. `.. 
20000570:	20000568 20000568 20000570 20000570     h.. h.. p.. p.. 
20000580:	20000578 20000578 20000580 20000580     x.. x.. ... ... 
20000590:	20000588 20000588 20000590 20000590     ... ... ... ... 
200005a0:	20000598 20000598 200005a0 200005a0     ... ... ... ... 
200005b0:	200005a8 200005a8 200005b0 200005b0     ... ... ... ... 
200005c0:	200005b8 200005b8 200005c0 200005c0     ... ... ... ... 
200005d0:	200005c8 200005c8 200005d0 200005d0     ... ... ... ... 
200005e0:	200005d8 200005d8 200005e0 200005e0     ... ... ... ... 
200005f0:	200005e8 200005e8 200005f0 200005f0     ... ... ... ... 

20000600 <__global_locale>:
20000600:	00000043 00000000 00000000 00000000     C...............
	...
20000620:	00000043 00000000 00000000 00000000     C...............
	...
20000640:	00000043 00000000 00000000 00000000     C...............
	...
20000660:	00000043 00000000 00000000 00000000     C...............
	...
20000680:	00000043 00000000 00000000 00000000     C...............
	...
200006a0:	00000043 00000000 00000000 00000000     C...............
	...
200006c0:	00000043 00000000 00000000 00000000     C...............
	...
200006e0:	1000954d 10009905 00000000 1000b674     M...........t...
200006f0:	1000b62c 1000a73c 1000a73c 1000a73c     ,...<...<...<...
20000700:	1000a73c 1000a73c 1000a73c 1000a73c     <...<...<...<...
20000710:	1000a73c 1000a73c ffffffff ffffffff     <...<...........
20000720:	ffffffff 0000ffff 53410001 00494943     ..........ASCII.
	...
20000748:	53410000 00494943 00000000 00000000     ..ASCII.........
	...

2000076c <_impure_ptr>:
2000076c:	20000770                                p.. 

20000770 <_impure_data>:
20000770:	00000000 20000c60 20000cc8 20000d30     ....`.. ... 0.. 
	...
20000808:	00000001 00000000 abcd330e e66d1234     .........3..4.m.
20000818:	0005deec 0000000b 00000000 00000000     ................
	...

20000890 <print_mutex>:
	...
